(dp0
I1
(lp1
S'Where'
p2
aS'was'
p3
aS'the'
p4
aS'football'
p5
aS'before'
p6
aS'the'
p7
aS'bathroom'
p8
asI2
(lp9
S'Where'
p10
aS'was'
p11
aS'the'
p12
aS'football'
p13
aS'before'
p14
aS'the'
p15
aS'bathroom'
p16
asI3
(lp17
S'Where'
p18
aS'was'
p19
aS'the'
p20
aS'apple'
p21
aS'before'
p22
aS'the'
p23
aS'garden'
p24
asI4
(lp25
S'Where'
p26
aS'was'
p27
aS'the'
p28
aS'apple'
p29
aS'before'
p30
aS'the'
p31
aS'garden'
p32
asI5
(lp33
S'Where'
p34
aS'was'
p35
aS'the'
p36
aS'milk'
p37
aS'before'
p38
aS'the'
p39
aS'kitchen'
p40
asI6
(lp41
S'Where'
p42
aS'was'
p43
aS'the'
p44
aS'apple'
p45
aS'before'
p46
aS'the'
p47
aS'bedroom'
p48
asI7
(lp49
S'Where'
p50
aS'was'
p51
aS'the'
p52
aS'apple'
p53
aS'before'
p54
aS'the'
p55
aS'bedroom'
p56
asI8
(lp57
S'Where'
p58
aS'was'
p59
aS'the'
p60
aS'apple'
p61
aS'before'
p62
aS'the'
p63
aS'bedroom'
p64
asI9
(lp65
S'Where'
p66
aS'was'
p67
aS'the'
p68
aS'apple'
p69
aS'before'
p70
aS'the'
p71
aS'garden'
p72
asI10
(lp73
S'Where'
p74
aS'was'
p75
aS'the'
p76
aS'apple'
p77
aS'before'
p78
aS'the'
p79
aS'bathroom'
p80
asI11
(lp81
S'Where'
p82
aS'was'
p83
aS'the'
p84
aS'apple'
p85
aS'before'
p86
aS'the'
p87
aS'garden'
p88
asI12
(lp89
S'Where'
p90
aS'was'
p91
aS'the'
p92
aS'apple'
p93
aS'before'
p94
aS'the'
p95
aS'garden'
p96
asI13
(lp97
S'Where'
p98
aS'was'
p99
aS'the'
p100
aS'football'
p101
aS'before'
p102
aS'the'
p103
aS'office'
p104
asI14
(lp105
S'Where'
p106
aS'was'
p107
aS'the'
p108
aS'football'
p109
aS'before'
p110
aS'the'
p111
aS'office'
p112
asI15
(lp113
S'Where'
p114
aS'was'
p115
aS'the'
p116
aS'milk'
p117
aS'before'
p118
aS'the'
p119
aS'bathroom'
p120
asI16
(lp121
S'Where'
p122
aS'was'
p123
aS'the'
p124
aS'football'
p125
aS'before'
p126
aS'the'
p127
aS'kitchen'
p128
asI17
(lp129
S'Where'
p130
aS'was'
p131
aS'the'
p132
aS'football'
p133
aS'before'
p134
aS'the'
p135
aS'kitchen'
p136
asI18
(lp137
S'Where'
p138
aS'was'
p139
aS'the'
p140
aS'milk'
p141
aS'before'
p142
aS'the'
p143
aS'hallway'
p144
asI19
(lp145
S'Where'
p146
aS'was'
p147
aS'the'
p148
aS'football'
p149
aS'before'
p150
aS'the'
p151
aS'garden'
p152
asI20
(lp153
S'Where'
p154
aS'was'
p155
aS'the'
p156
aS'football'
p157
aS'before'
p158
aS'the'
p159
aS'hallway'
p160
asI21
(lp161
S'Where'
p162
aS'was'
p163
aS'the'
p164
aS'football'
p165
aS'before'
p166
aS'the'
p167
aS'office'
p168
asI22
(lp169
S'Where'
p170
aS'was'
p171
aS'the'
p172
aS'football'
p173
aS'before'
p174
aS'the'
p175
aS'office'
p176
asI23
(lp177
S'Where'
p178
aS'was'
p179
aS'the'
p180
aS'apple'
p181
aS'before'
p182
aS'the'
p183
aS'garden'
p184
asI24
(lp185
S'Where'
p186
aS'was'
p187
aS'the'
p188
aS'apple'
p189
aS'before'
p190
aS'the'
p191
aS'office'
p192
asI25
(lp193
S'Where'
p194
aS'was'
p195
aS'the'
p196
aS'apple'
p197
aS'before'
p198
aS'the'
p199
aS'office'
p200
asI26
(lp201
S'Where'
p202
aS'was'
p203
aS'the'
p204
aS'apple'
p205
aS'before'
p206
aS'the'
p207
aS'kitchen'
p208
asI27
(lp209
S'Where'
p210
aS'was'
p211
aS'the'
p212
aS'apple'
p213
aS'before'
p214
aS'the'
p215
aS'kitchen'
p216
asI28
(lp217
S'Where'
p218
aS'was'
p219
aS'the'
p220
aS'apple'
p221
aS'before'
p222
aS'the'
p223
aS'bedroom'
p224
asI29
(lp225
S'Where'
p226
aS'was'
p227
aS'the'
p228
aS'football'
p229
aS'before'
p230
aS'the'
p231
aS'office'
p232
asI30
(lp233
S'Where'
p234
aS'was'
p235
aS'the'
p236
aS'apple'
p237
aS'before'
p238
aS'the'
p239
aS'bedroom'
p240
asI31
(lp241
S'Where'
p242
aS'was'
p243
aS'the'
p244
aS'football'
p245
aS'before'
p246
aS'the'
p247
aS'garden'
p248
asI32
(lp249
S'Where'
p250
aS'was'
p251
aS'the'
p252
aS'football'
p253
aS'before'
p254
aS'the'
p255
aS'garden'
p256
asI33
(lp257
S'Where'
p258
aS'was'
p259
aS'the'
p260
aS'football'
p261
aS'before'
p262
aS'the'
p263
aS'garden'
p264
asI34
(lp265
S'Where'
p266
aS'was'
p267
aS'the'
p268
aS'milk'
p269
aS'before'
p270
aS'the'
p271
aS'garden'
p272
asI35
(lp273
S'Where'
p274
aS'was'
p275
aS'the'
p276
aS'milk'
p277
aS'before'
p278
aS'the'
p279
aS'kitchen'
p280
asI36
(lp281
S'Where'
p282
aS'was'
p283
aS'the'
p284
aS'milk'
p285
aS'before'
p286
aS'the'
p287
aS'bedroom'
p288
asI37
(lp289
S'Where'
p290
aS'was'
p291
aS'the'
p292
aS'football'
p293
aS'before'
p294
aS'the'
p295
aS'kitchen'
p296
asI38
(lp297
S'Where'
p298
aS'was'
p299
aS'the'
p300
aS'football'
p301
aS'before'
p302
aS'the'
p303
aS'kitchen'
p304
asI39
(lp305
S'Where'
p306
aS'was'
p307
aS'the'
p308
aS'football'
p309
aS'before'
p310
aS'the'
p311
aS'office'
p312
asI40
(lp313
S'Where'
p314
aS'was'
p315
aS'the'
p316
aS'milk'
p317
aS'before'
p318
aS'the'
p319
aS'hallway'
p320
asI41
(lp321
S'Where'
p322
aS'was'
p323
aS'the'
p324
aS'apple'
p325
aS'before'
p326
aS'the'
p327
aS'hallway'
p328
asI42
(lp329
S'Where'
p330
aS'was'
p331
aS'the'
p332
aS'milk'
p333
aS'before'
p334
aS'the'
p335
aS'bathroom'
p336
asI43
(lp337
S'Where'
p338
aS'was'
p339
aS'the'
p340
aS'milk'
p341
aS'before'
p342
aS'the'
p343
aS'hallway'
p344
asI44
(lp345
S'Where'
p346
aS'was'
p347
aS'the'
p348
aS'milk'
p349
aS'before'
p350
aS'the'
p351
aS'hallway'
p352
asI45
(lp353
S'Where'
p354
aS'was'
p355
aS'the'
p356
aS'milk'
p357
aS'before'
p358
aS'the'
p359
aS'hallway'
p360
asI46
(lp361
S'Where'
p362
aS'was'
p363
aS'the'
p364
aS'milk'
p365
aS'before'
p366
aS'the'
p367
aS'garden'
p368
asI47
(lp369
S'Where'
p370
aS'was'
p371
aS'the'
p372
aS'milk'
p373
aS'before'
p374
aS'the'
p375
aS'bedroom'
p376
asI48
(lp377
S'Where'
p378
aS'was'
p379
aS'the'
p380
aS'football'
p381
aS'before'
p382
aS'the'
p383
aS'hallway'
p384
asI49
(lp385
S'Where'
p386
aS'was'
p387
aS'the'
p388
aS'football'
p389
aS'before'
p390
aS'the'
p391
aS'bathroom'
p392
asI50
(lp393
S'Where'
p394
aS'was'
p395
aS'the'
p396
aS'football'
p397
aS'before'
p398
aS'the'
p399
aS'hallway'
p400
asI51
(lp401
S'Where'
p402
aS'was'
p403
aS'the'
p404
aS'apple'
p405
aS'before'
p406
aS'the'
p407
aS'garden'
p408
asI52
(lp409
S'Where'
p410
aS'was'
p411
aS'the'
p412
aS'apple'
p413
aS'before'
p414
aS'the'
p415
aS'garden'
p416
asI53
(lp417
S'Where'
p418
aS'was'
p419
aS'the'
p420
aS'football'
p421
aS'before'
p422
aS'the'
p423
aS'bathroom'
p424
asI54
(lp425
S'Where'
p426
aS'was'
p427
aS'the'
p428
aS'football'
p429
aS'before'
p430
aS'the'
p431
aS'bedroom'
p432
asI55
(lp433
S'Where'
p434
aS'was'
p435
aS'the'
p436
aS'football'
p437
aS'before'
p438
aS'the'
p439
aS'bedroom'
p440
asI56
(lp441
S'Where'
p442
aS'was'
p443
aS'the'
p444
aS'apple'
p445
aS'before'
p446
aS'the'
p447
aS'bedroom'
p448
asI57
(lp449
S'Where'
p450
aS'was'
p451
aS'the'
p452
aS'apple'
p453
aS'before'
p454
aS'the'
p455
aS'bedroom'
p456
asI58
(lp457
S'Where'
p458
aS'was'
p459
aS'the'
p460
aS'milk'
p461
aS'before'
p462
aS'the'
p463
aS'bathroom'
p464
asI59
(lp465
S'Where'
p466
aS'was'
p467
aS'the'
p468
aS'milk'
p469
aS'before'
p470
aS'the'
p471
aS'kitchen'
p472
asI60
(lp473
S'Where'
p474
aS'was'
p475
aS'the'
p476
aS'apple'
p477
aS'before'
p478
aS'the'
p479
aS'bathroom'
p480
asI61
(lp481
S'Where'
p482
aS'was'
p483
aS'the'
p484
aS'football'
p485
aS'before'
p486
aS'the'
p487
aS'garden'
p488
asI62
(lp489
S'Where'
p490
aS'was'
p491
aS'the'
p492
aS'milk'
p493
aS'before'
p494
aS'the'
p495
aS'garden'
p496
asI63
(lp497
S'Where'
p498
aS'was'
p499
aS'the'
p500
aS'apple'
p501
aS'before'
p502
aS'the'
p503
aS'garden'
p504
asI64
(lp505
S'Where'
p506
aS'was'
p507
aS'the'
p508
aS'apple'
p509
aS'before'
p510
aS'the'
p511
aS'hallway'
p512
asI65
(lp513
S'Where'
p514
aS'was'
p515
aS'the'
p516
aS'apple'
p517
aS'before'
p518
aS'the'
p519
aS'garden'
p520
asI66
(lp521
S'Where'
p522
aS'was'
p523
aS'the'
p524
aS'apple'
p525
aS'before'
p526
aS'the'
p527
aS'bedroom'
p528
asI67
(lp529
S'Where'
p530
aS'was'
p531
aS'the'
p532
aS'apple'
p533
aS'before'
p534
aS'the'
p535
aS'bedroom'
p536
asI68
(lp537
S'Where'
p538
aS'was'
p539
aS'the'
p540
aS'apple'
p541
aS'before'
p542
aS'the'
p543
aS'bedroom'
p544
asI69
(lp545
S'Where'
p546
aS'was'
p547
aS'the'
p548
aS'apple'
p549
aS'before'
p550
aS'the'
p551
aS'bedroom'
p552
asI70
(lp553
S'Where'
p554
aS'was'
p555
aS'the'
p556
aS'football'
p557
aS'before'
p558
aS'the'
p559
aS'kitchen'
p560
asI71
(lp561
S'Where'
p562
aS'was'
p563
aS'the'
p564
aS'apple'
p565
aS'before'
p566
aS'the'
p567
aS'garden'
p568
asI72
(lp569
S'Where'
p570
aS'was'
p571
aS'the'
p572
aS'apple'
p573
aS'before'
p574
aS'the'
p575
aS'garden'
p576
asI73
(lp577
S'Where'
p578
aS'was'
p579
aS'the'
p580
aS'football'
p581
aS'before'
p582
aS'the'
p583
aS'bathroom'
p584
asI74
(lp585
S'Where'
p586
aS'was'
p587
aS'the'
p588
aS'football'
p589
aS'before'
p590
aS'the'
p591
aS'kitchen'
p592
asI75
(lp593
S'Where'
p594
aS'was'
p595
aS'the'
p596
aS'football'
p597
aS'before'
p598
aS'the'
p599
aS'kitchen'
p600
asI76
(lp601
S'Where'
p602
aS'was'
p603
aS'the'
p604
aS'milk'
p605
aS'before'
p606
aS'the'
p607
aS'bathroom'
p608
asI77
(lp609
S'Where'
p610
aS'was'
p611
aS'the'
p612
aS'milk'
p613
aS'before'
p614
aS'the'
p615
aS'bathroom'
p616
asI78
(lp617
S'Where'
p618
aS'was'
p619
aS'the'
p620
aS'milk'
p621
aS'before'
p622
aS'the'
p623
aS'bathroom'
p624
asI79
(lp625
S'Where'
p626
aS'was'
p627
aS'the'
p628
aS'football'
p629
aS'before'
p630
aS'the'
p631
aS'office'
p632
asI80
(lp633
S'Where'
p634
aS'was'
p635
aS'the'
p636
aS'football'
p637
aS'before'
p638
aS'the'
p639
aS'office'
p640
asI81
(lp641
S'Where'
p642
aS'was'
p643
aS'the'
p644
aS'football'
p645
aS'before'
p646
aS'the'
p647
aS'kitchen'
p648
asI82
(lp649
S'Where'
p650
aS'was'
p651
aS'the'
p652
aS'football'
p653
aS'before'
p654
aS'the'
p655
aS'kitchen'
p656
asI83
(lp657
S'Where'
p658
aS'was'
p659
aS'the'
p660
aS'apple'
p661
aS'before'
p662
aS'the'
p663
aS'office'
p664
asI84
(lp665
S'Where'
p666
aS'was'
p667
aS'the'
p668
aS'apple'
p669
aS'before'
p670
aS'the'
p671
aS'office'
p672
asI85
(lp673
S'Where'
p674
aS'was'
p675
aS'the'
p676
aS'apple'
p677
aS'before'
p678
aS'the'
p679
aS'bedroom'
p680
asI86
(lp681
S'Where'
p682
aS'was'
p683
aS'the'
p684
aS'apple'
p685
aS'before'
p686
aS'the'
p687
aS'office'
p688
asI87
(lp689
S'Where'
p690
aS'was'
p691
aS'the'
p692
aS'football'
p693
aS'before'
p694
aS'the'
p695
aS'kitchen'
p696
asI88
(lp697
S'Where'
p698
aS'was'
p699
aS'the'
p700
aS'football'
p701
aS'before'
p702
aS'the'
p703
aS'kitchen'
p704
asI89
(lp705
S'Where'
p706
aS'was'
p707
aS'the'
p708
aS'football'
p709
aS'before'
p710
aS'the'
p711
aS'kitchen'
p712
asI90
(lp713
S'Where'
p714
aS'was'
p715
aS'the'
p716
aS'apple'
p717
aS'before'
p718
aS'the'
p719
aS'office'
p720
asI91
(lp721
S'Where'
p722
aS'was'
p723
aS'the'
p724
aS'apple'
p725
aS'before'
p726
aS'the'
p727
aS'office'
p728
asI92
(lp729
S'Where'
p730
aS'was'
p731
aS'the'
p732
aS'apple'
p733
aS'before'
p734
aS'the'
p735
aS'garden'
p736
asI93
(lp737
S'Where'
p738
aS'was'
p739
aS'the'
p740
aS'apple'
p741
aS'before'
p742
aS'the'
p743
aS'bathroom'
p744
asI94
(lp745
S'Where'
p746
aS'was'
p747
aS'the'
p748
aS'apple'
p749
aS'before'
p750
aS'the'
p751
aS'garden'
p752
asI95
(lp753
S'Where'
p754
aS'was'
p755
aS'the'
p756
aS'apple'
p757
aS'before'
p758
aS'the'
p759
aS'office'
p760
asI96
(lp761
S'Where'
p762
aS'was'
p763
aS'the'
p764
aS'apple'
p765
aS'before'
p766
aS'the'
p767
aS'office'
p768
asI97
(lp769
S'Where'
p770
aS'was'
p771
aS'the'
p772
aS'apple'
p773
aS'before'
p774
aS'the'
p775
aS'kitchen'
p776
asI98
(lp777
S'Where'
p778
aS'was'
p779
aS'the'
p780
aS'apple'
p781
aS'before'
p782
aS'the'
p783
aS'kitchen'
p784
asI99
(lp785
S'Where'
p786
aS'was'
p787
aS'the'
p788
aS'milk'
p789
aS'before'
p790
aS'the'
p791
aS'bedroom'
p792
asI100
(lp793
S'Where'
p794
aS'was'
p795
aS'the'
p796
aS'milk'
p797
aS'before'
p798
aS'the'
p799
aS'office'
p800
asI101
(lp801
S'Where'
p802
aS'was'
p803
aS'the'
p804
aS'apple'
p805
aS'before'
p806
aS'the'
p807
aS'bedroom'
p808
asI102
(lp809
S'Where'
p810
aS'was'
p811
aS'the'
p812
aS'football'
p813
aS'before'
p814
aS'the'
p815
aS'bedroom'
p816
asI103
(lp817
S'Where'
p818
aS'was'
p819
aS'the'
p820
aS'milk'
p821
aS'before'
p822
aS'the'
p823
aS'hallway'
p824
asI104
(lp825
S'Where'
p826
aS'was'
p827
aS'the'
p828
aS'milk'
p829
aS'before'
p830
aS'the'
p831
aS'hallway'
p832
asI105
(lp833
S'Where'
p834
aS'was'
p835
aS'the'
p836
aS'milk'
p837
aS'before'
p838
aS'the'
p839
aS'kitchen'
p840
asI106
(lp841
S'Where'
p842
aS'was'
p843
aS'the'
p844
aS'milk'
p845
aS'before'
p846
aS'the'
p847
aS'bathroom'
p848
asI107
(lp849
S'Where'
p850
aS'was'
p851
aS'the'
p852
aS'milk'
p853
aS'before'
p854
aS'the'
p855
aS'kitchen'
p856
asI108
(lp857
S'Where'
p858
aS'was'
p859
aS'the'
p860
aS'milk'
p861
aS'before'
p862
aS'the'
p863
aS'hallway'
p864
asI109
(lp865
S'Where'
p866
aS'was'
p867
aS'the'
p868
aS'apple'
p869
aS'before'
p870
aS'the'
p871
aS'office'
p872
asI110
(lp873
S'Where'
p874
aS'was'
p875
aS'the'
p876
aS'milk'
p877
aS'before'
p878
aS'the'
p879
aS'hallway'
p880
asI111
(lp881
S'Where'
p882
aS'was'
p883
aS'the'
p884
aS'apple'
p885
aS'before'
p886
aS'the'
p887
aS'kitchen'
p888
asI112
(lp889
S'Where'
p890
aS'was'
p891
aS'the'
p892
aS'apple'
p893
aS'before'
p894
aS'the'
p895
aS'kitchen'
p896
asI113
(lp897
S'Where'
p898
aS'was'
p899
aS'the'
p900
aS'apple'
p901
aS'before'
p902
aS'the'
p903
aS'bedroom'
p904
asI114
(lp905
S'Where'
p906
aS'was'
p907
aS'the'
p908
aS'apple'
p909
aS'before'
p910
aS'the'
p911
aS'office'
p912
asI115
(lp913
S'Where'
p914
aS'was'
p915
aS'the'
p916
aS'football'
p917
aS'before'
p918
aS'the'
p919
aS'office'
p920
asI116
(lp921
S'Where'
p922
aS'was'
p923
aS'the'
p924
aS'football'
p925
aS'before'
p926
aS'the'
p927
aS'garden'
p928
asI117
(lp929
S'Where'
p930
aS'was'
p931
aS'the'
p932
aS'milk'
p933
aS'before'
p934
aS'the'
p935
aS'office'
p936
asI118
(lp937
S'Where'
p938
aS'was'
p939
aS'the'
p940
aS'apple'
p941
aS'before'
p942
aS'the'
p943
aS'office'
p944
asI119
(lp945
S'Where'
p946
aS'was'
p947
aS'the'
p948
aS'football'
p949
aS'before'
p950
aS'the'
p951
aS'garden'
p952
asI120
(lp953
S'Where'
p954
aS'was'
p955
aS'the'
p956
aS'football'
p957
aS'before'
p958
aS'the'
p959
aS'garden'
p960
asI121
(lp961
S'Where'
p962
aS'was'
p963
aS'the'
p964
aS'milk'
p965
aS'before'
p966
aS'the'
p967
aS'office'
p968
asI122
(lp969
S'Where'
p970
aS'was'
p971
aS'the'
p972
aS'milk'
p973
aS'before'
p974
aS'the'
p975
aS'office'
p976
asI123
(lp977
S'Where'
p978
aS'was'
p979
aS'the'
p980
aS'milk'
p981
aS'before'
p982
aS'the'
p983
aS'office'
p984
asI124
(lp985
S'Where'
p986
aS'was'
p987
aS'the'
p988
aS'milk'
p989
aS'before'
p990
aS'the'
p991
aS'office'
p992
asI125
(lp993
S'Where'
p994
aS'was'
p995
aS'the'
p996
aS'apple'
p997
aS'before'
p998
aS'the'
p999
aS'bathroom'
p1000
asI126
(lp1001
S'Where'
p1002
aS'was'
p1003
aS'the'
p1004
aS'milk'
p1005
aS'before'
p1006
aS'the'
p1007
aS'hallway'
p1008
asI127
(lp1009
S'Where'
p1010
aS'was'
p1011
aS'the'
p1012
aS'milk'
p1013
aS'before'
p1014
aS'the'
p1015
aS'hallway'
p1016
asI128
(lp1017
S'Where'
p1018
aS'was'
p1019
aS'the'
p1020
aS'milk'
p1021
aS'before'
p1022
aS'the'
p1023
aS'hallway'
p1024
asI129
(lp1025
S'Where'
p1026
aS'was'
p1027
aS'the'
p1028
aS'apple'
p1029
aS'before'
p1030
aS'the'
p1031
aS'garden'
p1032
asI130
(lp1033
S'Where'
p1034
aS'was'
p1035
aS'the'
p1036
aS'apple'
p1037
aS'before'
p1038
aS'the'
p1039
aS'garden'
p1040
asI131
(lp1041
S'Where'
p1042
aS'was'
p1043
aS'the'
p1044
aS'milk'
p1045
aS'before'
p1046
aS'the'
p1047
aS'bathroom'
p1048
asI132
(lp1049
S'Where'
p1050
aS'was'
p1051
aS'the'
p1052
aS'milk'
p1053
aS'before'
p1054
aS'the'
p1055
aS'bathroom'
p1056
asI133
(lp1057
S'Where'
p1058
aS'was'
p1059
aS'the'
p1060
aS'apple'
p1061
aS'before'
p1062
aS'the'
p1063
aS'bedroom'
p1064
asI134
(lp1065
S'Where'
p1066
aS'was'
p1067
aS'the'
p1068
aS'milk'
p1069
aS'before'
p1070
aS'the'
p1071
aS'office'
p1072
asI135
(lp1073
S'Where'
p1074
aS'was'
p1075
aS'the'
p1076
aS'milk'
p1077
aS'before'
p1078
aS'the'
p1079
aS'bathroom'
p1080
asI136
(lp1081
S'Where'
p1082
aS'was'
p1083
aS'the'
p1084
aS'football'
p1085
aS'before'
p1086
aS'the'
p1087
aS'hallway'
p1088
asI137
(lp1089
S'Where'
p1090
aS'was'
p1091
aS'the'
p1092
aS'football'
p1093
aS'before'
p1094
aS'the'
p1095
aS'bedroom'
p1096
asI138
(lp1097
S'Where'
p1098
aS'was'
p1099
aS'the'
p1100
aS'milk'
p1101
aS'before'
p1102
aS'the'
p1103
aS'kitchen'
p1104
asI139
(lp1105
S'Where'
p1106
aS'was'
p1107
aS'the'
p1108
aS'apple'
p1109
aS'before'
p1110
aS'the'
p1111
aS'kitchen'
p1112
asI140
(lp1113
S'Where'
p1114
aS'was'
p1115
aS'the'
p1116
aS'apple'
p1117
aS'before'
p1118
aS'the'
p1119
aS'kitchen'
p1120
asI141
(lp1121
S'Where'
p1122
aS'was'
p1123
aS'the'
p1124
aS'milk'
p1125
aS'before'
p1126
aS'the'
p1127
aS'office'
p1128
asI142
(lp1129
S'Where'
p1130
aS'was'
p1131
aS'the'
p1132
aS'milk'
p1133
aS'before'
p1134
aS'the'
p1135
aS'office'
p1136
asI143
(lp1137
S'Where'
p1138
aS'was'
p1139
aS'the'
p1140
aS'milk'
p1141
aS'before'
p1142
aS'the'
p1143
aS'office'
p1144
asI144
(lp1145
S'Where'
p1146
aS'was'
p1147
aS'the'
p1148
aS'football'
p1149
aS'before'
p1150
aS'the'
p1151
aS'bedroom'
p1152
asI145
(lp1153
S'Where'
p1154
aS'was'
p1155
aS'the'
p1156
aS'football'
p1157
aS'before'
p1158
aS'the'
p1159
aS'bedroom'
p1160
asI146
(lp1161
S'Where'
p1162
aS'was'
p1163
aS'the'
p1164
aS'milk'
p1165
aS'before'
p1166
aS'the'
p1167
aS'bedroom'
p1168
asI147
(lp1169
S'Where'
p1170
aS'was'
p1171
aS'the'
p1172
aS'apple'
p1173
aS'before'
p1174
aS'the'
p1175
aS'office'
p1176
asI148
(lp1177
S'Where'
p1178
aS'was'
p1179
aS'the'
p1180
aS'apple'
p1181
aS'before'
p1182
aS'the'
p1183
aS'office'
p1184
asI149
(lp1185
S'Where'
p1186
aS'was'
p1187
aS'the'
p1188
aS'milk'
p1189
aS'before'
p1190
aS'the'
p1191
aS'kitchen'
p1192
asI150
(lp1193
S'Where'
p1194
aS'was'
p1195
aS'the'
p1196
aS'milk'
p1197
aS'before'
p1198
aS'the'
p1199
aS'kitchen'
p1200
asI151
(lp1201
S'Where'
p1202
aS'was'
p1203
aS'the'
p1204
aS'milk'
p1205
aS'before'
p1206
aS'the'
p1207
aS'garden'
p1208
asI152
(lp1209
S'Where'
p1210
aS'was'
p1211
aS'the'
p1212
aS'football'
p1213
aS'before'
p1214
aS'the'
p1215
aS'garden'
p1216
asI153
(lp1217
S'Where'
p1218
aS'was'
p1219
aS'the'
p1220
aS'football'
p1221
aS'before'
p1222
aS'the'
p1223
aS'garden'
p1224
asI154
(lp1225
S'Where'
p1226
aS'was'
p1227
aS'the'
p1228
aS'milk'
p1229
aS'before'
p1230
aS'the'
p1231
aS'garden'
p1232
asI155
(lp1233
S'Where'
p1234
aS'was'
p1235
aS'the'
p1236
aS'milk'
p1237
aS'before'
p1238
aS'the'
p1239
aS'garden'
p1240
asI156
(lp1241
S'Where'
p1242
aS'was'
p1243
aS'the'
p1244
aS'milk'
p1245
aS'before'
p1246
aS'the'
p1247
aS'bedroom'
p1248
asI157
(lp1249
S'Where'
p1250
aS'was'
p1251
aS'the'
p1252
aS'milk'
p1253
aS'before'
p1254
aS'the'
p1255
aS'hallway'
p1256
asI158
(lp1257
S'Where'
p1258
aS'was'
p1259
aS'the'
p1260
aS'football'
p1261
aS'before'
p1262
aS'the'
p1263
aS'hallway'
p1264
asI159
(lp1265
S'Where'
p1266
aS'was'
p1267
aS'the'
p1268
aS'football'
p1269
aS'before'
p1270
aS'the'
p1271
aS'office'
p1272
asI160
(lp1273
S'Where'
p1274
aS'was'
p1275
aS'the'
p1276
aS'milk'
p1277
aS'before'
p1278
aS'the'
p1279
aS'bathroom'
p1280
asI161
(lp1281
S'Where'
p1282
aS'was'
p1283
aS'the'
p1284
aS'apple'
p1285
aS'before'
p1286
aS'the'
p1287
aS'hallway'
p1288
asI162
(lp1289
S'Where'
p1290
aS'was'
p1291
aS'the'
p1292
aS'apple'
p1293
aS'before'
p1294
aS'the'
p1295
aS'bathroom'
p1296
asI163
(lp1297
S'Where'
p1298
aS'was'
p1299
aS'the'
p1300
aS'milk'
p1301
aS'before'
p1302
aS'the'
p1303
aS'office'
p1304
asI164
(lp1305
S'Where'
p1306
aS'was'
p1307
aS'the'
p1308
aS'milk'
p1309
aS'before'
p1310
aS'the'
p1311
aS'bathroom'
p1312
asI165
(lp1313
S'Where'
p1314
aS'was'
p1315
aS'the'
p1316
aS'milk'
p1317
aS'before'
p1318
aS'the'
p1319
aS'office'
p1320
asI166
(lp1321
S'Where'
p1322
aS'was'
p1323
aS'the'
p1324
aS'football'
p1325
aS'before'
p1326
aS'the'
p1327
aS'hallway'
p1328
asI167
(lp1329
S'Where'
p1330
aS'was'
p1331
aS'the'
p1332
aS'football'
p1333
aS'before'
p1334
aS'the'
p1335
aS'hallway'
p1336
asI168
(lp1337
S'Where'
p1338
aS'was'
p1339
aS'the'
p1340
aS'milk'
p1341
aS'before'
p1342
aS'the'
p1343
aS'kitchen'
p1344
asI169
(lp1345
S'Where'
p1346
aS'was'
p1347
aS'the'
p1348
aS'milk'
p1349
aS'before'
p1350
aS'the'
p1351
aS'office'
p1352
asI170
(lp1353
S'Where'
p1354
aS'was'
p1355
aS'the'
p1356
aS'milk'
p1357
aS'before'
p1358
aS'the'
p1359
aS'kitchen'
p1360
asI171
(lp1361
S'Where'
p1362
aS'was'
p1363
aS'the'
p1364
aS'football'
p1365
aS'before'
p1366
aS'the'
p1367
aS'garden'
p1368
asI172
(lp1369
S'Where'
p1370
aS'was'
p1371
aS'the'
p1372
aS'football'
p1373
aS'before'
p1374
aS'the'
p1375
aS'garden'
p1376
asI173
(lp1377
S'Where'
p1378
aS'was'
p1379
aS'the'
p1380
aS'football'
p1381
aS'before'
p1382
aS'the'
p1383
aS'garden'
p1384
asI174
(lp1385
S'Where'
p1386
aS'was'
p1387
aS'the'
p1388
aS'milk'
p1389
aS'before'
p1390
aS'the'
p1391
aS'kitchen'
p1392
asI175
(lp1393
S'Where'
p1394
aS'was'
p1395
aS'the'
p1396
aS'football'
p1397
aS'before'
p1398
aS'the'
p1399
aS'hallway'
p1400
asI176
(lp1401
S'Where'
p1402
aS'was'
p1403
aS'the'
p1404
aS'apple'
p1405
aS'before'
p1406
aS'the'
p1407
aS'bathroom'
p1408
asI177
(lp1409
S'Where'
p1410
aS'was'
p1411
aS'the'
p1412
aS'milk'
p1413
aS'before'
p1414
aS'the'
p1415
aS'bathroom'
p1416
asI178
(lp1417
S'Where'
p1418
aS'was'
p1419
aS'the'
p1420
aS'milk'
p1421
aS'before'
p1422
aS'the'
p1423
aS'bathroom'
p1424
asI179
(lp1425
S'Where'
p1426
aS'was'
p1427
aS'the'
p1428
aS'apple'
p1429
aS'before'
p1430
aS'the'
p1431
aS'office'
p1432
asI180
(lp1433
S'Where'
p1434
aS'was'
p1435
aS'the'
p1436
aS'apple'
p1437
aS'before'
p1438
aS'the'
p1439
aS'office'
p1440
asI181
(lp1441
S'Where'
p1442
aS'was'
p1443
aS'the'
p1444
aS'football'
p1445
aS'before'
p1446
aS'the'
p1447
aS'bedroom'
p1448
asI182
(lp1449
S'Where'
p1450
aS'was'
p1451
aS'the'
p1452
aS'apple'
p1453
aS'before'
p1454
aS'the'
p1455
aS'office'
p1456
asI183
(lp1457
S'Where'
p1458
aS'was'
p1459
aS'the'
p1460
aS'apple'
p1461
aS'before'
p1462
aS'the'
p1463
aS'office'
p1464
asI184
(lp1465
S'Where'
p1466
aS'was'
p1467
aS'the'
p1468
aS'football'
p1469
aS'before'
p1470
aS'the'
p1471
aS'bedroom'
p1472
asI185
(lp1473
S'Where'
p1474
aS'was'
p1475
aS'the'
p1476
aS'football'
p1477
aS'before'
p1478
aS'the'
p1479
aS'bedroom'
p1480
asI186
(lp1481
S'Where'
p1482
aS'was'
p1483
aS'the'
p1484
aS'football'
p1485
aS'before'
p1486
aS'the'
p1487
aS'garden'
p1488
asI187
(lp1489
S'Where'
p1490
aS'was'
p1491
aS'the'
p1492
aS'football'
p1493
aS'before'
p1494
aS'the'
p1495
aS'garden'
p1496
asI188
(lp1497
S'Where'
p1498
aS'was'
p1499
aS'the'
p1500
aS'football'
p1501
aS'before'
p1502
aS'the'
p1503
aS'garden'
p1504
asI189
(lp1505
S'Where'
p1506
aS'was'
p1507
aS'the'
p1508
aS'milk'
p1509
aS'before'
p1510
aS'the'
p1511
aS'kitchen'
p1512
asI190
(lp1513
S'Where'
p1514
aS'was'
p1515
aS'the'
p1516
aS'milk'
p1517
aS'before'
p1518
aS'the'
p1519
aS'kitchen'
p1520
asI191
(lp1521
S'Where'
p1522
aS'was'
p1523
aS'the'
p1524
aS'milk'
p1525
aS'before'
p1526
aS'the'
p1527
aS'bedroom'
p1528
asI192
(lp1529
S'Where'
p1530
aS'was'
p1531
aS'the'
p1532
aS'apple'
p1533
aS'before'
p1534
aS'the'
p1535
aS'hallway'
p1536
asI193
(lp1537
S'Where'
p1538
aS'was'
p1539
aS'the'
p1540
aS'apple'
p1541
aS'before'
p1542
aS'the'
p1543
aS'hallway'
p1544
asI194
(lp1545
S'Where'
p1546
aS'was'
p1547
aS'the'
p1548
aS'apple'
p1549
aS'before'
p1550
aS'the'
p1551
aS'hallway'
p1552
asI195
(lp1553
S'Where'
p1554
aS'was'
p1555
aS'the'
p1556
aS'apple'
p1557
aS'before'
p1558
aS'the'
p1559
aS'kitchen'
p1560
asI196
(lp1561
S'Where'
p1562
aS'was'
p1563
aS'the'
p1564
aS'apple'
p1565
aS'before'
p1566
aS'the'
p1567
aS'bathroom'
p1568
asI197
(lp1569
S'Where'
p1570
aS'was'
p1571
aS'the'
p1572
aS'apple'
p1573
aS'before'
p1574
aS'the'
p1575
aS'garden'
p1576
asI198
(lp1577
S'Where'
p1578
aS'was'
p1579
aS'the'
p1580
aS'milk'
p1581
aS'before'
p1582
aS'the'
p1583
aS'office'
p1584
asI199
(lp1585
S'Where'
p1586
aS'was'
p1587
aS'the'
p1588
aS'football'
p1589
aS'before'
p1590
aS'the'
p1591
aS'office'
p1592
asI200
(lp1593
S'Where'
p1594
aS'was'
p1595
aS'the'
p1596
aS'apple'
p1597
aS'before'
p1598
aS'the'
p1599
aS'kitchen'
p1600
asI201
(lp1601
S'Where'
p1602
aS'was'
p1603
aS'the'
p1604
aS'football'
p1605
aS'before'
p1606
aS'the'
p1607
aS'kitchen'
p1608
asI202
(lp1609
S'Where'
p1610
aS'was'
p1611
aS'the'
p1612
aS'football'
p1613
aS'before'
p1614
aS'the'
p1615
aS'kitchen'
p1616
asI203
(lp1617
S'Where'
p1618
aS'was'
p1619
aS'the'
p1620
aS'football'
p1621
aS'before'
p1622
aS'the'
p1623
aS'kitchen'
p1624
asI204
(lp1625
S'Where'
p1626
aS'was'
p1627
aS'the'
p1628
aS'football'
p1629
aS'before'
p1630
aS'the'
p1631
aS'kitchen'
p1632
asI205
(lp1633
S'Where'
p1634
aS'was'
p1635
aS'the'
p1636
aS'milk'
p1637
aS'before'
p1638
aS'the'
p1639
aS'bathroom'
p1640
asI206
(lp1641
S'Where'
p1642
aS'was'
p1643
aS'the'
p1644
aS'football'
p1645
aS'before'
p1646
aS'the'
p1647
aS'office'
p1648
asI207
(lp1649
S'Where'
p1650
aS'was'
p1651
aS'the'
p1652
aS'milk'
p1653
aS'before'
p1654
aS'the'
p1655
aS'bathroom'
p1656
asI208
(lp1657
S'Where'
p1658
aS'was'
p1659
aS'the'
p1660
aS'football'
p1661
aS'before'
p1662
aS'the'
p1663
aS'bathroom'
p1664
asI209
(lp1665
S'Where'
p1666
aS'was'
p1667
aS'the'
p1668
aS'football'
p1669
aS'before'
p1670
aS'the'
p1671
aS'bathroom'
p1672
asI210
(lp1673
S'Where'
p1674
aS'was'
p1675
aS'the'
p1676
aS'milk'
p1677
aS'before'
p1678
aS'the'
p1679
aS'garden'
p1680
asI211
(lp1681
S'Where'
p1682
aS'was'
p1683
aS'the'
p1684
aS'milk'
p1685
aS'before'
p1686
aS'the'
p1687
aS'office'
p1688
asI212
(lp1689
S'Where'
p1690
aS'was'
p1691
aS'the'
p1692
aS'milk'
p1693
aS'before'
p1694
aS'the'
p1695
aS'office'
p1696
asI213
(lp1697
S'Where'
p1698
aS'was'
p1699
aS'the'
p1700
aS'milk'
p1701
aS'before'
p1702
aS'the'
p1703
aS'bedroom'
p1704
asI214
(lp1705
S'Where'
p1706
aS'was'
p1707
aS'the'
p1708
aS'milk'
p1709
aS'before'
p1710
aS'the'
p1711
aS'bathroom'
p1712
asI215
(lp1713
S'Where'
p1714
aS'was'
p1715
aS'the'
p1716
aS'milk'
p1717
aS'before'
p1718
aS'the'
p1719
aS'hallway'
p1720
asI216
(lp1721
S'Where'
p1722
aS'was'
p1723
aS'the'
p1724
aS'milk'
p1725
aS'before'
p1726
aS'the'
p1727
aS'kitchen'
p1728
asI217
(lp1729
S'Where'
p1730
aS'was'
p1731
aS'the'
p1732
aS'milk'
p1733
aS'before'
p1734
aS'the'
p1735
aS'bedroom'
p1736
asI218
(lp1737
S'Where'
p1738
aS'was'
p1739
aS'the'
p1740
aS'milk'
p1741
aS'before'
p1742
aS'the'
p1743
aS'bedroom'
p1744
asI219
(lp1745
S'Where'
p1746
aS'was'
p1747
aS'the'
p1748
aS'apple'
p1749
aS'before'
p1750
aS'the'
p1751
aS'hallway'
p1752
asI220
(lp1753
S'Where'
p1754
aS'was'
p1755
aS'the'
p1756
aS'apple'
p1757
aS'before'
p1758
aS'the'
p1759
aS'hallway'
p1760
asI221
(lp1761
S'Where'
p1762
aS'was'
p1763
aS'the'
p1764
aS'milk'
p1765
aS'before'
p1766
aS'the'
p1767
aS'bathroom'
p1768
asI222
(lp1769
S'Where'
p1770
aS'was'
p1771
aS'the'
p1772
aS'milk'
p1773
aS'before'
p1774
aS'the'
p1775
aS'bathroom'
p1776
asI223
(lp1777
S'Where'
p1778
aS'was'
p1779
aS'the'
p1780
aS'milk'
p1781
aS'before'
p1782
aS'the'
p1783
aS'office'
p1784
asI224
(lp1785
S'Where'
p1786
aS'was'
p1787
aS'the'
p1788
aS'apple'
p1789
aS'before'
p1790
aS'the'
p1791
aS'office'
p1792
asI225
(lp1793
S'Where'
p1794
aS'was'
p1795
aS'the'
p1796
aS'apple'
p1797
aS'before'
p1798
aS'the'
p1799
aS'office'
p1800
asI226
(lp1801
S'Where'
p1802
aS'was'
p1803
aS'the'
p1804
aS'football'
p1805
aS'before'
p1806
aS'the'
p1807
aS'garden'
p1808
asI227
(lp1809
S'Where'
p1810
aS'was'
p1811
aS'the'
p1812
aS'football'
p1813
aS'before'
p1814
aS'the'
p1815
aS'garden'
p1816
asI228
(lp1817
S'Where'
p1818
aS'was'
p1819
aS'the'
p1820
aS'football'
p1821
aS'before'
p1822
aS'the'
p1823
aS'garden'
p1824
asI229
(lp1825
S'Where'
p1826
aS'was'
p1827
aS'the'
p1828
aS'football'
p1829
aS'before'
p1830
aS'the'
p1831
aS'bathroom'
p1832
asI230
(lp1833
S'Where'
p1834
aS'was'
p1835
aS'the'
p1836
aS'football'
p1837
aS'before'
p1838
aS'the'
p1839
aS'bathroom'
p1840
asI231
(lp1841
S'Where'
p1842
aS'was'
p1843
aS'the'
p1844
aS'milk'
p1845
aS'before'
p1846
aS'the'
p1847
aS'garden'
p1848
asI232
(lp1849
S'Where'
p1850
aS'was'
p1851
aS'the'
p1852
aS'milk'
p1853
aS'before'
p1854
aS'the'
p1855
aS'garden'
p1856
asI233
(lp1857
S'Where'
p1858
aS'was'
p1859
aS'the'
p1860
aS'milk'
p1861
aS'before'
p1862
aS'the'
p1863
aS'garden'
p1864
asI234
(lp1865
S'Where'
p1866
aS'was'
p1867
aS'the'
p1868
aS'football'
p1869
aS'before'
p1870
aS'the'
p1871
aS'garden'
p1872
asI235
(lp1873
S'Where'
p1874
aS'was'
p1875
aS'the'
p1876
aS'milk'
p1877
aS'before'
p1878
aS'the'
p1879
aS'bathroom'
p1880
asI236
(lp1881
S'Where'
p1882
aS'was'
p1883
aS'the'
p1884
aS'apple'
p1885
aS'before'
p1886
aS'the'
p1887
aS'bathroom'
p1888
asI237
(lp1889
S'Where'
p1890
aS'was'
p1891
aS'the'
p1892
aS'football'
p1893
aS'before'
p1894
aS'the'
p1895
aS'hallway'
p1896
asI238
(lp1897
S'Where'
p1898
aS'was'
p1899
aS'the'
p1900
aS'football'
p1901
aS'before'
p1902
aS'the'
p1903
aS'garden'
p1904
asI239
(lp1905
S'Where'
p1906
aS'was'
p1907
aS'the'
p1908
aS'football'
p1909
aS'before'
p1910
aS'the'
p1911
aS'garden'
p1912
asI240
(lp1913
S'Where'
p1914
aS'was'
p1915
aS'the'
p1916
aS'football'
p1917
aS'before'
p1918
aS'the'
p1919
aS'bathroom'
p1920
asI241
(lp1921
S'Where'
p1922
aS'was'
p1923
aS'the'
p1924
aS'apple'
p1925
aS'before'
p1926
aS'the'
p1927
aS'hallway'
p1928
asI242
(lp1929
S'Where'
p1930
aS'was'
p1931
aS'the'
p1932
aS'apple'
p1933
aS'before'
p1934
aS'the'
p1935
aS'hallway'
p1936
asI243
(lp1937
S'Where'
p1938
aS'was'
p1939
aS'the'
p1940
aS'apple'
p1941
aS'before'
p1942
aS'the'
p1943
aS'garden'
p1944
asI244
(lp1945
S'Where'
p1946
aS'was'
p1947
aS'the'
p1948
aS'apple'
p1949
aS'before'
p1950
aS'the'
p1951
aS'hallway'
p1952
asI245
(lp1953
S'Where'
p1954
aS'was'
p1955
aS'the'
p1956
aS'milk'
p1957
aS'before'
p1958
aS'the'
p1959
aS'bedroom'
p1960
asI246
(lp1961
S'Where'
p1962
aS'was'
p1963
aS'the'
p1964
aS'apple'
p1965
aS'before'
p1966
aS'the'
p1967
aS'kitchen'
p1968
asI247
(lp1969
S'Where'
p1970
aS'was'
p1971
aS'the'
p1972
aS'apple'
p1973
aS'before'
p1974
aS'the'
p1975
aS'office'
p1976
asI248
(lp1977
S'Where'
p1978
aS'was'
p1979
aS'the'
p1980
aS'football'
p1981
aS'before'
p1982
aS'the'
p1983
aS'kitchen'
p1984
asI249
(lp1985
S'Where'
p1986
aS'was'
p1987
aS'the'
p1988
aS'football'
p1989
aS'before'
p1990
aS'the'
p1991
aS'kitchen'
p1992
asI250
(lp1993
S'Where'
p1994
aS'was'
p1995
aS'the'
p1996
aS'football'
p1997
aS'before'
p1998
aS'the'
p1999
aS'kitchen'
p2000
asI251
(lp2001
S'Where'
p2002
aS'was'
p2003
aS'the'
p2004
aS'apple'
p2005
aS'before'
p2006
aS'the'
p2007
aS'bathroom'
p2008
asI252
(lp2009
S'Where'
p2010
aS'was'
p2011
aS'the'
p2012
aS'football'
p2013
aS'before'
p2014
aS'the'
p2015
aS'bathroom'
p2016
asI253
(lp2017
S'Where'
p2018
aS'was'
p2019
aS'the'
p2020
aS'football'
p2021
aS'before'
p2022
aS'the'
p2023
aS'bathroom'
p2024
asI254
(lp2025
S'Where'
p2026
aS'was'
p2027
aS'the'
p2028
aS'milk'
p2029
aS'before'
p2030
aS'the'
p2031
aS'kitchen'
p2032
asI255
(lp2033
S'Where'
p2034
aS'was'
p2035
aS'the'
p2036
aS'milk'
p2037
aS'before'
p2038
aS'the'
p2039
aS'kitchen'
p2040
asI256
(lp2041
S'Where'
p2042
aS'was'
p2043
aS'the'
p2044
aS'football'
p2045
aS'before'
p2046
aS'the'
p2047
aS'bathroom'
p2048
asI257
(lp2049
S'Where'
p2050
aS'was'
p2051
aS'the'
p2052
aS'football'
p2053
aS'before'
p2054
aS'the'
p2055
aS'bathroom'
p2056
asI258
(lp2057
S'Where'
p2058
aS'was'
p2059
aS'the'
p2060
aS'football'
p2061
aS'before'
p2062
aS'the'
p2063
aS'bedroom'
p2064
asI259
(lp2065
S'Where'
p2066
aS'was'
p2067
aS'the'
p2068
aS'football'
p2069
aS'before'
p2070
aS'the'
p2071
aS'bedroom'
p2072
asI260
(lp2073
S'Where'
p2074
aS'was'
p2075
aS'the'
p2076
aS'football'
p2077
aS'before'
p2078
aS'the'
p2079
aS'office'
p2080
asI261
(lp2081
S'Where'
p2082
aS'was'
p2083
aS'the'
p2084
aS'apple'
p2085
aS'before'
p2086
aS'the'
p2087
aS'hallway'
p2088
asI262
(lp2089
S'Where'
p2090
aS'was'
p2091
aS'the'
p2092
aS'apple'
p2093
aS'before'
p2094
aS'the'
p2095
aS'hallway'
p2096
asI263
(lp2097
S'Where'
p2098
aS'was'
p2099
aS'the'
p2100
aS'milk'
p2101
aS'before'
p2102
aS'the'
p2103
aS'kitchen'
p2104
asI264
(lp2105
S'Where'
p2106
aS'was'
p2107
aS'the'
p2108
aS'milk'
p2109
aS'before'
p2110
aS'the'
p2111
aS'kitchen'
p2112
asI265
(lp2113
S'Where'
p2114
aS'was'
p2115
aS'the'
p2116
aS'football'
p2117
aS'before'
p2118
aS'the'
p2119
aS'kitchen'
p2120
asI266
(lp2121
S'Where'
p2122
aS'was'
p2123
aS'the'
p2124
aS'football'
p2125
aS'before'
p2126
aS'the'
p2127
aS'garden'
p2128
asI267
(lp2129
S'Where'
p2130
aS'was'
p2131
aS'the'
p2132
aS'football'
p2133
aS'before'
p2134
aS'the'
p2135
aS'garden'
p2136
asI268
(lp2137
S'Where'
p2138
aS'was'
p2139
aS'the'
p2140
aS'apple'
p2141
aS'before'
p2142
aS'the'
p2143
aS'hallway'
p2144
asI269
(lp2145
S'Where'
p2146
aS'was'
p2147
aS'the'
p2148
aS'apple'
p2149
aS'before'
p2150
aS'the'
p2151
aS'hallway'
p2152
asI270
(lp2153
S'Where'
p2154
aS'was'
p2155
aS'the'
p2156
aS'apple'
p2157
aS'before'
p2158
aS'the'
p2159
aS'hallway'
p2160
asI271
(lp2161
S'Where'
p2162
aS'was'
p2163
aS'the'
p2164
aS'apple'
p2165
aS'before'
p2166
aS'the'
p2167
aS'hallway'
p2168
asI272
(lp2169
S'Where'
p2170
aS'was'
p2171
aS'the'
p2172
aS'football'
p2173
aS'before'
p2174
aS'the'
p2175
aS'bedroom'
p2176
asI273
(lp2177
S'Where'
p2178
aS'was'
p2179
aS'the'
p2180
aS'apple'
p2181
aS'before'
p2182
aS'the'
p2183
aS'office'
p2184
asI274
(lp2185
S'Where'
p2186
aS'was'
p2187
aS'the'
p2188
aS'football'
p2189
aS'before'
p2190
aS'the'
p2191
aS'bedroom'
p2192
asI275
(lp2193
S'Where'
p2194
aS'was'
p2195
aS'the'
p2196
aS'football'
p2197
aS'before'
p2198
aS'the'
p2199
aS'hallway'
p2200
asI276
(lp2201
S'Where'
p2202
aS'was'
p2203
aS'the'
p2204
aS'apple'
p2205
aS'before'
p2206
aS'the'
p2207
aS'garden'
p2208
asI277
(lp2209
S'Where'
p2210
aS'was'
p2211
aS'the'
p2212
aS'apple'
p2213
aS'before'
p2214
aS'the'
p2215
aS'garden'
p2216
asI278
(lp2217
S'Where'
p2218
aS'was'
p2219
aS'the'
p2220
aS'milk'
p2221
aS'before'
p2222
aS'the'
p2223
aS'bedroom'
p2224
asI279
(lp2225
S'Where'
p2226
aS'was'
p2227
aS'the'
p2228
aS'milk'
p2229
aS'before'
p2230
aS'the'
p2231
aS'bedroom'
p2232
asI280
(lp2233
S'Where'
p2234
aS'was'
p2235
aS'the'
p2236
aS'football'
p2237
aS'before'
p2238
aS'the'
p2239
aS'bathroom'
p2240
asI281
(lp2241
S'Where'
p2242
aS'was'
p2243
aS'the'
p2244
aS'milk'
p2245
aS'before'
p2246
aS'the'
p2247
aS'bathroom'
p2248
asI282
(lp2249
S'Where'
p2250
aS'was'
p2251
aS'the'
p2252
aS'milk'
p2253
aS'before'
p2254
aS'the'
p2255
aS'bathroom'
p2256
asI283
(lp2257
S'Where'
p2258
aS'was'
p2259
aS'the'
p2260
aS'milk'
p2261
aS'before'
p2262
aS'the'
p2263
aS'bathroom'
p2264
asI284
(lp2265
S'Where'
p2266
aS'was'
p2267
aS'the'
p2268
aS'milk'
p2269
aS'before'
p2270
aS'the'
p2271
aS'bedroom'
p2272
asI285
(lp2273
S'Where'
p2274
aS'was'
p2275
aS'the'
p2276
aS'milk'
p2277
aS'before'
p2278
aS'the'
p2279
aS'hallway'
p2280
asI286
(lp2281
S'Where'
p2282
aS'was'
p2283
aS'the'
p2284
aS'apple'
p2285
aS'before'
p2286
aS'the'
p2287
aS'hallway'
p2288
asI287
(lp2289
S'Where'
p2290
aS'was'
p2291
aS'the'
p2292
aS'apple'
p2293
aS'before'
p2294
aS'the'
p2295
aS'hallway'
p2296
asI288
(lp2297
S'Where'
p2298
aS'was'
p2299
aS'the'
p2300
aS'football'
p2301
aS'before'
p2302
aS'the'
p2303
aS'office'
p2304
asI289
(lp2305
S'Where'
p2306
aS'was'
p2307
aS'the'
p2308
aS'football'
p2309
aS'before'
p2310
aS'the'
p2311
aS'office'
p2312
asI290
(lp2313
S'Where'
p2314
aS'was'
p2315
aS'the'
p2316
aS'milk'
p2317
aS'before'
p2318
aS'the'
p2319
aS'office'
p2320
asI291
(lp2321
S'Where'
p2322
aS'was'
p2323
aS'the'
p2324
aS'milk'
p2325
aS'before'
p2326
aS'the'
p2327
aS'kitchen'
p2328
asI292
(lp2329
S'Where'
p2330
aS'was'
p2331
aS'the'
p2332
aS'milk'
p2333
aS'before'
p2334
aS'the'
p2335
aS'kitchen'
p2336
asI293
(lp2337
S'Where'
p2338
aS'was'
p2339
aS'the'
p2340
aS'apple'
p2341
aS'before'
p2342
aS'the'
p2343
aS'office'
p2344
asI294
(lp2345
S'Where'
p2346
aS'was'
p2347
aS'the'
p2348
aS'milk'
p2349
aS'before'
p2350
aS'the'
p2351
aS'hallway'
p2352
asI295
(lp2353
S'Where'
p2354
aS'was'
p2355
aS'the'
p2356
aS'milk'
p2357
aS'before'
p2358
aS'the'
p2359
aS'hallway'
p2360
asI296
(lp2361
S'Where'
p2362
aS'was'
p2363
aS'the'
p2364
aS'milk'
p2365
aS'before'
p2366
aS'the'
p2367
aS'bedroom'
p2368
asI297
(lp2369
S'Where'
p2370
aS'was'
p2371
aS'the'
p2372
aS'milk'
p2373
aS'before'
p2374
aS'the'
p2375
aS'bedroom'
p2376
asI298
(lp2377
S'Where'
p2378
aS'was'
p2379
aS'the'
p2380
aS'milk'
p2381
aS'before'
p2382
aS'the'
p2383
aS'bathroom'
p2384
asI299
(lp2385
S'Where'
p2386
aS'was'
p2387
aS'the'
p2388
aS'apple'
p2389
aS'before'
p2390
aS'the'
p2391
aS'garden'
p2392
asI300
(lp2393
S'Where'
p2394
aS'was'
p2395
aS'the'
p2396
aS'apple'
p2397
aS'before'
p2398
aS'the'
p2399
aS'garden'
p2400
asI301
(lp2401
S'Where'
p2402
aS'was'
p2403
aS'the'
p2404
aS'apple'
p2405
aS'before'
p2406
aS'the'
p2407
aS'bathroom'
p2408
asI302
(lp2409
S'Where'
p2410
aS'was'
p2411
aS'the'
p2412
aS'apple'
p2413
aS'before'
p2414
aS'the'
p2415
aS'bathroom'
p2416
asI303
(lp2417
S'Where'
p2418
aS'was'
p2419
aS'the'
p2420
aS'apple'
p2421
aS'before'
p2422
aS'the'
p2423
aS'bathroom'
p2424
asI304
(lp2425
S'Where'
p2426
aS'was'
p2427
aS'the'
p2428
aS'apple'
p2429
aS'before'
p2430
aS'the'
p2431
aS'hallway'
p2432
asI305
(lp2433
S'Where'
p2434
aS'was'
p2435
aS'the'
p2436
aS'football'
p2437
aS'before'
p2438
aS'the'
p2439
aS'office'
p2440
asI306
(lp2441
S'Where'
p2442
aS'was'
p2443
aS'the'
p2444
aS'apple'
p2445
aS'before'
p2446
aS'the'
p2447
aS'garden'
p2448
asI307
(lp2449
S'Where'
p2450
aS'was'
p2451
aS'the'
p2452
aS'milk'
p2453
aS'before'
p2454
aS'the'
p2455
aS'kitchen'
p2456
asI308
(lp2457
S'Where'
p2458
aS'was'
p2459
aS'the'
p2460
aS'apple'
p2461
aS'before'
p2462
aS'the'
p2463
aS'kitchen'
p2464
asI309
(lp2465
S'Where'
p2466
aS'was'
p2467
aS'the'
p2468
aS'apple'
p2469
aS'before'
p2470
aS'the'
p2471
aS'kitchen'
p2472
asI310
(lp2473
S'Where'
p2474
aS'was'
p2475
aS'the'
p2476
aS'apple'
p2477
aS'before'
p2478
aS'the'
p2479
aS'bathroom'
p2480
asI311
(lp2481
S'Where'
p2482
aS'was'
p2483
aS'the'
p2484
aS'apple'
p2485
aS'before'
p2486
aS'the'
p2487
aS'hallway'
p2488
asI312
(lp2489
S'Where'
p2490
aS'was'
p2491
aS'the'
p2492
aS'apple'
p2493
aS'before'
p2494
aS'the'
p2495
aS'hallway'
p2496
asI313
(lp2497
S'Where'
p2498
aS'was'
p2499
aS'the'
p2500
aS'milk'
p2501
aS'before'
p2502
aS'the'
p2503
aS'kitchen'
p2504
asI314
(lp2505
S'Where'
p2506
aS'was'
p2507
aS'the'
p2508
aS'apple'
p2509
aS'before'
p2510
aS'the'
p2511
aS'office'
p2512
asI315
(lp2513
S'Where'
p2514
aS'was'
p2515
aS'the'
p2516
aS'apple'
p2517
aS'before'
p2518
aS'the'
p2519
aS'bathroom'
p2520
asI316
(lp2521
S'Where'
p2522
aS'was'
p2523
aS'the'
p2524
aS'football'
p2525
aS'before'
p2526
aS'the'
p2527
aS'bedroom'
p2528
asI317
(lp2529
S'Where'
p2530
aS'was'
p2531
aS'the'
p2532
aS'football'
p2533
aS'before'
p2534
aS'the'
p2535
aS'bedroom'
p2536
asI318
(lp2537
S'Where'
p2538
aS'was'
p2539
aS'the'
p2540
aS'apple'
p2541
aS'before'
p2542
aS'the'
p2543
aS'garden'
p2544
asI319
(lp2545
S'Where'
p2546
aS'was'
p2547
aS'the'
p2548
aS'apple'
p2549
aS'before'
p2550
aS'the'
p2551
aS'garden'
p2552
asI320
(lp2553
S'Where'
p2554
aS'was'
p2555
aS'the'
p2556
aS'football'
p2557
aS'before'
p2558
aS'the'
p2559
aS'kitchen'
p2560
asI321
(lp2561
S'Where'
p2562
aS'was'
p2563
aS'the'
p2564
aS'milk'
p2565
aS'before'
p2566
aS'the'
p2567
aS'office'
p2568
asI322
(lp2569
S'Where'
p2570
aS'was'
p2571
aS'the'
p2572
aS'milk'
p2573
aS'before'
p2574
aS'the'
p2575
aS'office'
p2576
asI323
(lp2577
S'Where'
p2578
aS'was'
p2579
aS'the'
p2580
aS'football'
p2581
aS'before'
p2582
aS'the'
p2583
aS'garden'
p2584
asI324
(lp2585
S'Where'
p2586
aS'was'
p2587
aS'the'
p2588
aS'apple'
p2589
aS'before'
p2590
aS'the'
p2591
aS'bathroom'
p2592
asI325
(lp2593
S'Where'
p2594
aS'was'
p2595
aS'the'
p2596
aS'apple'
p2597
aS'before'
p2598
aS'the'
p2599
aS'bathroom'
p2600
asI326
(lp2601
S'Where'
p2602
aS'was'
p2603
aS'the'
p2604
aS'apple'
p2605
aS'before'
p2606
aS'the'
p2607
aS'garden'
p2608
asI327
(lp2609
S'Where'
p2610
aS'was'
p2611
aS'the'
p2612
aS'milk'
p2613
aS'before'
p2614
aS'the'
p2615
aS'bathroom'
p2616
asI328
(lp2617
S'Where'
p2618
aS'was'
p2619
aS'the'
p2620
aS'milk'
p2621
aS'before'
p2622
aS'the'
p2623
aS'office'
p2624
asI329
(lp2625
S'Where'
p2626
aS'was'
p2627
aS'the'
p2628
aS'apple'
p2629
aS'before'
p2630
aS'the'
p2631
aS'kitchen'
p2632
asI330
(lp2633
S'Where'
p2634
aS'was'
p2635
aS'the'
p2636
aS'apple'
p2637
aS'before'
p2638
aS'the'
p2639
aS'kitchen'
p2640
asI331
(lp2641
S'Where'
p2642
aS'was'
p2643
aS'the'
p2644
aS'apple'
p2645
aS'before'
p2646
aS'the'
p2647
aS'hallway'
p2648
asI332
(lp2649
S'Where'
p2650
aS'was'
p2651
aS'the'
p2652
aS'milk'
p2653
aS'before'
p2654
aS'the'
p2655
aS'hallway'
p2656
asI333
(lp2657
S'Where'
p2658
aS'was'
p2659
aS'the'
p2660
aS'milk'
p2661
aS'before'
p2662
aS'the'
p2663
aS'garden'
p2664
asI334
(lp2665
S'Where'
p2666
aS'was'
p2667
aS'the'
p2668
aS'apple'
p2669
aS'before'
p2670
aS'the'
p2671
aS'bathroom'
p2672
asI335
(lp2673
S'Where'
p2674
aS'was'
p2675
aS'the'
p2676
aS'milk'
p2677
aS'before'
p2678
aS'the'
p2679
aS'kitchen'
p2680
asI336
(lp2681
S'Where'
p2682
aS'was'
p2683
aS'the'
p2684
aS'apple'
p2685
aS'before'
p2686
aS'the'
p2687
aS'bathroom'
p2688
asI337
(lp2689
S'Where'
p2690
aS'was'
p2691
aS'the'
p2692
aS'apple'
p2693
aS'before'
p2694
aS'the'
p2695
aS'bathroom'
p2696
asI338
(lp2697
S'Where'
p2698
aS'was'
p2699
aS'the'
p2700
aS'apple'
p2701
aS'before'
p2702
aS'the'
p2703
aS'hallway'
p2704
asI339
(lp2705
S'Where'
p2706
aS'was'
p2707
aS'the'
p2708
aS'milk'
p2709
aS'before'
p2710
aS'the'
p2711
aS'bathroom'
p2712
asI340
(lp2713
S'Where'
p2714
aS'was'
p2715
aS'the'
p2716
aS'milk'
p2717
aS'before'
p2718
aS'the'
p2719
aS'garden'
p2720
asI341
(lp2721
S'Where'
p2722
aS'was'
p2723
aS'the'
p2724
aS'apple'
p2725
aS'before'
p2726
aS'the'
p2727
aS'office'
p2728
asI342
(lp2729
S'Where'
p2730
aS'was'
p2731
aS'the'
p2732
aS'apple'
p2733
aS'before'
p2734
aS'the'
p2735
aS'office'
p2736
asI343
(lp2737
S'Where'
p2738
aS'was'
p2739
aS'the'
p2740
aS'football'
p2741
aS'before'
p2742
aS'the'
p2743
aS'bedroom'
p2744
asI344
(lp2745
S'Where'
p2746
aS'was'
p2747
aS'the'
p2748
aS'football'
p2749
aS'before'
p2750
aS'the'
p2751
aS'bathroom'
p2752
asI345
(lp2753
S'Where'
p2754
aS'was'
p2755
aS'the'
p2756
aS'football'
p2757
aS'before'
p2758
aS'the'
p2759
aS'bathroom'
p2760
asI346
(lp2761
S'Where'
p2762
aS'was'
p2763
aS'the'
p2764
aS'milk'
p2765
aS'before'
p2766
aS'the'
p2767
aS'bedroom'
p2768
asI347
(lp2769
S'Where'
p2770
aS'was'
p2771
aS'the'
p2772
aS'milk'
p2773
aS'before'
p2774
aS'the'
p2775
aS'office'
p2776
asI348
(lp2777
S'Where'
p2778
aS'was'
p2779
aS'the'
p2780
aS'milk'
p2781
aS'before'
p2782
aS'the'
p2783
aS'office'
p2784
asI349
(lp2785
S'Where'
p2786
aS'was'
p2787
aS'the'
p2788
aS'apple'
p2789
aS'before'
p2790
aS'the'
p2791
aS'garden'
p2792
asI350
(lp2793
S'Where'
p2794
aS'was'
p2795
aS'the'
p2796
aS'apple'
p2797
aS'before'
p2798
aS'the'
p2799
aS'garden'
p2800
asI351
(lp2801
S'Where'
p2802
aS'was'
p2803
aS'the'
p2804
aS'milk'
p2805
aS'before'
p2806
aS'the'
p2807
aS'kitchen'
p2808
asI352
(lp2809
S'Where'
p2810
aS'was'
p2811
aS'the'
p2812
aS'apple'
p2813
aS'before'
p2814
aS'the'
p2815
aS'garden'
p2816
asI353
(lp2817
S'Where'
p2818
aS'was'
p2819
aS'the'
p2820
aS'milk'
p2821
aS'before'
p2822
aS'the'
p2823
aS'kitchen'
p2824
asI354
(lp2825
S'Where'
p2826
aS'was'
p2827
aS'the'
p2828
aS'milk'
p2829
aS'before'
p2830
aS'the'
p2831
aS'kitchen'
p2832
asI355
(lp2833
S'Where'
p2834
aS'was'
p2835
aS'the'
p2836
aS'milk'
p2837
aS'before'
p2838
aS'the'
p2839
aS'kitchen'
p2840
asI356
(lp2841
S'Where'
p2842
aS'was'
p2843
aS'the'
p2844
aS'milk'
p2845
aS'before'
p2846
aS'the'
p2847
aS'bedroom'
p2848
asI357
(lp2849
S'Where'
p2850
aS'was'
p2851
aS'the'
p2852
aS'football'
p2853
aS'before'
p2854
aS'the'
p2855
aS'bathroom'
p2856
asI358
(lp2857
S'Where'
p2858
aS'was'
p2859
aS'the'
p2860
aS'football'
p2861
aS'before'
p2862
aS'the'
p2863
aS'bathroom'
p2864
asI359
(lp2865
S'Where'
p2866
aS'was'
p2867
aS'the'
p2868
aS'football'
p2869
aS'before'
p2870
aS'the'
p2871
aS'bathroom'
p2872
asI360
(lp2873
S'Where'
p2874
aS'was'
p2875
aS'the'
p2876
aS'football'
p2877
aS'before'
p2878
aS'the'
p2879
aS'garden'
p2880
asI361
(lp2881
S'Where'
p2882
aS'was'
p2883
aS'the'
p2884
aS'apple'
p2885
aS'before'
p2886
aS'the'
p2887
aS'kitchen'
p2888
asI362
(lp2889
S'Where'
p2890
aS'was'
p2891
aS'the'
p2892
aS'football'
p2893
aS'before'
p2894
aS'the'
p2895
aS'hallway'
p2896
asI363
(lp2897
S'Where'
p2898
aS'was'
p2899
aS'the'
p2900
aS'apple'
p2901
aS'before'
p2902
aS'the'
p2903
aS'hallway'
p2904
asI364
(lp2905
S'Where'
p2906
aS'was'
p2907
aS'the'
p2908
aS'apple'
p2909
aS'before'
p2910
aS'the'
p2911
aS'bathroom'
p2912
asI365
(lp2913
S'Where'
p2914
aS'was'
p2915
aS'the'
p2916
aS'apple'
p2917
aS'before'
p2918
aS'the'
p2919
aS'bathroom'
p2920
asI366
(lp2921
S'Where'
p2922
aS'was'
p2923
aS'the'
p2924
aS'football'
p2925
aS'before'
p2926
aS'the'
p2927
aS'hallway'
p2928
asI367
(lp2929
S'Where'
p2930
aS'was'
p2931
aS'the'
p2932
aS'football'
p2933
aS'before'
p2934
aS'the'
p2935
aS'hallway'
p2936
asI368
(lp2937
S'Where'
p2938
aS'was'
p2939
aS'the'
p2940
aS'football'
p2941
aS'before'
p2942
aS'the'
p2943
aS'hallway'
p2944
asI369
(lp2945
S'Where'
p2946
aS'was'
p2947
aS'the'
p2948
aS'milk'
p2949
aS'before'
p2950
aS'the'
p2951
aS'hallway'
p2952
asI370
(lp2953
S'Where'
p2954
aS'was'
p2955
aS'the'
p2956
aS'milk'
p2957
aS'before'
p2958
aS'the'
p2959
aS'hallway'
p2960
asI371
(lp2961
S'Where'
p2962
aS'was'
p2963
aS'the'
p2964
aS'apple'
p2965
aS'before'
p2966
aS'the'
p2967
aS'kitchen'
p2968
asI372
(lp2969
S'Where'
p2970
aS'was'
p2971
aS'the'
p2972
aS'football'
p2973
aS'before'
p2974
aS'the'
p2975
aS'office'
p2976
asI373
(lp2977
S'Where'
p2978
aS'was'
p2979
aS'the'
p2980
aS'apple'
p2981
aS'before'
p2982
aS'the'
p2983
aS'office'
p2984
asI374
(lp2985
S'Where'
p2986
aS'was'
p2987
aS'the'
p2988
aS'apple'
p2989
aS'before'
p2990
aS'the'
p2991
aS'office'
p2992
asI375
(lp2993
S'Where'
p2994
aS'was'
p2995
aS'the'
p2996
aS'apple'
p2997
aS'before'
p2998
aS'the'
p2999
aS'office'
p3000
asI376
(lp3001
S'Where'
p3002
aS'was'
p3003
aS'the'
p3004
aS'football'
p3005
aS'before'
p3006
aS'the'
p3007
aS'bedroom'
p3008
asI377
(lp3009
S'Where'
p3010
aS'was'
p3011
aS'the'
p3012
aS'football'
p3013
aS'before'
p3014
aS'the'
p3015
aS'bedroom'
p3016
asI378
(lp3017
S'Where'
p3018
aS'was'
p3019
aS'the'
p3020
aS'football'
p3021
aS'before'
p3022
aS'the'
p3023
aS'garden'
p3024
asI379
(lp3025
S'Where'
p3026
aS'was'
p3027
aS'the'
p3028
aS'football'
p3029
aS'before'
p3030
aS'the'
p3031
aS'office'
p3032
asI380
(lp3033
S'Where'
p3034
aS'was'
p3035
aS'the'
p3036
aS'apple'
p3037
aS'before'
p3038
aS'the'
p3039
aS'garden'
p3040
asI381
(lp3041
S'Where'
p3042
aS'was'
p3043
aS'the'
p3044
aS'milk'
p3045
aS'before'
p3046
aS'the'
p3047
aS'hallway'
p3048
asI382
(lp3049
S'Where'
p3050
aS'was'
p3051
aS'the'
p3052
aS'milk'
p3053
aS'before'
p3054
aS'the'
p3055
aS'hallway'
p3056
asI383
(lp3057
S'Where'
p3058
aS'was'
p3059
aS'the'
p3060
aS'milk'
p3061
aS'before'
p3062
aS'the'
p3063
aS'hallway'
p3064
asI384
(lp3065
S'Where'
p3066
aS'was'
p3067
aS'the'
p3068
aS'milk'
p3069
aS'before'
p3070
aS'the'
p3071
aS'hallway'
p3072
asI385
(lp3073
S'Where'
p3074
aS'was'
p3075
aS'the'
p3076
aS'apple'
p3077
aS'before'
p3078
aS'the'
p3079
aS'hallway'
p3080
asI386
(lp3081
S'Where'
p3082
aS'was'
p3083
aS'the'
p3084
aS'milk'
p3085
aS'before'
p3086
aS'the'
p3087
aS'garden'
p3088
asI387
(lp3089
S'Where'
p3090
aS'was'
p3091
aS'the'
p3092
aS'apple'
p3093
aS'before'
p3094
aS'the'
p3095
aS'garden'
p3096
asI388
(lp3097
S'Where'
p3098
aS'was'
p3099
aS'the'
p3100
aS'apple'
p3101
aS'before'
p3102
aS'the'
p3103
aS'bathroom'
p3104
asI389
(lp3105
S'Where'
p3106
aS'was'
p3107
aS'the'
p3108
aS'apple'
p3109
aS'before'
p3110
aS'the'
p3111
aS'garden'
p3112
asI390
(lp3113
S'Where'
p3114
aS'was'
p3115
aS'the'
p3116
aS'milk'
p3117
aS'before'
p3118
aS'the'
p3119
aS'bedroom'
p3120
asI391
(lp3121
S'Where'
p3122
aS'was'
p3123
aS'the'
p3124
aS'milk'
p3125
aS'before'
p3126
aS'the'
p3127
aS'garden'
p3128
asI392
(lp3129
S'Where'
p3130
aS'was'
p3131
aS'the'
p3132
aS'milk'
p3133
aS'before'
p3134
aS'the'
p3135
aS'garden'
p3136
asI393
(lp3137
S'Where'
p3138
aS'was'
p3139
aS'the'
p3140
aS'milk'
p3141
aS'before'
p3142
aS'the'
p3143
aS'office'
p3144
asI394
(lp3145
S'Where'
p3146
aS'was'
p3147
aS'the'
p3148
aS'milk'
p3149
aS'before'
p3150
aS'the'
p3151
aS'office'
p3152
asI395
(lp3153
S'Where'
p3154
aS'was'
p3155
aS'the'
p3156
aS'apple'
p3157
aS'before'
p3158
aS'the'
p3159
aS'office'
p3160
asI396
(lp3161
S'Where'
p3162
aS'was'
p3163
aS'the'
p3164
aS'milk'
p3165
aS'before'
p3166
aS'the'
p3167
aS'bathroom'
p3168
asI397
(lp3169
S'Where'
p3170
aS'was'
p3171
aS'the'
p3172
aS'milk'
p3173
aS'before'
p3174
aS'the'
p3175
aS'hallway'
p3176
asI398
(lp3177
S'Where'
p3178
aS'was'
p3179
aS'the'
p3180
aS'milk'
p3181
aS'before'
p3182
aS'the'
p3183
aS'bathroom'
p3184
asI399
(lp3185
S'Where'
p3186
aS'was'
p3187
aS'the'
p3188
aS'football'
p3189
aS'before'
p3190
aS'the'
p3191
aS'office'
p3192
asI400
(lp3193
S'Where'
p3194
aS'was'
p3195
aS'the'
p3196
aS'football'
p3197
aS'before'
p3198
aS'the'
p3199
aS'office'
p3200
asI401
(lp3201
S'Where'
p3202
aS'was'
p3203
aS'the'
p3204
aS'milk'
p3205
aS'before'
p3206
aS'the'
p3207
aS'hallway'
p3208
asI402
(lp3209
S'Where'
p3210
aS'was'
p3211
aS'the'
p3212
aS'milk'
p3213
aS'before'
p3214
aS'the'
p3215
aS'hallway'
p3216
asI403
(lp3217
S'Where'
p3218
aS'was'
p3219
aS'the'
p3220
aS'milk'
p3221
aS'before'
p3222
aS'the'
p3223
aS'hallway'
p3224
asI404
(lp3225
S'Where'
p3226
aS'was'
p3227
aS'the'
p3228
aS'milk'
p3229
aS'before'
p3230
aS'the'
p3231
aS'hallway'
p3232
asI405
(lp3233
S'Where'
p3234
aS'was'
p3235
aS'the'
p3236
aS'milk'
p3237
aS'before'
p3238
aS'the'
p3239
aS'bedroom'
p3240
asI406
(lp3241
S'Where'
p3242
aS'was'
p3243
aS'the'
p3244
aS'football'
p3245
aS'before'
p3246
aS'the'
p3247
aS'bedroom'
p3248
asI407
(lp3249
S'Where'
p3250
aS'was'
p3251
aS'the'
p3252
aS'football'
p3253
aS'before'
p3254
aS'the'
p3255
aS'bedroom'
p3256
asI408
(lp3257
S'Where'
p3258
aS'was'
p3259
aS'the'
p3260
aS'football'
p3261
aS'before'
p3262
aS'the'
p3263
aS'bedroom'
p3264
asI409
(lp3265
S'Where'
p3266
aS'was'
p3267
aS'the'
p3268
aS'apple'
p3269
aS'before'
p3270
aS'the'
p3271
aS'bathroom'
p3272
asI410
(lp3273
S'Where'
p3274
aS'was'
p3275
aS'the'
p3276
aS'apple'
p3277
aS'before'
p3278
aS'the'
p3279
aS'bathroom'
p3280
asI411
(lp3281
S'Where'
p3282
aS'was'
p3283
aS'the'
p3284
aS'apple'
p3285
aS'before'
p3286
aS'the'
p3287
aS'bedroom'
p3288
asI412
(lp3289
S'Where'
p3290
aS'was'
p3291
aS'the'
p3292
aS'apple'
p3293
aS'before'
p3294
aS'the'
p3295
aS'bedroom'
p3296
asI413
(lp3297
S'Where'
p3298
aS'was'
p3299
aS'the'
p3300
aS'apple'
p3301
aS'before'
p3302
aS'the'
p3303
aS'bedroom'
p3304
asI414
(lp3305
S'Where'
p3306
aS'was'
p3307
aS'the'
p3308
aS'football'
p3309
aS'before'
p3310
aS'the'
p3311
aS'bathroom'
p3312
asI415
(lp3313
S'Where'
p3314
aS'was'
p3315
aS'the'
p3316
aS'football'
p3317
aS'before'
p3318
aS'the'
p3319
aS'bathroom'
p3320
asI416
(lp3321
S'Where'
p3322
aS'was'
p3323
aS'the'
p3324
aS'apple'
p3325
aS'before'
p3326
aS'the'
p3327
aS'bathroom'
p3328
asI417
(lp3329
S'Where'
p3330
aS'was'
p3331
aS'the'
p3332
aS'milk'
p3333
aS'before'
p3334
aS'the'
p3335
aS'garden'
p3336
asI418
(lp3337
S'Where'
p3338
aS'was'
p3339
aS'the'
p3340
aS'milk'
p3341
aS'before'
p3342
aS'the'
p3343
aS'bedroom'
p3344
asI419
(lp3345
S'Where'
p3346
aS'was'
p3347
aS'the'
p3348
aS'milk'
p3349
aS'before'
p3350
aS'the'
p3351
aS'bedroom'
p3352
asI420
(lp3353
S'Where'
p3354
aS'was'
p3355
aS'the'
p3356
aS'milk'
p3357
aS'before'
p3358
aS'the'
p3359
aS'hallway'
p3360
asI421
(lp3361
S'Where'
p3362
aS'was'
p3363
aS'the'
p3364
aS'football'
p3365
aS'before'
p3366
aS'the'
p3367
aS'garden'
p3368
asI422
(lp3369
S'Where'
p3370
aS'was'
p3371
aS'the'
p3372
aS'milk'
p3373
aS'before'
p3374
aS'the'
p3375
aS'garden'
p3376
asI423
(lp3377
S'Where'
p3378
aS'was'
p3379
aS'the'
p3380
aS'milk'
p3381
aS'before'
p3382
aS'the'
p3383
aS'garden'
p3384
asI424
(lp3385
S'Where'
p3386
aS'was'
p3387
aS'the'
p3388
aS'apple'
p3389
aS'before'
p3390
aS'the'
p3391
aS'kitchen'
p3392
asI425
(lp3393
S'Where'
p3394
aS'was'
p3395
aS'the'
p3396
aS'apple'
p3397
aS'before'
p3398
aS'the'
p3399
aS'kitchen'
p3400
asI426
(lp3401
S'Where'
p3402
aS'was'
p3403
aS'the'
p3404
aS'milk'
p3405
aS'before'
p3406
aS'the'
p3407
aS'hallway'
p3408
asI427
(lp3409
S'Where'
p3410
aS'was'
p3411
aS'the'
p3412
aS'milk'
p3413
aS'before'
p3414
aS'the'
p3415
aS'bedroom'
p3416
asI428
(lp3417
S'Where'
p3418
aS'was'
p3419
aS'the'
p3420
aS'milk'
p3421
aS'before'
p3422
aS'the'
p3423
aS'hallway'
p3424
asI429
(lp3425
S'Where'
p3426
aS'was'
p3427
aS'the'
p3428
aS'apple'
p3429
aS'before'
p3430
aS'the'
p3431
aS'office'
p3432
asI430
(lp3433
S'Where'
p3434
aS'was'
p3435
aS'the'
p3436
aS'apple'
p3437
aS'before'
p3438
aS'the'
p3439
aS'bedroom'
p3440
asI431
(lp3441
S'Where'
p3442
aS'was'
p3443
aS'the'
p3444
aS'milk'
p3445
aS'before'
p3446
aS'the'
p3447
aS'bedroom'
p3448
asI432
(lp3449
S'Where'
p3450
aS'was'
p3451
aS'the'
p3452
aS'milk'
p3453
aS'before'
p3454
aS'the'
p3455
aS'bedroom'
p3456
asI433
(lp3457
S'Where'
p3458
aS'was'
p3459
aS'the'
p3460
aS'milk'
p3461
aS'before'
p3462
aS'the'
p3463
aS'bedroom'
p3464
asI434
(lp3465
S'Where'
p3466
aS'was'
p3467
aS'the'
p3468
aS'apple'
p3469
aS'before'
p3470
aS'the'
p3471
aS'bathroom'
p3472
asI435
(lp3473
S'Where'
p3474
aS'was'
p3475
aS'the'
p3476
aS'apple'
p3477
aS'before'
p3478
aS'the'
p3479
aS'hallway'
p3480
asI436
(lp3481
S'Where'
p3482
aS'was'
p3483
aS'the'
p3484
aS'apple'
p3485
aS'before'
p3486
aS'the'
p3487
aS'garden'
p3488
asI437
(lp3489
S'Where'
p3490
aS'was'
p3491
aS'the'
p3492
aS'apple'
p3493
aS'before'
p3494
aS'the'
p3495
aS'garden'
p3496
asI438
(lp3497
S'Where'
p3498
aS'was'
p3499
aS'the'
p3500
aS'milk'
p3501
aS'before'
p3502
aS'the'
p3503
aS'kitchen'
p3504
asI439
(lp3505
S'Where'
p3506
aS'was'
p3507
aS'the'
p3508
aS'milk'
p3509
aS'before'
p3510
aS'the'
p3511
aS'kitchen'
p3512
asI440
(lp3513
S'Where'
p3514
aS'was'
p3515
aS'the'
p3516
aS'football'
p3517
aS'before'
p3518
aS'the'
p3519
aS'kitchen'
p3520
asI441
(lp3521
S'Where'
p3522
aS'was'
p3523
aS'the'
p3524
aS'football'
p3525
aS'before'
p3526
aS'the'
p3527
aS'kitchen'
p3528
asI442
(lp3529
S'Where'
p3530
aS'was'
p3531
aS'the'
p3532
aS'football'
p3533
aS'before'
p3534
aS'the'
p3535
aS'kitchen'
p3536
asI443
(lp3537
S'Where'
p3538
aS'was'
p3539
aS'the'
p3540
aS'football'
p3541
aS'before'
p3542
aS'the'
p3543
aS'office'
p3544
asI444
(lp3545
S'Where'
p3546
aS'was'
p3547
aS'the'
p3548
aS'football'
p3549
aS'before'
p3550
aS'the'
p3551
aS'bathroom'
p3552
asI445
(lp3553
S'Where'
p3554
aS'was'
p3555
aS'the'
p3556
aS'football'
p3557
aS'before'
p3558
aS'the'
p3559
aS'hallway'
p3560
asI446
(lp3561
S'Where'
p3562
aS'was'
p3563
aS'the'
p3564
aS'apple'
p3565
aS'before'
p3566
aS'the'
p3567
aS'hallway'
p3568
asI447
(lp3569
S'Where'
p3570
aS'was'
p3571
aS'the'
p3572
aS'apple'
p3573
aS'before'
p3574
aS'the'
p3575
aS'hallway'
p3576
asI448
(lp3577
S'Where'
p3578
aS'was'
p3579
aS'the'
p3580
aS'apple'
p3581
aS'before'
p3582
aS'the'
p3583
aS'hallway'
p3584
asI449
(lp3585
S'Where'
p3586
aS'was'
p3587
aS'the'
p3588
aS'milk'
p3589
aS'before'
p3590
aS'the'
p3591
aS'bedroom'
p3592
asI450
(lp3593
S'Where'
p3594
aS'was'
p3595
aS'the'
p3596
aS'milk'
p3597
aS'before'
p3598
aS'the'
p3599
aS'bathroom'
p3600
asI451
(lp3601
S'Where'
p3602
aS'was'
p3603
aS'the'
p3604
aS'football'
p3605
aS'before'
p3606
aS'the'
p3607
aS'kitchen'
p3608
asI452
(lp3609
S'Where'
p3610
aS'was'
p3611
aS'the'
p3612
aS'apple'
p3613
aS'before'
p3614
aS'the'
p3615
aS'office'
p3616
asI453
(lp3617
S'Where'
p3618
aS'was'
p3619
aS'the'
p3620
aS'apple'
p3621
aS'before'
p3622
aS'the'
p3623
aS'garden'
p3624
asI454
(lp3625
S'Where'
p3626
aS'was'
p3627
aS'the'
p3628
aS'apple'
p3629
aS'before'
p3630
aS'the'
p3631
aS'garden'
p3632
asI455
(lp3633
S'Where'
p3634
aS'was'
p3635
aS'the'
p3636
aS'football'
p3637
aS'before'
p3638
aS'the'
p3639
aS'hallway'
p3640
asI456
(lp3641
S'Where'
p3642
aS'was'
p3643
aS'the'
p3644
aS'football'
p3645
aS'before'
p3646
aS'the'
p3647
aS'bedroom'
p3648
asI457
(lp3649
S'Where'
p3650
aS'was'
p3651
aS'the'
p3652
aS'football'
p3653
aS'before'
p3654
aS'the'
p3655
aS'bedroom'
p3656
asI458
(lp3657
S'Where'
p3658
aS'was'
p3659
aS'the'
p3660
aS'football'
p3661
aS'before'
p3662
aS'the'
p3663
aS'office'
p3664
asI459
(lp3665
S'Where'
p3666
aS'was'
p3667
aS'the'
p3668
aS'apple'
p3669
aS'before'
p3670
aS'the'
p3671
aS'bathroom'
p3672
asI460
(lp3673
S'Where'
p3674
aS'was'
p3675
aS'the'
p3676
aS'apple'
p3677
aS'before'
p3678
aS'the'
p3679
aS'hallway'
p3680
asI461
(lp3681
S'Where'
p3682
aS'was'
p3683
aS'the'
p3684
aS'football'
p3685
aS'before'
p3686
aS'the'
p3687
aS'hallway'
p3688
asI462
(lp3689
S'Where'
p3690
aS'was'
p3691
aS'the'
p3692
aS'football'
p3693
aS'before'
p3694
aS'the'
p3695
aS'bathroom'
p3696
asI463
(lp3697
S'Where'
p3698
aS'was'
p3699
aS'the'
p3700
aS'football'
p3701
aS'before'
p3702
aS'the'
p3703
aS'bathroom'
p3704
asI464
(lp3705
S'Where'
p3706
aS'was'
p3707
aS'the'
p3708
aS'milk'
p3709
aS'before'
p3710
aS'the'
p3711
aS'hallway'
p3712
asI465
(lp3713
S'Where'
p3714
aS'was'
p3715
aS'the'
p3716
aS'apple'
p3717
aS'before'
p3718
aS'the'
p3719
aS'bedroom'
p3720
asI466
(lp3721
S'Where'
p3722
aS'was'
p3723
aS'the'
p3724
aS'milk'
p3725
aS'before'
p3726
aS'the'
p3727
aS'garden'
p3728
asI467
(lp3729
S'Where'
p3730
aS'was'
p3731
aS'the'
p3732
aS'milk'
p3733
aS'before'
p3734
aS'the'
p3735
aS'garden'
p3736
asI468
(lp3737
S'Where'
p3738
aS'was'
p3739
aS'the'
p3740
aS'milk'
p3741
aS'before'
p3742
aS'the'
p3743
aS'bedroom'
p3744
asI469
(lp3745
S'Where'
p3746
aS'was'
p3747
aS'the'
p3748
aS'milk'
p3749
aS'before'
p3750
aS'the'
p3751
aS'bedroom'
p3752
asI470
(lp3753
S'Where'
p3754
aS'was'
p3755
aS'the'
p3756
aS'milk'
p3757
aS'before'
p3758
aS'the'
p3759
aS'bedroom'
p3760
asI471
(lp3761
S'Where'
p3762
aS'was'
p3763
aS'the'
p3764
aS'milk'
p3765
aS'before'
p3766
aS'the'
p3767
aS'office'
p3768
asI472
(lp3769
S'Where'
p3770
aS'was'
p3771
aS'the'
p3772
aS'milk'
p3773
aS'before'
p3774
aS'the'
p3775
aS'office'
p3776
asI473
(lp3777
S'Where'
p3778
aS'was'
p3779
aS'the'
p3780
aS'football'
p3781
aS'before'
p3782
aS'the'
p3783
aS'office'
p3784
asI474
(lp3785
S'Where'
p3786
aS'was'
p3787
aS'the'
p3788
aS'football'
p3789
aS'before'
p3790
aS'the'
p3791
aS'office'
p3792
asI475
(lp3793
S'Where'
p3794
aS'was'
p3795
aS'the'
p3796
aS'apple'
p3797
aS'before'
p3798
aS'the'
p3799
aS'bedroom'
p3800
asI476
(lp3801
S'Where'
p3802
aS'was'
p3803
aS'the'
p3804
aS'milk'
p3805
aS'before'
p3806
aS'the'
p3807
aS'kitchen'
p3808
asI477
(lp3809
S'Where'
p3810
aS'was'
p3811
aS'the'
p3812
aS'milk'
p3813
aS'before'
p3814
aS'the'
p3815
aS'kitchen'
p3816
asI478
(lp3817
S'Where'
p3818
aS'was'
p3819
aS'the'
p3820
aS'apple'
p3821
aS'before'
p3822
aS'the'
p3823
aS'bathroom'
p3824
asI479
(lp3825
S'Where'
p3826
aS'was'
p3827
aS'the'
p3828
aS'apple'
p3829
aS'before'
p3830
aS'the'
p3831
aS'bathroom'
p3832
asI480
(lp3833
S'Where'
p3834
aS'was'
p3835
aS'the'
p3836
aS'football'
p3837
aS'before'
p3838
aS'the'
p3839
aS'kitchen'
p3840
asI481
(lp3841
S'Where'
p3842
aS'was'
p3843
aS'the'
p3844
aS'milk'
p3845
aS'before'
p3846
aS'the'
p3847
aS'garden'
p3848
asI482
(lp3849
S'Where'
p3850
aS'was'
p3851
aS'the'
p3852
aS'milk'
p3853
aS'before'
p3854
aS'the'
p3855
aS'garden'
p3856
asI483
(lp3857
S'Where'
p3858
aS'was'
p3859
aS'the'
p3860
aS'football'
p3861
aS'before'
p3862
aS'the'
p3863
aS'bathroom'
p3864
asI484
(lp3865
S'Where'
p3866
aS'was'
p3867
aS'the'
p3868
aS'apple'
p3869
aS'before'
p3870
aS'the'
p3871
aS'office'
p3872
asI485
(lp3873
S'Where'
p3874
aS'was'
p3875
aS'the'
p3876
aS'milk'
p3877
aS'before'
p3878
aS'the'
p3879
aS'garden'
p3880
asI486
(lp3881
S'Where'
p3882
aS'was'
p3883
aS'the'
p3884
aS'football'
p3885
aS'before'
p3886
aS'the'
p3887
aS'bathroom'
p3888
asI487
(lp3889
S'Where'
p3890
aS'was'
p3891
aS'the'
p3892
aS'football'
p3893
aS'before'
p3894
aS'the'
p3895
aS'bathroom'
p3896
asI488
(lp3897
S'Where'
p3898
aS'was'
p3899
aS'the'
p3900
aS'football'
p3901
aS'before'
p3902
aS'the'
p3903
aS'bathroom'
p3904
asI489
(lp3905
S'Where'
p3906
aS'was'
p3907
aS'the'
p3908
aS'apple'
p3909
aS'before'
p3910
aS'the'
p3911
aS'hallway'
p3912
asI490
(lp3913
S'Where'
p3914
aS'was'
p3915
aS'the'
p3916
aS'milk'
p3917
aS'before'
p3918
aS'the'
p3919
aS'garden'
p3920
asI491
(lp3921
S'Where'
p3922
aS'was'
p3923
aS'the'
p3924
aS'milk'
p3925
aS'before'
p3926
aS'the'
p3927
aS'kitchen'
p3928
asI492
(lp3929
S'Where'
p3930
aS'was'
p3931
aS'the'
p3932
aS'milk'
p3933
aS'before'
p3934
aS'the'
p3935
aS'kitchen'
p3936
asI493
(lp3937
S'Where'
p3938
aS'was'
p3939
aS'the'
p3940
aS'milk'
p3941
aS'before'
p3942
aS'the'
p3943
aS'kitchen'
p3944
asI494
(lp3945
S'Where'
p3946
aS'was'
p3947
aS'the'
p3948
aS'milk'
p3949
aS'before'
p3950
aS'the'
p3951
aS'kitchen'
p3952
asI495
(lp3953
S'Where'
p3954
aS'was'
p3955
aS'the'
p3956
aS'milk'
p3957
aS'before'
p3958
aS'the'
p3959
aS'kitchen'
p3960
asI496
(lp3961
S'Where'
p3962
aS'was'
p3963
aS'the'
p3964
aS'football'
p3965
aS'before'
p3966
aS'the'
p3967
aS'hallway'
p3968
asI497
(lp3969
S'Where'
p3970
aS'was'
p3971
aS'the'
p3972
aS'football'
p3973
aS'before'
p3974
aS'the'
p3975
aS'hallway'
p3976
asI498
(lp3977
S'Where'
p3978
aS'was'
p3979
aS'the'
p3980
aS'football'
p3981
aS'before'
p3982
aS'the'
p3983
aS'hallway'
p3984
asI499
(lp3985
S'Where'
p3986
aS'was'
p3987
aS'the'
p3988
aS'football'
p3989
aS'before'
p3990
aS'the'
p3991
aS'hallway'
p3992
asI500
(lp3993
S'Where'
p3994
aS'was'
p3995
aS'the'
p3996
aS'milk'
p3997
aS'before'
p3998
aS'the'
p3999
aS'bathroom'
p4000
asI501
(lp4001
S'Where'
p4002
aS'was'
p4003
aS'the'
p4004
aS'apple'
p4005
aS'before'
p4006
aS'the'
p4007
aS'bedroom'
p4008
asI502
(lp4009
S'Where'
p4010
aS'was'
p4011
aS'the'
p4012
aS'apple'
p4013
aS'before'
p4014
aS'the'
p4015
aS'bedroom'
p4016
asI503
(lp4017
S'Where'
p4018
aS'was'
p4019
aS'the'
p4020
aS'apple'
p4021
aS'before'
p4022
aS'the'
p4023
aS'office'
p4024
asI504
(lp4025
S'Where'
p4026
aS'was'
p4027
aS'the'
p4028
aS'apple'
p4029
aS'before'
p4030
aS'the'
p4031
aS'office'
p4032
asI505
(lp4033
S'Where'
p4034
aS'was'
p4035
aS'the'
p4036
aS'milk'
p4037
aS'before'
p4038
aS'the'
p4039
aS'garden'
p4040
asI506
(lp4041
S'Where'
p4042
aS'was'
p4043
aS'the'
p4044
aS'milk'
p4045
aS'before'
p4046
aS'the'
p4047
aS'kitchen'
p4048
asI507
(lp4049
S'Where'
p4050
aS'was'
p4051
aS'the'
p4052
aS'milk'
p4053
aS'before'
p4054
aS'the'
p4055
aS'hallway'
p4056
asI508
(lp4057
S'Where'
p4058
aS'was'
p4059
aS'the'
p4060
aS'milk'
p4061
aS'before'
p4062
aS'the'
p4063
aS'office'
p4064
asI509
(lp4065
S'Where'
p4066
aS'was'
p4067
aS'the'
p4068
aS'milk'
p4069
aS'before'
p4070
aS'the'
p4071
aS'office'
p4072
asI510
(lp4073
S'Where'
p4074
aS'was'
p4075
aS'the'
p4076
aS'milk'
p4077
aS'before'
p4078
aS'the'
p4079
aS'office'
p4080
asI511
(lp4081
S'Where'
p4082
aS'was'
p4083
aS'the'
p4084
aS'football'
p4085
aS'before'
p4086
aS'the'
p4087
aS'bedroom'
p4088
asI512
(lp4089
S'Where'
p4090
aS'was'
p4091
aS'the'
p4092
aS'football'
p4093
aS'before'
p4094
aS'the'
p4095
aS'office'
p4096
asI513
(lp4097
S'Where'
p4098
aS'was'
p4099
aS'the'
p4100
aS'football'
p4101
aS'before'
p4102
aS'the'
p4103
aS'bedroom'
p4104
asI514
(lp4105
S'Where'
p4106
aS'was'
p4107
aS'the'
p4108
aS'milk'
p4109
aS'before'
p4110
aS'the'
p4111
aS'bedroom'
p4112
asI515
(lp4113
S'Where'
p4114
aS'was'
p4115
aS'the'
p4116
aS'milk'
p4117
aS'before'
p4118
aS'the'
p4119
aS'bedroom'
p4120
asI516
(lp4121
S'Where'
p4122
aS'was'
p4123
aS'the'
p4124
aS'apple'
p4125
aS'before'
p4126
aS'the'
p4127
aS'bathroom'
p4128
asI517
(lp4129
S'Where'
p4130
aS'was'
p4131
aS'the'
p4132
aS'apple'
p4133
aS'before'
p4134
aS'the'
p4135
aS'bathroom'
p4136
asI518
(lp4137
S'Where'
p4138
aS'was'
p4139
aS'the'
p4140
aS'apple'
p4141
aS'before'
p4142
aS'the'
p4143
aS'bathroom'
p4144
asI519
(lp4145
S'Where'
p4146
aS'was'
p4147
aS'the'
p4148
aS'apple'
p4149
aS'before'
p4150
aS'the'
p4151
aS'bathroom'
p4152
asI520
(lp4153
S'Where'
p4154
aS'was'
p4155
aS'the'
p4156
aS'milk'
p4157
aS'before'
p4158
aS'the'
p4159
aS'kitchen'
p4160
asI521
(lp4161
S'Where'
p4162
aS'was'
p4163
aS'the'
p4164
aS'football'
p4165
aS'before'
p4166
aS'the'
p4167
aS'kitchen'
p4168
asI522
(lp4169
S'Where'
p4170
aS'was'
p4171
aS'the'
p4172
aS'milk'
p4173
aS'before'
p4174
aS'the'
p4175
aS'bathroom'
p4176
asI523
(lp4177
S'Where'
p4178
aS'was'
p4179
aS'the'
p4180
aS'apple'
p4181
aS'before'
p4182
aS'the'
p4183
aS'office'
p4184
asI524
(lp4185
S'Where'
p4186
aS'was'
p4187
aS'the'
p4188
aS'apple'
p4189
aS'before'
p4190
aS'the'
p4191
aS'office'
p4192
asI525
(lp4193
S'Where'
p4194
aS'was'
p4195
aS'the'
p4196
aS'football'
p4197
aS'before'
p4198
aS'the'
p4199
aS'bedroom'
p4200
asI526
(lp4201
S'Where'
p4202
aS'was'
p4203
aS'the'
p4204
aS'football'
p4205
aS'before'
p4206
aS'the'
p4207
aS'hallway'
p4208
asI527
(lp4209
S'Where'
p4210
aS'was'
p4211
aS'the'
p4212
aS'football'
p4213
aS'before'
p4214
aS'the'
p4215
aS'hallway'
p4216
asI528
(lp4217
S'Where'
p4218
aS'was'
p4219
aS'the'
p4220
aS'apple'
p4221
aS'before'
p4222
aS'the'
p4223
aS'kitchen'
p4224
asI529
(lp4225
S'Where'
p4226
aS'was'
p4227
aS'the'
p4228
aS'apple'
p4229
aS'before'
p4230
aS'the'
p4231
aS'kitchen'
p4232
asI530
(lp4233
S'Where'
p4234
aS'was'
p4235
aS'the'
p4236
aS'apple'
p4237
aS'before'
p4238
aS'the'
p4239
aS'kitchen'
p4240
asI531
(lp4241
S'Where'
p4242
aS'was'
p4243
aS'the'
p4244
aS'milk'
p4245
aS'before'
p4246
aS'the'
p4247
aS'office'
p4248
asI532
(lp4249
S'Where'
p4250
aS'was'
p4251
aS'the'
p4252
aS'milk'
p4253
aS'before'
p4254
aS'the'
p4255
aS'office'
p4256
asI533
(lp4257
S'Where'
p4258
aS'was'
p4259
aS'the'
p4260
aS'milk'
p4261
aS'before'
p4262
aS'the'
p4263
aS'office'
p4264
asI534
(lp4265
S'Where'
p4266
aS'was'
p4267
aS'the'
p4268
aS'milk'
p4269
aS'before'
p4270
aS'the'
p4271
aS'bedroom'
p4272
asI535
(lp4273
S'Where'
p4274
aS'was'
p4275
aS'the'
p4276
aS'football'
p4277
aS'before'
p4278
aS'the'
p4279
aS'bathroom'
p4280
asI536
(lp4281
S'Where'
p4282
aS'was'
p4283
aS'the'
p4284
aS'football'
p4285
aS'before'
p4286
aS'the'
p4287
aS'hallway'
p4288
asI537
(lp4289
S'Where'
p4290
aS'was'
p4291
aS'the'
p4292
aS'football'
p4293
aS'before'
p4294
aS'the'
p4295
aS'garden'
p4296
asI538
(lp4297
S'Where'
p4298
aS'was'
p4299
aS'the'
p4300
aS'apple'
p4301
aS'before'
p4302
aS'the'
p4303
aS'hallway'
p4304
asI539
(lp4305
S'Where'
p4306
aS'was'
p4307
aS'the'
p4308
aS'apple'
p4309
aS'before'
p4310
aS'the'
p4311
aS'hallway'
p4312
asI540
(lp4313
S'Where'
p4314
aS'was'
p4315
aS'the'
p4316
aS'football'
p4317
aS'before'
p4318
aS'the'
p4319
aS'kitchen'
p4320
asI541
(lp4321
S'Where'
p4322
aS'was'
p4323
aS'the'
p4324
aS'milk'
p4325
aS'before'
p4326
aS'the'
p4327
aS'bathroom'
p4328
asI542
(lp4329
S'Where'
p4330
aS'was'
p4331
aS'the'
p4332
aS'milk'
p4333
aS'before'
p4334
aS'the'
p4335
aS'bathroom'
p4336
asI543
(lp4337
S'Where'
p4338
aS'was'
p4339
aS'the'
p4340
aS'milk'
p4341
aS'before'
p4342
aS'the'
p4343
aS'hallway'
p4344
asI544
(lp4345
S'Where'
p4346
aS'was'
p4347
aS'the'
p4348
aS'apple'
p4349
aS'before'
p4350
aS'the'
p4351
aS'bedroom'
p4352
asI545
(lp4353
S'Where'
p4354
aS'was'
p4355
aS'the'
p4356
aS'apple'
p4357
aS'before'
p4358
aS'the'
p4359
aS'bedroom'
p4360
asI546
(lp4361
S'Where'
p4362
aS'was'
p4363
aS'the'
p4364
aS'football'
p4365
aS'before'
p4366
aS'the'
p4367
aS'hallway'
p4368
asI547
(lp4369
S'Where'
p4370
aS'was'
p4371
aS'the'
p4372
aS'milk'
p4373
aS'before'
p4374
aS'the'
p4375
aS'hallway'
p4376
asI548
(lp4377
S'Where'
p4378
aS'was'
p4379
aS'the'
p4380
aS'milk'
p4381
aS'before'
p4382
aS'the'
p4383
aS'hallway'
p4384
asI549
(lp4385
S'Where'
p4386
aS'was'
p4387
aS'the'
p4388
aS'milk'
p4389
aS'before'
p4390
aS'the'
p4391
aS'hallway'
p4392
asI550
(lp4393
S'Where'
p4394
aS'was'
p4395
aS'the'
p4396
aS'apple'
p4397
aS'before'
p4398
aS'the'
p4399
aS'bathroom'
p4400
asI551
(lp4401
S'Where'
p4402
aS'was'
p4403
aS'the'
p4404
aS'apple'
p4405
aS'before'
p4406
aS'the'
p4407
aS'bedroom'
p4408
asI552
(lp4409
S'Where'
p4410
aS'was'
p4411
aS'the'
p4412
aS'milk'
p4413
aS'before'
p4414
aS'the'
p4415
aS'hallway'
p4416
asI553
(lp4417
S'Where'
p4418
aS'was'
p4419
aS'the'
p4420
aS'football'
p4421
aS'before'
p4422
aS'the'
p4423
aS'kitchen'
p4424
asI554
(lp4425
S'Where'
p4426
aS'was'
p4427
aS'the'
p4428
aS'apple'
p4429
aS'before'
p4430
aS'the'
p4431
aS'bathroom'
p4432
asI555
(lp4433
S'Where'
p4434
aS'was'
p4435
aS'the'
p4436
aS'football'
p4437
aS'before'
p4438
aS'the'
p4439
aS'bedroom'
p4440
asI556
(lp4441
S'Where'
p4442
aS'was'
p4443
aS'the'
p4444
aS'apple'
p4445
aS'before'
p4446
aS'the'
p4447
aS'kitchen'
p4448
asI557
(lp4449
S'Where'
p4450
aS'was'
p4451
aS'the'
p4452
aS'football'
p4453
aS'before'
p4454
aS'the'
p4455
aS'kitchen'
p4456
asI558
(lp4457
S'Where'
p4458
aS'was'
p4459
aS'the'
p4460
aS'apple'
p4461
aS'before'
p4462
aS'the'
p4463
aS'office'
p4464
asI559
(lp4465
S'Where'
p4466
aS'was'
p4467
aS'the'
p4468
aS'apple'
p4469
aS'before'
p4470
aS'the'
p4471
aS'office'
p4472
asI560
(lp4473
S'Where'
p4474
aS'was'
p4475
aS'the'
p4476
aS'football'
p4477
aS'before'
p4478
aS'the'
p4479
aS'hallway'
p4480
asI561
(lp4481
S'Where'
p4482
aS'was'
p4483
aS'the'
p4484
aS'apple'
p4485
aS'before'
p4486
aS'the'
p4487
aS'garden'
p4488
asI562
(lp4489
S'Where'
p4490
aS'was'
p4491
aS'the'
p4492
aS'milk'
p4493
aS'before'
p4494
aS'the'
p4495
aS'bedroom'
p4496
asI563
(lp4497
S'Where'
p4498
aS'was'
p4499
aS'the'
p4500
aS'milk'
p4501
aS'before'
p4502
aS'the'
p4503
aS'kitchen'
p4504
asI564
(lp4505
S'Where'
p4506
aS'was'
p4507
aS'the'
p4508
aS'milk'
p4509
aS'before'
p4510
aS'the'
p4511
aS'hallway'
p4512
asI565
(lp4513
S'Where'
p4514
aS'was'
p4515
aS'the'
p4516
aS'milk'
p4517
aS'before'
p4518
aS'the'
p4519
aS'bedroom'
p4520
asI566
(lp4521
S'Where'
p4522
aS'was'
p4523
aS'the'
p4524
aS'football'
p4525
aS'before'
p4526
aS'the'
p4527
aS'garden'
p4528
asI567
(lp4529
S'Where'
p4530
aS'was'
p4531
aS'the'
p4532
aS'football'
p4533
aS'before'
p4534
aS'the'
p4535
aS'garden'
p4536
asI568
(lp4537
S'Where'
p4538
aS'was'
p4539
aS'the'
p4540
aS'football'
p4541
aS'before'
p4542
aS'the'
p4543
aS'garden'
p4544
asI569
(lp4545
S'Where'
p4546
aS'was'
p4547
aS'the'
p4548
aS'football'
p4549
aS'before'
p4550
aS'the'
p4551
aS'kitchen'
p4552
asI570
(lp4553
S'Where'
p4554
aS'was'
p4555
aS'the'
p4556
aS'football'
p4557
aS'before'
p4558
aS'the'
p4559
aS'kitchen'
p4560
asI571
(lp4561
S'Where'
p4562
aS'was'
p4563
aS'the'
p4564
aS'milk'
p4565
aS'before'
p4566
aS'the'
p4567
aS'bedroom'
p4568
asI572
(lp4569
S'Where'
p4570
aS'was'
p4571
aS'the'
p4572
aS'milk'
p4573
aS'before'
p4574
aS'the'
p4575
aS'bedroom'
p4576
asI573
(lp4577
S'Where'
p4578
aS'was'
p4579
aS'the'
p4580
aS'football'
p4581
aS'before'
p4582
aS'the'
p4583
aS'bedroom'
p4584
asI574
(lp4585
S'Where'
p4586
aS'was'
p4587
aS'the'
p4588
aS'football'
p4589
aS'before'
p4590
aS'the'
p4591
aS'bedroom'
p4592
asI575
(lp4593
S'Where'
p4594
aS'was'
p4595
aS'the'
p4596
aS'apple'
p4597
aS'before'
p4598
aS'the'
p4599
aS'hallway'
p4600
asI576
(lp4601
S'Where'
p4602
aS'was'
p4603
aS'the'
p4604
aS'football'
p4605
aS'before'
p4606
aS'the'
p4607
aS'garden'
p4608
asI577
(lp4609
S'Where'
p4610
aS'was'
p4611
aS'the'
p4612
aS'milk'
p4613
aS'before'
p4614
aS'the'
p4615
aS'bedroom'
p4616
asI578
(lp4617
S'Where'
p4618
aS'was'
p4619
aS'the'
p4620
aS'milk'
p4621
aS'before'
p4622
aS'the'
p4623
aS'bedroom'
p4624
asI579
(lp4625
S'Where'
p4626
aS'was'
p4627
aS'the'
p4628
aS'football'
p4629
aS'before'
p4630
aS'the'
p4631
aS'office'
p4632
asI580
(lp4633
S'Where'
p4634
aS'was'
p4635
aS'the'
p4636
aS'football'
p4637
aS'before'
p4638
aS'the'
p4639
aS'kitchen'
p4640
asI581
(lp4641
S'Where'
p4642
aS'was'
p4643
aS'the'
p4644
aS'apple'
p4645
aS'before'
p4646
aS'the'
p4647
aS'garden'
p4648
asI582
(lp4649
S'Where'
p4650
aS'was'
p4651
aS'the'
p4652
aS'apple'
p4653
aS'before'
p4654
aS'the'
p4655
aS'hallway'
p4656
asI583
(lp4657
S'Where'
p4658
aS'was'
p4659
aS'the'
p4660
aS'apple'
p4661
aS'before'
p4662
aS'the'
p4663
aS'hallway'
p4664
asI584
(lp4665
S'Where'
p4666
aS'was'
p4667
aS'the'
p4668
aS'apple'
p4669
aS'before'
p4670
aS'the'
p4671
aS'garden'
p4672
asI585
(lp4673
S'Where'
p4674
aS'was'
p4675
aS'the'
p4676
aS'milk'
p4677
aS'before'
p4678
aS'the'
p4679
aS'office'
p4680
asI586
(lp4681
S'Where'
p4682
aS'was'
p4683
aS'the'
p4684
aS'apple'
p4685
aS'before'
p4686
aS'the'
p4687
aS'bathroom'
p4688
asI587
(lp4689
S'Where'
p4690
aS'was'
p4691
aS'the'
p4692
aS'apple'
p4693
aS'before'
p4694
aS'the'
p4695
aS'bathroom'
p4696
asI588
(lp4697
S'Where'
p4698
aS'was'
p4699
aS'the'
p4700
aS'apple'
p4701
aS'before'
p4702
aS'the'
p4703
aS'bathroom'
p4704
asI589
(lp4705
S'Where'
p4706
aS'was'
p4707
aS'the'
p4708
aS'apple'
p4709
aS'before'
p4710
aS'the'
p4711
aS'bathroom'
p4712
asI590
(lp4713
S'Where'
p4714
aS'was'
p4715
aS'the'
p4716
aS'milk'
p4717
aS'before'
p4718
aS'the'
p4719
aS'garden'
p4720
asI591
(lp4721
S'Where'
p4722
aS'was'
p4723
aS'the'
p4724
aS'apple'
p4725
aS'before'
p4726
aS'the'
p4727
aS'kitchen'
p4728
asI592
(lp4729
S'Where'
p4730
aS'was'
p4731
aS'the'
p4732
aS'apple'
p4733
aS'before'
p4734
aS'the'
p4735
aS'kitchen'
p4736
asI593
(lp4737
S'Where'
p4738
aS'was'
p4739
aS'the'
p4740
aS'apple'
p4741
aS'before'
p4742
aS'the'
p4743
aS'kitchen'
p4744
asI594
(lp4745
S'Where'
p4746
aS'was'
p4747
aS'the'
p4748
aS'apple'
p4749
aS'before'
p4750
aS'the'
p4751
aS'kitchen'
p4752
asI595
(lp4753
S'Where'
p4754
aS'was'
p4755
aS'the'
p4756
aS'apple'
p4757
aS'before'
p4758
aS'the'
p4759
aS'office'
p4760
asI596
(lp4761
S'Where'
p4762
aS'was'
p4763
aS'the'
p4764
aS'football'
p4765
aS'before'
p4766
aS'the'
p4767
aS'hallway'
p4768
asI597
(lp4769
S'Where'
p4770
aS'was'
p4771
aS'the'
p4772
aS'football'
p4773
aS'before'
p4774
aS'the'
p4775
aS'garden'
p4776
asI598
(lp4777
S'Where'
p4778
aS'was'
p4779
aS'the'
p4780
aS'milk'
p4781
aS'before'
p4782
aS'the'
p4783
aS'hallway'
p4784
asI599
(lp4785
S'Where'
p4786
aS'was'
p4787
aS'the'
p4788
aS'milk'
p4789
aS'before'
p4790
aS'the'
p4791
aS'hallway'
p4792
asI600
(lp4793
S'Where'
p4794
aS'was'
p4795
aS'the'
p4796
aS'milk'
p4797
aS'before'
p4798
aS'the'
p4799
aS'hallway'
p4800
asI601
(lp4801
S'Where'
p4802
aS'was'
p4803
aS'the'
p4804
aS'football'
p4805
aS'before'
p4806
aS'the'
p4807
aS'kitchen'
p4808
asI602
(lp4809
S'Where'
p4810
aS'was'
p4811
aS'the'
p4812
aS'football'
p4813
aS'before'
p4814
aS'the'
p4815
aS'kitchen'
p4816
asI603
(lp4817
S'Where'
p4818
aS'was'
p4819
aS'the'
p4820
aS'football'
p4821
aS'before'
p4822
aS'the'
p4823
aS'kitchen'
p4824
asI604
(lp4825
S'Where'
p4826
aS'was'
p4827
aS'the'
p4828
aS'football'
p4829
aS'before'
p4830
aS'the'
p4831
aS'kitchen'
p4832
asI605
(lp4833
S'Where'
p4834
aS'was'
p4835
aS'the'
p4836
aS'milk'
p4837
aS'before'
p4838
aS'the'
p4839
aS'bedroom'
p4840
asI606
(lp4841
S'Where'
p4842
aS'was'
p4843
aS'the'
p4844
aS'milk'
p4845
aS'before'
p4846
aS'the'
p4847
aS'kitchen'
p4848
asI607
(lp4849
S'Where'
p4850
aS'was'
p4851
aS'the'
p4852
aS'milk'
p4853
aS'before'
p4854
aS'the'
p4855
aS'kitchen'
p4856
asI608
(lp4857
S'Where'
p4858
aS'was'
p4859
aS'the'
p4860
aS'apple'
p4861
aS'before'
p4862
aS'the'
p4863
aS'bathroom'
p4864
asI609
(lp4865
S'Where'
p4866
aS'was'
p4867
aS'the'
p4868
aS'apple'
p4869
aS'before'
p4870
aS'the'
p4871
aS'bathroom'
p4872
asI610
(lp4873
S'Where'
p4874
aS'was'
p4875
aS'the'
p4876
aS'apple'
p4877
aS'before'
p4878
aS'the'
p4879
aS'bedroom'
p4880
asI611
(lp4881
S'Where'
p4882
aS'was'
p4883
aS'the'
p4884
aS'football'
p4885
aS'before'
p4886
aS'the'
p4887
aS'office'
p4888
asI612
(lp4889
S'Where'
p4890
aS'was'
p4891
aS'the'
p4892
aS'football'
p4893
aS'before'
p4894
aS'the'
p4895
aS'office'
p4896
asI613
(lp4897
S'Where'
p4898
aS'was'
p4899
aS'the'
p4900
aS'football'
p4901
aS'before'
p4902
aS'the'
p4903
aS'hallway'
p4904
asI614
(lp4905
S'Where'
p4906
aS'was'
p4907
aS'the'
p4908
aS'football'
p4909
aS'before'
p4910
aS'the'
p4911
aS'office'
p4912
asI615
(lp4913
S'Where'
p4914
aS'was'
p4915
aS'the'
p4916
aS'apple'
p4917
aS'before'
p4918
aS'the'
p4919
aS'office'
p4920
asI616
(lp4921
S'Where'
p4922
aS'was'
p4923
aS'the'
p4924
aS'apple'
p4925
aS'before'
p4926
aS'the'
p4927
aS'hallway'
p4928
asI617
(lp4929
S'Where'
p4930
aS'was'
p4931
aS'the'
p4932
aS'apple'
p4933
aS'before'
p4934
aS'the'
p4935
aS'bathroom'
p4936
asI618
(lp4937
S'Where'
p4938
aS'was'
p4939
aS'the'
p4940
aS'apple'
p4941
aS'before'
p4942
aS'the'
p4943
aS'garden'
p4944
asI619
(lp4945
S'Where'
p4946
aS'was'
p4947
aS'the'
p4948
aS'apple'
p4949
aS'before'
p4950
aS'the'
p4951
aS'garden'
p4952
asI620
(lp4953
S'Where'
p4954
aS'was'
p4955
aS'the'
p4956
aS'apple'
p4957
aS'before'
p4958
aS'the'
p4959
aS'garden'
p4960
asI621
(lp4961
S'Where'
p4962
aS'was'
p4963
aS'the'
p4964
aS'football'
p4965
aS'before'
p4966
aS'the'
p4967
aS'kitchen'
p4968
asI622
(lp4969
S'Where'
p4970
aS'was'
p4971
aS'the'
p4972
aS'football'
p4973
aS'before'
p4974
aS'the'
p4975
aS'kitchen'
p4976
asI623
(lp4977
S'Where'
p4978
aS'was'
p4979
aS'the'
p4980
aS'football'
p4981
aS'before'
p4982
aS'the'
p4983
aS'bathroom'
p4984
asI624
(lp4985
S'Where'
p4986
aS'was'
p4987
aS'the'
p4988
aS'football'
p4989
aS'before'
p4990
aS'the'
p4991
aS'bathroom'
p4992
asI625
(lp4993
S'Where'
p4994
aS'was'
p4995
aS'the'
p4996
aS'football'
p4997
aS'before'
p4998
aS'the'
p4999
aS'hallway'
p5000
asI626
(lp5001
S'Where'
p5002
aS'was'
p5003
aS'the'
p5004
aS'football'
p5005
aS'before'
p5006
aS'the'
p5007
aS'office'
p5008
asI627
(lp5009
S'Where'
p5010
aS'was'
p5011
aS'the'
p5012
aS'milk'
p5013
aS'before'
p5014
aS'the'
p5015
aS'office'
p5016
asI628
(lp5017
S'Where'
p5018
aS'was'
p5019
aS'the'
p5020
aS'milk'
p5021
aS'before'
p5022
aS'the'
p5023
aS'office'
p5024
asI629
(lp5025
S'Where'
p5026
aS'was'
p5027
aS'the'
p5028
aS'milk'
p5029
aS'before'
p5030
aS'the'
p5031
aS'office'
p5032
asI630
(lp5033
S'Where'
p5034
aS'was'
p5035
aS'the'
p5036
aS'apple'
p5037
aS'before'
p5038
aS'the'
p5039
aS'garden'
p5040
asI631
(lp5041
S'Where'
p5042
aS'was'
p5043
aS'the'
p5044
aS'milk'
p5045
aS'before'
p5046
aS'the'
p5047
aS'office'
p5048
asI632
(lp5049
S'Where'
p5050
aS'was'
p5051
aS'the'
p5052
aS'milk'
p5053
aS'before'
p5054
aS'the'
p5055
aS'office'
p5056
asI633
(lp5057
S'Where'
p5058
aS'was'
p5059
aS'the'
p5060
aS'football'
p5061
aS'before'
p5062
aS'the'
p5063
aS'hallway'
p5064
asI634
(lp5065
S'Where'
p5066
aS'was'
p5067
aS'the'
p5068
aS'apple'
p5069
aS'before'
p5070
aS'the'
p5071
aS'bathroom'
p5072
asI635
(lp5073
S'Where'
p5074
aS'was'
p5075
aS'the'
p5076
aS'apple'
p5077
aS'before'
p5078
aS'the'
p5079
aS'bathroom'
p5080
asI636
(lp5081
S'Where'
p5082
aS'was'
p5083
aS'the'
p5084
aS'football'
p5085
aS'before'
p5086
aS'the'
p5087
aS'bathroom'
p5088
asI637
(lp5089
S'Where'
p5090
aS'was'
p5091
aS'the'
p5092
aS'football'
p5093
aS'before'
p5094
aS'the'
p5095
aS'bathroom'
p5096
asI638
(lp5097
S'Where'
p5098
aS'was'
p5099
aS'the'
p5100
aS'football'
p5101
aS'before'
p5102
aS'the'
p5103
aS'bathroom'
p5104
asI639
(lp5105
S'Where'
p5106
aS'was'
p5107
aS'the'
p5108
aS'football'
p5109
aS'before'
p5110
aS'the'
p5111
aS'bathroom'
p5112
asI640
(lp5113
S'Where'
p5114
aS'was'
p5115
aS'the'
p5116
aS'milk'
p5117
aS'before'
p5118
aS'the'
p5119
aS'bedroom'
p5120
asI641
(lp5121
S'Where'
p5122
aS'was'
p5123
aS'the'
p5124
aS'football'
p5125
aS'before'
p5126
aS'the'
p5127
aS'bedroom'
p5128
asI642
(lp5129
S'Where'
p5130
aS'was'
p5131
aS'the'
p5132
aS'football'
p5133
aS'before'
p5134
aS'the'
p5135
aS'hallway'
p5136
asI643
(lp5137
S'Where'
p5138
aS'was'
p5139
aS'the'
p5140
aS'apple'
p5141
aS'before'
p5142
aS'the'
p5143
aS'hallway'
p5144
asI644
(lp5145
S'Where'
p5146
aS'was'
p5147
aS'the'
p5148
aS'apple'
p5149
aS'before'
p5150
aS'the'
p5151
aS'garden'
p5152
asI645
(lp5153
S'Where'
p5154
aS'was'
p5155
aS'the'
p5156
aS'milk'
p5157
aS'before'
p5158
aS'the'
p5159
aS'garden'
p5160
asI646
(lp5161
S'Where'
p5162
aS'was'
p5163
aS'the'
p5164
aS'football'
p5165
aS'before'
p5166
aS'the'
p5167
aS'garden'
p5168
asI647
(lp5169
S'Where'
p5170
aS'was'
p5171
aS'the'
p5172
aS'apple'
p5173
aS'before'
p5174
aS'the'
p5175
aS'kitchen'
p5176
asI648
(lp5177
S'Where'
p5178
aS'was'
p5179
aS'the'
p5180
aS'football'
p5181
aS'before'
p5182
aS'the'
p5183
aS'garden'
p5184
asI649
(lp5185
S'Where'
p5186
aS'was'
p5187
aS'the'
p5188
aS'milk'
p5189
aS'before'
p5190
aS'the'
p5191
aS'kitchen'
p5192
asI650
(lp5193
S'Where'
p5194
aS'was'
p5195
aS'the'
p5196
aS'apple'
p5197
aS'before'
p5198
aS'the'
p5199
aS'office'
p5200
asI651
(lp5201
S'Where'
p5202
aS'was'
p5203
aS'the'
p5204
aS'apple'
p5205
aS'before'
p5206
aS'the'
p5207
aS'hallway'
p5208
asI652
(lp5209
S'Where'
p5210
aS'was'
p5211
aS'the'
p5212
aS'apple'
p5213
aS'before'
p5214
aS'the'
p5215
aS'hallway'
p5216
asI653
(lp5217
S'Where'
p5218
aS'was'
p5219
aS'the'
p5220
aS'football'
p5221
aS'before'
p5222
aS'the'
p5223
aS'garden'
p5224
asI654
(lp5225
S'Where'
p5226
aS'was'
p5227
aS'the'
p5228
aS'apple'
p5229
aS'before'
p5230
aS'the'
p5231
aS'bathroom'
p5232
asI655
(lp5233
S'Where'
p5234
aS'was'
p5235
aS'the'
p5236
aS'apple'
p5237
aS'before'
p5238
aS'the'
p5239
aS'bathroom'
p5240
asI656
(lp5241
S'Where'
p5242
aS'was'
p5243
aS'the'
p5244
aS'football'
p5245
aS'before'
p5246
aS'the'
p5247
aS'bathroom'
p5248
asI657
(lp5249
S'Where'
p5250
aS'was'
p5251
aS'the'
p5252
aS'milk'
p5253
aS'before'
p5254
aS'the'
p5255
aS'office'
p5256
asI658
(lp5257
S'Where'
p5258
aS'was'
p5259
aS'the'
p5260
aS'milk'
p5261
aS'before'
p5262
aS'the'
p5263
aS'office'
p5264
asI659
(lp5265
S'Where'
p5266
aS'was'
p5267
aS'the'
p5268
aS'milk'
p5269
aS'before'
p5270
aS'the'
p5271
aS'office'
p5272
asI660
(lp5273
S'Where'
p5274
aS'was'
p5275
aS'the'
p5276
aS'milk'
p5277
aS'before'
p5278
aS'the'
p5279
aS'hallway'
p5280
asI661
(lp5281
S'Where'
p5282
aS'was'
p5283
aS'the'
p5284
aS'apple'
p5285
aS'before'
p5286
aS'the'
p5287
aS'bedroom'
p5288
asI662
(lp5289
S'Where'
p5290
aS'was'
p5291
aS'the'
p5292
aS'apple'
p5293
aS'before'
p5294
aS'the'
p5295
aS'bedroom'
p5296
asI663
(lp5297
S'Where'
p5298
aS'was'
p5299
aS'the'
p5300
aS'apple'
p5301
aS'before'
p5302
aS'the'
p5303
aS'bedroom'
p5304
asI664
(lp5305
S'Where'
p5306
aS'was'
p5307
aS'the'
p5308
aS'apple'
p5309
aS'before'
p5310
aS'the'
p5311
aS'kitchen'
p5312
asI665
(lp5313
S'Where'
p5314
aS'was'
p5315
aS'the'
p5316
aS'apple'
p5317
aS'before'
p5318
aS'the'
p5319
aS'kitchen'
p5320
asI666
(lp5321
S'Where'
p5322
aS'was'
p5323
aS'the'
p5324
aS'apple'
p5325
aS'before'
p5326
aS'the'
p5327
aS'garden'
p5328
asI667
(lp5329
S'Where'
p5330
aS'was'
p5331
aS'the'
p5332
aS'apple'
p5333
aS'before'
p5334
aS'the'
p5335
aS'garden'
p5336
asI668
(lp5337
S'Where'
p5338
aS'was'
p5339
aS'the'
p5340
aS'milk'
p5341
aS'before'
p5342
aS'the'
p5343
aS'bathroom'
p5344
asI669
(lp5345
S'Where'
p5346
aS'was'
p5347
aS'the'
p5348
aS'milk'
p5349
aS'before'
p5350
aS'the'
p5351
aS'bathroom'
p5352
asI670
(lp5353
S'Where'
p5354
aS'was'
p5355
aS'the'
p5356
aS'milk'
p5357
aS'before'
p5358
aS'the'
p5359
aS'bathroom'
p5360
asI671
(lp5361
S'Where'
p5362
aS'was'
p5363
aS'the'
p5364
aS'apple'
p5365
aS'before'
p5366
aS'the'
p5367
aS'bedroom'
p5368
asI672
(lp5369
S'Where'
p5370
aS'was'
p5371
aS'the'
p5372
aS'milk'
p5373
aS'before'
p5374
aS'the'
p5375
aS'garden'
p5376
asI673
(lp5377
S'Where'
p5378
aS'was'
p5379
aS'the'
p5380
aS'apple'
p5381
aS'before'
p5382
aS'the'
p5383
aS'kitchen'
p5384
asI674
(lp5385
S'Where'
p5386
aS'was'
p5387
aS'the'
p5388
aS'apple'
p5389
aS'before'
p5390
aS'the'
p5391
aS'kitchen'
p5392
asI675
(lp5393
S'Where'
p5394
aS'was'
p5395
aS'the'
p5396
aS'milk'
p5397
aS'before'
p5398
aS'the'
p5399
aS'kitchen'
p5400
asI676
(lp5401
S'Where'
p5402
aS'was'
p5403
aS'the'
p5404
aS'apple'
p5405
aS'before'
p5406
aS'the'
p5407
aS'office'
p5408
asI677
(lp5409
S'Where'
p5410
aS'was'
p5411
aS'the'
p5412
aS'football'
p5413
aS'before'
p5414
aS'the'
p5415
aS'bedroom'
p5416
asI678
(lp5417
S'Where'
p5418
aS'was'
p5419
aS'the'
p5420
aS'football'
p5421
aS'before'
p5422
aS'the'
p5423
aS'office'
p5424
asI679
(lp5425
S'Where'
p5426
aS'was'
p5427
aS'the'
p5428
aS'apple'
p5429
aS'before'
p5430
aS'the'
p5431
aS'garden'
p5432
asI680
(lp5433
S'Where'
p5434
aS'was'
p5435
aS'the'
p5436
aS'apple'
p5437
aS'before'
p5438
aS'the'
p5439
aS'garden'
p5440
asI681
(lp5441
S'Where'
p5442
aS'was'
p5443
aS'the'
p5444
aS'football'
p5445
aS'before'
p5446
aS'the'
p5447
aS'office'
p5448
asI682
(lp5449
S'Where'
p5450
aS'was'
p5451
aS'the'
p5452
aS'football'
p5453
aS'before'
p5454
aS'the'
p5455
aS'office'
p5456
asI683
(lp5457
S'Where'
p5458
aS'was'
p5459
aS'the'
p5460
aS'football'
p5461
aS'before'
p5462
aS'the'
p5463
aS'office'
p5464
asI684
(lp5465
S'Where'
p5466
aS'was'
p5467
aS'the'
p5468
aS'apple'
p5469
aS'before'
p5470
aS'the'
p5471
aS'bedroom'
p5472
asI685
(lp5473
S'Where'
p5474
aS'was'
p5475
aS'the'
p5476
aS'apple'
p5477
aS'before'
p5478
aS'the'
p5479
aS'garden'
p5480
asI686
(lp5481
S'Where'
p5482
aS'was'
p5483
aS'the'
p5484
aS'apple'
p5485
aS'before'
p5486
aS'the'
p5487
aS'bedroom'
p5488
asI687
(lp5489
S'Where'
p5490
aS'was'
p5491
aS'the'
p5492
aS'apple'
p5493
aS'before'
p5494
aS'the'
p5495
aS'bedroom'
p5496
asI688
(lp5497
S'Where'
p5498
aS'was'
p5499
aS'the'
p5500
aS'apple'
p5501
aS'before'
p5502
aS'the'
p5503
aS'bedroom'
p5504
asI689
(lp5505
S'Where'
p5506
aS'was'
p5507
aS'the'
p5508
aS'apple'
p5509
aS'before'
p5510
aS'the'
p5511
aS'bedroom'
p5512
asI690
(lp5513
S'Where'
p5514
aS'was'
p5515
aS'the'
p5516
aS'apple'
p5517
aS'before'
p5518
aS'the'
p5519
aS'bedroom'
p5520
asI691
(lp5521
S'Where'
p5522
aS'was'
p5523
aS'the'
p5524
aS'milk'
p5525
aS'before'
p5526
aS'the'
p5527
aS'garden'
p5528
asI692
(lp5529
S'Where'
p5530
aS'was'
p5531
aS'the'
p5532
aS'milk'
p5533
aS'before'
p5534
aS'the'
p5535
aS'garden'
p5536
asI693
(lp5537
S'Where'
p5538
aS'was'
p5539
aS'the'
p5540
aS'milk'
p5541
aS'before'
p5542
aS'the'
p5543
aS'garden'
p5544
asI694
(lp5545
S'Where'
p5546
aS'was'
p5547
aS'the'
p5548
aS'milk'
p5549
aS'before'
p5550
aS'the'
p5551
aS'garden'
p5552
asI695
(lp5553
S'Where'
p5554
aS'was'
p5555
aS'the'
p5556
aS'milk'
p5557
aS'before'
p5558
aS'the'
p5559
aS'kitchen'
p5560
asI696
(lp5561
S'Where'
p5562
aS'was'
p5563
aS'the'
p5564
aS'milk'
p5565
aS'before'
p5566
aS'the'
p5567
aS'hallway'
p5568
asI697
(lp5569
S'Where'
p5570
aS'was'
p5571
aS'the'
p5572
aS'milk'
p5573
aS'before'
p5574
aS'the'
p5575
aS'hallway'
p5576
asI698
(lp5577
S'Where'
p5578
aS'was'
p5579
aS'the'
p5580
aS'football'
p5581
aS'before'
p5582
aS'the'
p5583
aS'hallway'
p5584
asI699
(lp5585
S'Where'
p5586
aS'was'
p5587
aS'the'
p5588
aS'football'
p5589
aS'before'
p5590
aS'the'
p5591
aS'garden'
p5592
asI700
(lp5593
S'Where'
p5594
aS'was'
p5595
aS'the'
p5596
aS'football'
p5597
aS'before'
p5598
aS'the'
p5599
aS'garden'
p5600
asI701
(lp5601
S'Where'
p5602
aS'was'
p5603
aS'the'
p5604
aS'milk'
p5605
aS'before'
p5606
aS'the'
p5607
aS'bedroom'
p5608
asI702
(lp5609
S'Where'
p5610
aS'was'
p5611
aS'the'
p5612
aS'milk'
p5613
aS'before'
p5614
aS'the'
p5615
aS'bedroom'
p5616
asI703
(lp5617
S'Where'
p5618
aS'was'
p5619
aS'the'
p5620
aS'milk'
p5621
aS'before'
p5622
aS'the'
p5623
aS'bedroom'
p5624
asI704
(lp5625
S'Where'
p5626
aS'was'
p5627
aS'the'
p5628
aS'milk'
p5629
aS'before'
p5630
aS'the'
p5631
aS'bedroom'
p5632
asI705
(lp5633
S'Where'
p5634
aS'was'
p5635
aS'the'
p5636
aS'apple'
p5637
aS'before'
p5638
aS'the'
p5639
aS'garden'
p5640
asI706
(lp5641
S'Where'
p5642
aS'was'
p5643
aS'the'
p5644
aS'apple'
p5645
aS'before'
p5646
aS'the'
p5647
aS'office'
p5648
asI707
(lp5649
S'Where'
p5650
aS'was'
p5651
aS'the'
p5652
aS'apple'
p5653
aS'before'
p5654
aS'the'
p5655
aS'office'
p5656
asI708
(lp5657
S'Where'
p5658
aS'was'
p5659
aS'the'
p5660
aS'milk'
p5661
aS'before'
p5662
aS'the'
p5663
aS'bedroom'
p5664
asI709
(lp5665
S'Where'
p5666
aS'was'
p5667
aS'the'
p5668
aS'milk'
p5669
aS'before'
p5670
aS'the'
p5671
aS'kitchen'
p5672
asI710
(lp5673
S'Where'
p5674
aS'was'
p5675
aS'the'
p5676
aS'milk'
p5677
aS'before'
p5678
aS'the'
p5679
aS'kitchen'
p5680
asI711
(lp5681
S'Where'
p5682
aS'was'
p5683
aS'the'
p5684
aS'milk'
p5685
aS'before'
p5686
aS'the'
p5687
aS'kitchen'
p5688
asI712
(lp5689
S'Where'
p5690
aS'was'
p5691
aS'the'
p5692
aS'milk'
p5693
aS'before'
p5694
aS'the'
p5695
aS'kitchen'
p5696
asI713
(lp5697
S'Where'
p5698
aS'was'
p5699
aS'the'
p5700
aS'apple'
p5701
aS'before'
p5702
aS'the'
p5703
aS'bedroom'
p5704
asI714
(lp5705
S'Where'
p5706
aS'was'
p5707
aS'the'
p5708
aS'apple'
p5709
aS'before'
p5710
aS'the'
p5711
aS'bedroom'
p5712
asI715
(lp5713
S'Where'
p5714
aS'was'
p5715
aS'the'
p5716
aS'apple'
p5717
aS'before'
p5718
aS'the'
p5719
aS'bedroom'
p5720
asI716
(lp5721
S'Where'
p5722
aS'was'
p5723
aS'the'
p5724
aS'apple'
p5725
aS'before'
p5726
aS'the'
p5727
aS'office'
p5728
asI717
(lp5729
S'Where'
p5730
aS'was'
p5731
aS'the'
p5732
aS'milk'
p5733
aS'before'
p5734
aS'the'
p5735
aS'bathroom'
p5736
asI718
(lp5737
S'Where'
p5738
aS'was'
p5739
aS'the'
p5740
aS'milk'
p5741
aS'before'
p5742
aS'the'
p5743
aS'bathroom'
p5744
asI719
(lp5745
S'Where'
p5746
aS'was'
p5747
aS'the'
p5748
aS'milk'
p5749
aS'before'
p5750
aS'the'
p5751
aS'bathroom'
p5752
asI720
(lp5753
S'Where'
p5754
aS'was'
p5755
aS'the'
p5756
aS'apple'
p5757
aS'before'
p5758
aS'the'
p5759
aS'bedroom'
p5760
asI721
(lp5761
S'Where'
p5762
aS'was'
p5763
aS'the'
p5764
aS'football'
p5765
aS'before'
p5766
aS'the'
p5767
aS'hallway'
p5768
asI722
(lp5769
S'Where'
p5770
aS'was'
p5771
aS'the'
p5772
aS'football'
p5773
aS'before'
p5774
aS'the'
p5775
aS'hallway'
p5776
asI723
(lp5777
S'Where'
p5778
aS'was'
p5779
aS'the'
p5780
aS'football'
p5781
aS'before'
p5782
aS'the'
p5783
aS'bedroom'
p5784
asI724
(lp5785
S'Where'
p5786
aS'was'
p5787
aS'the'
p5788
aS'apple'
p5789
aS'before'
p5790
aS'the'
p5791
aS'hallway'
p5792
asI725
(lp5793
S'Where'
p5794
aS'was'
p5795
aS'the'
p5796
aS'apple'
p5797
aS'before'
p5798
aS'the'
p5799
aS'bedroom'
p5800
asI726
(lp5801
S'Where'
p5802
aS'was'
p5803
aS'the'
p5804
aS'milk'
p5805
aS'before'
p5806
aS'the'
p5807
aS'kitchen'
p5808
asI727
(lp5809
S'Where'
p5810
aS'was'
p5811
aS'the'
p5812
aS'milk'
p5813
aS'before'
p5814
aS'the'
p5815
aS'kitchen'
p5816
asI728
(lp5817
S'Where'
p5818
aS'was'
p5819
aS'the'
p5820
aS'milk'
p5821
aS'before'
p5822
aS'the'
p5823
aS'kitchen'
p5824
asI729
(lp5825
S'Where'
p5826
aS'was'
p5827
aS'the'
p5828
aS'milk'
p5829
aS'before'
p5830
aS'the'
p5831
aS'garden'
p5832
asI730
(lp5833
S'Where'
p5834
aS'was'
p5835
aS'the'
p5836
aS'milk'
p5837
aS'before'
p5838
aS'the'
p5839
aS'garden'
p5840
asI731
(lp5841
S'Where'
p5842
aS'was'
p5843
aS'the'
p5844
aS'football'
p5845
aS'before'
p5846
aS'the'
p5847
aS'garden'
p5848
asI732
(lp5849
S'Where'
p5850
aS'was'
p5851
aS'the'
p5852
aS'football'
p5853
aS'before'
p5854
aS'the'
p5855
aS'garden'
p5856
asI733
(lp5857
S'Where'
p5858
aS'was'
p5859
aS'the'
p5860
aS'apple'
p5861
aS'before'
p5862
aS'the'
p5863
aS'hallway'
p5864
asI734
(lp5865
S'Where'
p5866
aS'was'
p5867
aS'the'
p5868
aS'apple'
p5869
aS'before'
p5870
aS'the'
p5871
aS'kitchen'
p5872
asI735
(lp5873
S'Where'
p5874
aS'was'
p5875
aS'the'
p5876
aS'milk'
p5877
aS'before'
p5878
aS'the'
p5879
aS'bedroom'
p5880
asI736
(lp5881
S'Where'
p5882
aS'was'
p5883
aS'the'
p5884
aS'milk'
p5885
aS'before'
p5886
aS'the'
p5887
aS'office'
p5888
asI737
(lp5889
S'Where'
p5890
aS'was'
p5891
aS'the'
p5892
aS'football'
p5893
aS'before'
p5894
aS'the'
p5895
aS'garden'
p5896
asI738
(lp5897
S'Where'
p5898
aS'was'
p5899
aS'the'
p5900
aS'football'
p5901
aS'before'
p5902
aS'the'
p5903
aS'garden'
p5904
asI739
(lp5905
S'Where'
p5906
aS'was'
p5907
aS'the'
p5908
aS'football'
p5909
aS'before'
p5910
aS'the'
p5911
aS'hallway'
p5912
asI740
(lp5913
S'Where'
p5914
aS'was'
p5915
aS'the'
p5916
aS'football'
p5917
aS'before'
p5918
aS'the'
p5919
aS'kitchen'
p5920
asI741
(lp5921
S'Where'
p5922
aS'was'
p5923
aS'the'
p5924
aS'milk'
p5925
aS'before'
p5926
aS'the'
p5927
aS'office'
p5928
asI742
(lp5929
S'Where'
p5930
aS'was'
p5931
aS'the'
p5932
aS'milk'
p5933
aS'before'
p5934
aS'the'
p5935
aS'office'
p5936
asI743
(lp5937
S'Where'
p5938
aS'was'
p5939
aS'the'
p5940
aS'milk'
p5941
aS'before'
p5942
aS'the'
p5943
aS'bedroom'
p5944
asI744
(lp5945
S'Where'
p5946
aS'was'
p5947
aS'the'
p5948
aS'milk'
p5949
aS'before'
p5950
aS'the'
p5951
aS'bedroom'
p5952
asI745
(lp5953
S'Where'
p5954
aS'was'
p5955
aS'the'
p5956
aS'milk'
p5957
aS'before'
p5958
aS'the'
p5959
aS'bedroom'
p5960
asI746
(lp5961
S'Where'
p5962
aS'was'
p5963
aS'the'
p5964
aS'milk'
p5965
aS'before'
p5966
aS'the'
p5967
aS'kitchen'
p5968
asI747
(lp5969
S'Where'
p5970
aS'was'
p5971
aS'the'
p5972
aS'milk'
p5973
aS'before'
p5974
aS'the'
p5975
aS'kitchen'
p5976
asI748
(lp5977
S'Where'
p5978
aS'was'
p5979
aS'the'
p5980
aS'football'
p5981
aS'before'
p5982
aS'the'
p5983
aS'bedroom'
p5984
asI749
(lp5985
S'Where'
p5986
aS'was'
p5987
aS'the'
p5988
aS'football'
p5989
aS'before'
p5990
aS'the'
p5991
aS'garden'
p5992
asI750
(lp5993
S'Where'
p5994
aS'was'
p5995
aS'the'
p5996
aS'football'
p5997
aS'before'
p5998
aS'the'
p5999
aS'garden'
p6000
asI751
(lp6001
S'Where'
p6002
aS'was'
p6003
aS'the'
p6004
aS'football'
p6005
aS'before'
p6006
aS'the'
p6007
aS'hallway'
p6008
asI752
(lp6009
S'Where'
p6010
aS'was'
p6011
aS'the'
p6012
aS'football'
p6013
aS'before'
p6014
aS'the'
p6015
aS'hallway'
p6016
asI753
(lp6017
S'Where'
p6018
aS'was'
p6019
aS'the'
p6020
aS'football'
p6021
aS'before'
p6022
aS'the'
p6023
aS'garden'
p6024
asI754
(lp6025
S'Where'
p6026
aS'was'
p6027
aS'the'
p6028
aS'apple'
p6029
aS'before'
p6030
aS'the'
p6031
aS'bathroom'
p6032
asI755
(lp6033
S'Where'
p6034
aS'was'
p6035
aS'the'
p6036
aS'football'
p6037
aS'before'
p6038
aS'the'
p6039
aS'garden'
p6040
asI756
(lp6041
S'Where'
p6042
aS'was'
p6043
aS'the'
p6044
aS'milk'
p6045
aS'before'
p6046
aS'the'
p6047
aS'kitchen'
p6048
asI757
(lp6049
S'Where'
p6050
aS'was'
p6051
aS'the'
p6052
aS'milk'
p6053
aS'before'
p6054
aS'the'
p6055
aS'kitchen'
p6056
asI758
(lp6057
S'Where'
p6058
aS'was'
p6059
aS'the'
p6060
aS'milk'
p6061
aS'before'
p6062
aS'the'
p6063
aS'kitchen'
p6064
asI759
(lp6065
S'Where'
p6066
aS'was'
p6067
aS'the'
p6068
aS'milk'
p6069
aS'before'
p6070
aS'the'
p6071
aS'bathroom'
p6072
asI760
(lp6073
S'Where'
p6074
aS'was'
p6075
aS'the'
p6076
aS'milk'
p6077
aS'before'
p6078
aS'the'
p6079
aS'bathroom'
p6080
asI761
(lp6081
S'Where'
p6082
aS'was'
p6083
aS'the'
p6084
aS'milk'
p6085
aS'before'
p6086
aS'the'
p6087
aS'bathroom'
p6088
asI762
(lp6089
S'Where'
p6090
aS'was'
p6091
aS'the'
p6092
aS'milk'
p6093
aS'before'
p6094
aS'the'
p6095
aS'bedroom'
p6096
asI763
(lp6097
S'Where'
p6098
aS'was'
p6099
aS'the'
p6100
aS'milk'
p6101
aS'before'
p6102
aS'the'
p6103
aS'bathroom'
p6104
asI764
(lp6105
S'Where'
p6106
aS'was'
p6107
aS'the'
p6108
aS'football'
p6109
aS'before'
p6110
aS'the'
p6111
aS'bathroom'
p6112
asI765
(lp6113
S'Where'
p6114
aS'was'
p6115
aS'the'
p6116
aS'football'
p6117
aS'before'
p6118
aS'the'
p6119
aS'hallway'
p6120
asI766
(lp6121
S'Where'
p6122
aS'was'
p6123
aS'the'
p6124
aS'football'
p6125
aS'before'
p6126
aS'the'
p6127
aS'garden'
p6128
asI767
(lp6129
S'Where'
p6130
aS'was'
p6131
aS'the'
p6132
aS'football'
p6133
aS'before'
p6134
aS'the'
p6135
aS'garden'
p6136
asI768
(lp6137
S'Where'
p6138
aS'was'
p6139
aS'the'
p6140
aS'football'
p6141
aS'before'
p6142
aS'the'
p6143
aS'kitchen'
p6144
asI769
(lp6145
S'Where'
p6146
aS'was'
p6147
aS'the'
p6148
aS'milk'
p6149
aS'before'
p6150
aS'the'
p6151
aS'bathroom'
p6152
asI770
(lp6153
S'Where'
p6154
aS'was'
p6155
aS'the'
p6156
aS'milk'
p6157
aS'before'
p6158
aS'the'
p6159
aS'bathroom'
p6160
asI771
(lp6161
S'Where'
p6162
aS'was'
p6163
aS'the'
p6164
aS'apple'
p6165
aS'before'
p6166
aS'the'
p6167
aS'bathroom'
p6168
asI772
(lp6169
S'Where'
p6170
aS'was'
p6171
aS'the'
p6172
aS'apple'
p6173
aS'before'
p6174
aS'the'
p6175
aS'bathroom'
p6176
asI773
(lp6177
S'Where'
p6178
aS'was'
p6179
aS'the'
p6180
aS'apple'
p6181
aS'before'
p6182
aS'the'
p6183
aS'bathroom'
p6184
asI774
(lp6185
S'Where'
p6186
aS'was'
p6187
aS'the'
p6188
aS'football'
p6189
aS'before'
p6190
aS'the'
p6191
aS'office'
p6192
asI775
(lp6193
S'Where'
p6194
aS'was'
p6195
aS'the'
p6196
aS'football'
p6197
aS'before'
p6198
aS'the'
p6199
aS'office'
p6200
asI776
(lp6201
S'Where'
p6202
aS'was'
p6203
aS'the'
p6204
aS'football'
p6205
aS'before'
p6206
aS'the'
p6207
aS'kitchen'
p6208
asI777
(lp6209
S'Where'
p6210
aS'was'
p6211
aS'the'
p6212
aS'football'
p6213
aS'before'
p6214
aS'the'
p6215
aS'kitchen'
p6216
asI778
(lp6217
S'Where'
p6218
aS'was'
p6219
aS'the'
p6220
aS'apple'
p6221
aS'before'
p6222
aS'the'
p6223
aS'bedroom'
p6224
asI779
(lp6225
S'Where'
p6226
aS'was'
p6227
aS'the'
p6228
aS'apple'
p6229
aS'before'
p6230
aS'the'
p6231
aS'kitchen'
p6232
asI780
(lp6233
S'Where'
p6234
aS'was'
p6235
aS'the'
p6236
aS'football'
p6237
aS'before'
p6238
aS'the'
p6239
aS'garden'
p6240
asI781
(lp6241
S'Where'
p6242
aS'was'
p6243
aS'the'
p6244
aS'football'
p6245
aS'before'
p6246
aS'the'
p6247
aS'office'
p6248
asI782
(lp6249
S'Where'
p6250
aS'was'
p6251
aS'the'
p6252
aS'football'
p6253
aS'before'
p6254
aS'the'
p6255
aS'office'
p6256
asI783
(lp6257
S'Where'
p6258
aS'was'
p6259
aS'the'
p6260
aS'football'
p6261
aS'before'
p6262
aS'the'
p6263
aS'office'
p6264
asI784
(lp6265
S'Where'
p6266
aS'was'
p6267
aS'the'
p6268
aS'milk'
p6269
aS'before'
p6270
aS'the'
p6271
aS'bathroom'
p6272
asI785
(lp6273
S'Where'
p6274
aS'was'
p6275
aS'the'
p6276
aS'milk'
p6277
aS'before'
p6278
aS'the'
p6279
aS'bathroom'
p6280
asI786
(lp6281
S'Where'
p6282
aS'was'
p6283
aS'the'
p6284
aS'milk'
p6285
aS'before'
p6286
aS'the'
p6287
aS'garden'
p6288
asI787
(lp6289
S'Where'
p6290
aS'was'
p6291
aS'the'
p6292
aS'milk'
p6293
aS'before'
p6294
aS'the'
p6295
aS'garden'
p6296
asI788
(lp6297
S'Where'
p6298
aS'was'
p6299
aS'the'
p6300
aS'apple'
p6301
aS'before'
p6302
aS'the'
p6303
aS'garden'
p6304
asI789
(lp6305
S'Where'
p6306
aS'was'
p6307
aS'the'
p6308
aS'apple'
p6309
aS'before'
p6310
aS'the'
p6311
aS'garden'
p6312
asI790
(lp6313
S'Where'
p6314
aS'was'
p6315
aS'the'
p6316
aS'apple'
p6317
aS'before'
p6318
aS'the'
p6319
aS'bathroom'
p6320
asI791
(lp6321
S'Where'
p6322
aS'was'
p6323
aS'the'
p6324
aS'apple'
p6325
aS'before'
p6326
aS'the'
p6327
aS'garden'
p6328
asI792
(lp6329
S'Where'
p6330
aS'was'
p6331
aS'the'
p6332
aS'apple'
p6333
aS'before'
p6334
aS'the'
p6335
aS'garden'
p6336
asI793
(lp6337
S'Where'
p6338
aS'was'
p6339
aS'the'
p6340
aS'football'
p6341
aS'before'
p6342
aS'the'
p6343
aS'bedroom'
p6344
asI794
(lp6345
S'Where'
p6346
aS'was'
p6347
aS'the'
p6348
aS'football'
p6349
aS'before'
p6350
aS'the'
p6351
aS'bedroom'
p6352
asI795
(lp6353
S'Where'
p6354
aS'was'
p6355
aS'the'
p6356
aS'football'
p6357
aS'before'
p6358
aS'the'
p6359
aS'bedroom'
p6360
asI796
(lp6361
S'Where'
p6362
aS'was'
p6363
aS'the'
p6364
aS'apple'
p6365
aS'before'
p6366
aS'the'
p6367
aS'bedroom'
p6368
asI797
(lp6369
S'Where'
p6370
aS'was'
p6371
aS'the'
p6372
aS'apple'
p6373
aS'before'
p6374
aS'the'
p6375
aS'bedroom'
p6376
asI798
(lp6377
S'Where'
p6378
aS'was'
p6379
aS'the'
p6380
aS'football'
p6381
aS'before'
p6382
aS'the'
p6383
aS'bathroom'
p6384
asI799
(lp6385
S'Where'
p6386
aS'was'
p6387
aS'the'
p6388
aS'football'
p6389
aS'before'
p6390
aS'the'
p6391
aS'kitchen'
p6392
asI800
(lp6393
S'Where'
p6394
aS'was'
p6395
aS'the'
p6396
aS'football'
p6397
aS'before'
p6398
aS'the'
p6399
aS'garden'
p6400
asI801
(lp6401
S'Where'
p6402
aS'was'
p6403
aS'the'
p6404
aS'apple'
p6405
aS'before'
p6406
aS'the'
p6407
aS'office'
p6408
asI802
(lp6409
S'Where'
p6410
aS'was'
p6411
aS'the'
p6412
aS'apple'
p6413
aS'before'
p6414
aS'the'
p6415
aS'kitchen'
p6416
asI803
(lp6417
S'Where'
p6418
aS'was'
p6419
aS'the'
p6420
aS'apple'
p6421
aS'before'
p6422
aS'the'
p6423
aS'office'
p6424
asI804
(lp6425
S'Where'
p6426
aS'was'
p6427
aS'the'
p6428
aS'football'
p6429
aS'before'
p6430
aS'the'
p6431
aS'office'
p6432
asI805
(lp6433
S'Where'
p6434
aS'was'
p6435
aS'the'
p6436
aS'football'
p6437
aS'before'
p6438
aS'the'
p6439
aS'bathroom'
p6440
asI806
(lp6441
S'Where'
p6442
aS'was'
p6443
aS'the'
p6444
aS'milk'
p6445
aS'before'
p6446
aS'the'
p6447
aS'office'
p6448
asI807
(lp6449
S'Where'
p6450
aS'was'
p6451
aS'the'
p6452
aS'milk'
p6453
aS'before'
p6454
aS'the'
p6455
aS'office'
p6456
asI808
(lp6457
S'Where'
p6458
aS'was'
p6459
aS'the'
p6460
aS'football'
p6461
aS'before'
p6462
aS'the'
p6463
aS'office'
p6464
asI809
(lp6465
S'Where'
p6466
aS'was'
p6467
aS'the'
p6468
aS'milk'
p6469
aS'before'
p6470
aS'the'
p6471
aS'hallway'
p6472
asI810
(lp6473
S'Where'
p6474
aS'was'
p6475
aS'the'
p6476
aS'milk'
p6477
aS'before'
p6478
aS'the'
p6479
aS'hallway'
p6480
asI811
(lp6481
S'Where'
p6482
aS'was'
p6483
aS'the'
p6484
aS'football'
p6485
aS'before'
p6486
aS'the'
p6487
aS'office'
p6488
asI812
(lp6489
S'Where'
p6490
aS'was'
p6491
aS'the'
p6492
aS'football'
p6493
aS'before'
p6494
aS'the'
p6495
aS'office'
p6496
asI813
(lp6497
S'Where'
p6498
aS'was'
p6499
aS'the'
p6500
aS'football'
p6501
aS'before'
p6502
aS'the'
p6503
aS'office'
p6504
asI814
(lp6505
S'Where'
p6506
aS'was'
p6507
aS'the'
p6508
aS'football'
p6509
aS'before'
p6510
aS'the'
p6511
aS'garden'
p6512
asI815
(lp6513
S'Where'
p6514
aS'was'
p6515
aS'the'
p6516
aS'apple'
p6517
aS'before'
p6518
aS'the'
p6519
aS'office'
p6520
asI816
(lp6521
S'Where'
p6522
aS'was'
p6523
aS'the'
p6524
aS'apple'
p6525
aS'before'
p6526
aS'the'
p6527
aS'kitchen'
p6528
asI817
(lp6529
S'Where'
p6530
aS'was'
p6531
aS'the'
p6532
aS'milk'
p6533
aS'before'
p6534
aS'the'
p6535
aS'bedroom'
p6536
asI818
(lp6537
S'Where'
p6538
aS'was'
p6539
aS'the'
p6540
aS'apple'
p6541
aS'before'
p6542
aS'the'
p6543
aS'hallway'
p6544
asI819
(lp6545
S'Where'
p6546
aS'was'
p6547
aS'the'
p6548
aS'football'
p6549
aS'before'
p6550
aS'the'
p6551
aS'kitchen'
p6552
asI820
(lp6553
S'Where'
p6554
aS'was'
p6555
aS'the'
p6556
aS'football'
p6557
aS'before'
p6558
aS'the'
p6559
aS'garden'
p6560
asI821
(lp6561
S'Where'
p6562
aS'was'
p6563
aS'the'
p6564
aS'football'
p6565
aS'before'
p6566
aS'the'
p6567
aS'bedroom'
p6568
asI822
(lp6569
S'Where'
p6570
aS'was'
p6571
aS'the'
p6572
aS'football'
p6573
aS'before'
p6574
aS'the'
p6575
aS'bedroom'
p6576
asI823
(lp6577
S'Where'
p6578
aS'was'
p6579
aS'the'
p6580
aS'football'
p6581
aS'before'
p6582
aS'the'
p6583
aS'bedroom'
p6584
asI824
(lp6585
S'Where'
p6586
aS'was'
p6587
aS'the'
p6588
aS'apple'
p6589
aS'before'
p6590
aS'the'
p6591
aS'garden'
p6592
asI825
(lp6593
S'Where'
p6594
aS'was'
p6595
aS'the'
p6596
aS'apple'
p6597
aS'before'
p6598
aS'the'
p6599
aS'kitchen'
p6600
asI826
(lp6601
S'Where'
p6602
aS'was'
p6603
aS'the'
p6604
aS'apple'
p6605
aS'before'
p6606
aS'the'
p6607
aS'office'
p6608
asI827
(lp6609
S'Where'
p6610
aS'was'
p6611
aS'the'
p6612
aS'apple'
p6613
aS'before'
p6614
aS'the'
p6615
aS'garden'
p6616
asI828
(lp6617
S'Where'
p6618
aS'was'
p6619
aS'the'
p6620
aS'apple'
p6621
aS'before'
p6622
aS'the'
p6623
aS'garden'
p6624
asI829
(lp6625
S'Where'
p6626
aS'was'
p6627
aS'the'
p6628
aS'apple'
p6629
aS'before'
p6630
aS'the'
p6631
aS'garden'
p6632
asI830
(lp6633
S'Where'
p6634
aS'was'
p6635
aS'the'
p6636
aS'milk'
p6637
aS'before'
p6638
aS'the'
p6639
aS'bedroom'
p6640
asI831
(lp6641
S'Where'
p6642
aS'was'
p6643
aS'the'
p6644
aS'apple'
p6645
aS'before'
p6646
aS'the'
p6647
aS'office'
p6648
asI832
(lp6649
S'Where'
p6650
aS'was'
p6651
aS'the'
p6652
aS'apple'
p6653
aS'before'
p6654
aS'the'
p6655
aS'office'
p6656
asI833
(lp6657
S'Where'
p6658
aS'was'
p6659
aS'the'
p6660
aS'apple'
p6661
aS'before'
p6662
aS'the'
p6663
aS'office'
p6664
asI834
(lp6665
S'Where'
p6666
aS'was'
p6667
aS'the'
p6668
aS'football'
p6669
aS'before'
p6670
aS'the'
p6671
aS'kitchen'
p6672
asI835
(lp6673
S'Where'
p6674
aS'was'
p6675
aS'the'
p6676
aS'football'
p6677
aS'before'
p6678
aS'the'
p6679
aS'kitchen'
p6680
asI836
(lp6681
S'Where'
p6682
aS'was'
p6683
aS'the'
p6684
aS'apple'
p6685
aS'before'
p6686
aS'the'
p6687
aS'kitchen'
p6688
asI837
(lp6689
S'Where'
p6690
aS'was'
p6691
aS'the'
p6692
aS'apple'
p6693
aS'before'
p6694
aS'the'
p6695
aS'garden'
p6696
asI838
(lp6697
S'Where'
p6698
aS'was'
p6699
aS'the'
p6700
aS'apple'
p6701
aS'before'
p6702
aS'the'
p6703
aS'garden'
p6704
asI839
(lp6705
S'Where'
p6706
aS'was'
p6707
aS'the'
p6708
aS'milk'
p6709
aS'before'
p6710
aS'the'
p6711
aS'bathroom'
p6712
asI840
(lp6713
S'Where'
p6714
aS'was'
p6715
aS'the'
p6716
aS'milk'
p6717
aS'before'
p6718
aS'the'
p6719
aS'bathroom'
p6720
asI841
(lp6721
S'Where'
p6722
aS'was'
p6723
aS'the'
p6724
aS'milk'
p6725
aS'before'
p6726
aS'the'
p6727
aS'bathroom'
p6728
asI842
(lp6729
S'Where'
p6730
aS'was'
p6731
aS'the'
p6732
aS'football'
p6733
aS'before'
p6734
aS'the'
p6735
aS'bathroom'
p6736
asI843
(lp6737
S'Where'
p6738
aS'was'
p6739
aS'the'
p6740
aS'apple'
p6741
aS'before'
p6742
aS'the'
p6743
aS'bathroom'
p6744
asI844
(lp6745
S'Where'
p6746
aS'was'
p6747
aS'the'
p6748
aS'apple'
p6749
aS'before'
p6750
aS'the'
p6751
aS'bathroom'
p6752
asI845
(lp6753
S'Where'
p6754
aS'was'
p6755
aS'the'
p6756
aS'football'
p6757
aS'before'
p6758
aS'the'
p6759
aS'hallway'
p6760
asI846
(lp6761
S'Where'
p6762
aS'was'
p6763
aS'the'
p6764
aS'apple'
p6765
aS'before'
p6766
aS'the'
p6767
aS'bedroom'
p6768
asI847
(lp6769
S'Where'
p6770
aS'was'
p6771
aS'the'
p6772
aS'apple'
p6773
aS'before'
p6774
aS'the'
p6775
aS'office'
p6776
asI848
(lp6777
S'Where'
p6778
aS'was'
p6779
aS'the'
p6780
aS'apple'
p6781
aS'before'
p6782
aS'the'
p6783
aS'office'
p6784
asI849
(lp6785
S'Where'
p6786
aS'was'
p6787
aS'the'
p6788
aS'apple'
p6789
aS'before'
p6790
aS'the'
p6791
aS'kitchen'
p6792
asI850
(lp6793
S'Where'
p6794
aS'was'
p6795
aS'the'
p6796
aS'milk'
p6797
aS'before'
p6798
aS'the'
p6799
aS'office'
p6800
asI851
(lp6801
S'Where'
p6802
aS'was'
p6803
aS'the'
p6804
aS'milk'
p6805
aS'before'
p6806
aS'the'
p6807
aS'kitchen'
p6808
asI852
(lp6809
S'Where'
p6810
aS'was'
p6811
aS'the'
p6812
aS'milk'
p6813
aS'before'
p6814
aS'the'
p6815
aS'kitchen'
p6816
asI853
(lp6817
S'Where'
p6818
aS'was'
p6819
aS'the'
p6820
aS'apple'
p6821
aS'before'
p6822
aS'the'
p6823
aS'bedroom'
p6824
asI854
(lp6825
S'Where'
p6826
aS'was'
p6827
aS'the'
p6828
aS'apple'
p6829
aS'before'
p6830
aS'the'
p6831
aS'bedroom'
p6832
asI855
(lp6833
S'Where'
p6834
aS'was'
p6835
aS'the'
p6836
aS'apple'
p6837
aS'before'
p6838
aS'the'
p6839
aS'hallway'
p6840
asI856
(lp6841
S'Where'
p6842
aS'was'
p6843
aS'the'
p6844
aS'apple'
p6845
aS'before'
p6846
aS'the'
p6847
aS'bathroom'
p6848
asI857
(lp6849
S'Where'
p6850
aS'was'
p6851
aS'the'
p6852
aS'apple'
p6853
aS'before'
p6854
aS'the'
p6855
aS'bathroom'
p6856
asI858
(lp6857
S'Where'
p6858
aS'was'
p6859
aS'the'
p6860
aS'apple'
p6861
aS'before'
p6862
aS'the'
p6863
aS'hallway'
p6864
asI859
(lp6865
S'Where'
p6866
aS'was'
p6867
aS'the'
p6868
aS'apple'
p6869
aS'before'
p6870
aS'the'
p6871
aS'bathroom'
p6872
asI860
(lp6873
S'Where'
p6874
aS'was'
p6875
aS'the'
p6876
aS'football'
p6877
aS'before'
p6878
aS'the'
p6879
aS'kitchen'
p6880
asI861
(lp6881
S'Where'
p6882
aS'was'
p6883
aS'the'
p6884
aS'football'
p6885
aS'before'
p6886
aS'the'
p6887
aS'office'
p6888
asI862
(lp6889
S'Where'
p6890
aS'was'
p6891
aS'the'
p6892
aS'football'
p6893
aS'before'
p6894
aS'the'
p6895
aS'hallway'
p6896
asI863
(lp6897
S'Where'
p6898
aS'was'
p6899
aS'the'
p6900
aS'football'
p6901
aS'before'
p6902
aS'the'
p6903
aS'office'
p6904
asI864
(lp6905
S'Where'
p6906
aS'was'
p6907
aS'the'
p6908
aS'football'
p6909
aS'before'
p6910
aS'the'
p6911
aS'office'
p6912
asI865
(lp6913
S'Where'
p6914
aS'was'
p6915
aS'the'
p6916
aS'football'
p6917
aS'before'
p6918
aS'the'
p6919
aS'bathroom'
p6920
asI866
(lp6921
S'Where'
p6922
aS'was'
p6923
aS'the'
p6924
aS'milk'
p6925
aS'before'
p6926
aS'the'
p6927
aS'kitchen'
p6928
asI867
(lp6929
S'Where'
p6930
aS'was'
p6931
aS'the'
p6932
aS'football'
p6933
aS'before'
p6934
aS'the'
p6935
aS'bathroom'
p6936
asI868
(lp6937
S'Where'
p6938
aS'was'
p6939
aS'the'
p6940
aS'football'
p6941
aS'before'
p6942
aS'the'
p6943
aS'hallway'
p6944
asI869
(lp6945
S'Where'
p6946
aS'was'
p6947
aS'the'
p6948
aS'milk'
p6949
aS'before'
p6950
aS'the'
p6951
aS'bedroom'
p6952
asI870
(lp6953
S'Where'
p6954
aS'was'
p6955
aS'the'
p6956
aS'football'
p6957
aS'before'
p6958
aS'the'
p6959
aS'kitchen'
p6960
asI871
(lp6961
S'Where'
p6962
aS'was'
p6963
aS'the'
p6964
aS'milk'
p6965
aS'before'
p6966
aS'the'
p6967
aS'garden'
p6968
asI872
(lp6969
S'Where'
p6970
aS'was'
p6971
aS'the'
p6972
aS'milk'
p6973
aS'before'
p6974
aS'the'
p6975
aS'bedroom'
p6976
asI873
(lp6977
S'Where'
p6978
aS'was'
p6979
aS'the'
p6980
aS'milk'
p6981
aS'before'
p6982
aS'the'
p6983
aS'garden'
p6984
asI874
(lp6985
S'Where'
p6986
aS'was'
p6987
aS'the'
p6988
aS'apple'
p6989
aS'before'
p6990
aS'the'
p6991
aS'office'
p6992
asI875
(lp6993
S'Where'
p6994
aS'was'
p6995
aS'the'
p6996
aS'apple'
p6997
aS'before'
p6998
aS'the'
p6999
aS'bedroom'
p7000
asI876
(lp7001
S'Where'
p7002
aS'was'
p7003
aS'the'
p7004
aS'milk'
p7005
aS'before'
p7006
aS'the'
p7007
aS'bathroom'
p7008
asI877
(lp7009
S'Where'
p7010
aS'was'
p7011
aS'the'
p7012
aS'football'
p7013
aS'before'
p7014
aS'the'
p7015
aS'hallway'
p7016
asI878
(lp7017
S'Where'
p7018
aS'was'
p7019
aS'the'
p7020
aS'football'
p7021
aS'before'
p7022
aS'the'
p7023
aS'office'
p7024
asI879
(lp7025
S'Where'
p7026
aS'was'
p7027
aS'the'
p7028
aS'football'
p7029
aS'before'
p7030
aS'the'
p7031
aS'kitchen'
p7032
asI880
(lp7033
S'Where'
p7034
aS'was'
p7035
aS'the'
p7036
aS'football'
p7037
aS'before'
p7038
aS'the'
p7039
aS'bathroom'
p7040
asI881
(lp7041
S'Where'
p7042
aS'was'
p7043
aS'the'
p7044
aS'football'
p7045
aS'before'
p7046
aS'the'
p7047
aS'bathroom'
p7048
asI882
(lp7049
S'Where'
p7050
aS'was'
p7051
aS'the'
p7052
aS'football'
p7053
aS'before'
p7054
aS'the'
p7055
aS'bathroom'
p7056
asI883
(lp7057
S'Where'
p7058
aS'was'
p7059
aS'the'
p7060
aS'football'
p7061
aS'before'
p7062
aS'the'
p7063
aS'office'
p7064
asI884
(lp7065
S'Where'
p7066
aS'was'
p7067
aS'the'
p7068
aS'apple'
p7069
aS'before'
p7070
aS'the'
p7071
aS'hallway'
p7072
asI885
(lp7073
S'Where'
p7074
aS'was'
p7075
aS'the'
p7076
aS'football'
p7077
aS'before'
p7078
aS'the'
p7079
aS'bathroom'
p7080
asI886
(lp7081
S'Where'
p7082
aS'was'
p7083
aS'the'
p7084
aS'apple'
p7085
aS'before'
p7086
aS'the'
p7087
aS'kitchen'
p7088
asI887
(lp7089
S'Where'
p7090
aS'was'
p7091
aS'the'
p7092
aS'apple'
p7093
aS'before'
p7094
aS'the'
p7095
aS'kitchen'
p7096
asI888
(lp7097
S'Where'
p7098
aS'was'
p7099
aS'the'
p7100
aS'football'
p7101
aS'before'
p7102
aS'the'
p7103
aS'kitchen'
p7104
asI889
(lp7105
S'Where'
p7106
aS'was'
p7107
aS'the'
p7108
aS'football'
p7109
aS'before'
p7110
aS'the'
p7111
aS'kitchen'
p7112
asI890
(lp7113
S'Where'
p7114
aS'was'
p7115
aS'the'
p7116
aS'football'
p7117
aS'before'
p7118
aS'the'
p7119
aS'kitchen'
p7120
asI891
(lp7121
S'Where'
p7122
aS'was'
p7123
aS'the'
p7124
aS'apple'
p7125
aS'before'
p7126
aS'the'
p7127
aS'bedroom'
p7128
asI892
(lp7129
S'Where'
p7130
aS'was'
p7131
aS'the'
p7132
aS'apple'
p7133
aS'before'
p7134
aS'the'
p7135
aS'bedroom'
p7136
asI893
(lp7137
S'Where'
p7138
aS'was'
p7139
aS'the'
p7140
aS'apple'
p7141
aS'before'
p7142
aS'the'
p7143
aS'bedroom'
p7144
asI894
(lp7145
S'Where'
p7146
aS'was'
p7147
aS'the'
p7148
aS'football'
p7149
aS'before'
p7150
aS'the'
p7151
aS'hallway'
p7152
asI895
(lp7153
S'Where'
p7154
aS'was'
p7155
aS'the'
p7156
aS'football'
p7157
aS'before'
p7158
aS'the'
p7159
aS'hallway'
p7160
asI896
(lp7161
S'Where'
p7162
aS'was'
p7163
aS'the'
p7164
aS'apple'
p7165
aS'before'
p7166
aS'the'
p7167
aS'office'
p7168
asI897
(lp7169
S'Where'
p7170
aS'was'
p7171
aS'the'
p7172
aS'apple'
p7173
aS'before'
p7174
aS'the'
p7175
aS'hallway'
p7176
asI898
(lp7177
S'Where'
p7178
aS'was'
p7179
aS'the'
p7180
aS'apple'
p7181
aS'before'
p7182
aS'the'
p7183
aS'hallway'
p7184
asI899
(lp7185
S'Where'
p7186
aS'was'
p7187
aS'the'
p7188
aS'football'
p7189
aS'before'
p7190
aS'the'
p7191
aS'bathroom'
p7192
asI900
(lp7193
S'Where'
p7194
aS'was'
p7195
aS'the'
p7196
aS'football'
p7197
aS'before'
p7198
aS'the'
p7199
aS'office'
p7200
asI901
(lp7201
S'Where'
p7202
aS'was'
p7203
aS'the'
p7204
aS'apple'
p7205
aS'before'
p7206
aS'the'
p7207
aS'garden'
p7208
asI902
(lp7209
S'Where'
p7210
aS'was'
p7211
aS'the'
p7212
aS'apple'
p7213
aS'before'
p7214
aS'the'
p7215
aS'kitchen'
p7216
asI903
(lp7217
S'Where'
p7218
aS'was'
p7219
aS'the'
p7220
aS'apple'
p7221
aS'before'
p7222
aS'the'
p7223
aS'kitchen'
p7224
asI904
(lp7225
S'Where'
p7226
aS'was'
p7227
aS'the'
p7228
aS'milk'
p7229
aS'before'
p7230
aS'the'
p7231
aS'hallway'
p7232
asI905
(lp7233
S'Where'
p7234
aS'was'
p7235
aS'the'
p7236
aS'milk'
p7237
aS'before'
p7238
aS'the'
p7239
aS'office'
p7240
asI906
(lp7241
S'Where'
p7242
aS'was'
p7243
aS'the'
p7244
aS'football'
p7245
aS'before'
p7246
aS'the'
p7247
aS'bedroom'
p7248
asI907
(lp7249
S'Where'
p7250
aS'was'
p7251
aS'the'
p7252
aS'football'
p7253
aS'before'
p7254
aS'the'
p7255
aS'kitchen'
p7256
asI908
(lp7257
S'Where'
p7258
aS'was'
p7259
aS'the'
p7260
aS'milk'
p7261
aS'before'
p7262
aS'the'
p7263
aS'hallway'
p7264
asI909
(lp7265
S'Where'
p7266
aS'was'
p7267
aS'the'
p7268
aS'milk'
p7269
aS'before'
p7270
aS'the'
p7271
aS'office'
p7272
asI910
(lp7273
S'Where'
p7274
aS'was'
p7275
aS'the'
p7276
aS'apple'
p7277
aS'before'
p7278
aS'the'
p7279
aS'office'
p7280
asI911
(lp7281
S'Where'
p7282
aS'was'
p7283
aS'the'
p7284
aS'football'
p7285
aS'before'
p7286
aS'the'
p7287
aS'bathroom'
p7288
asI912
(lp7289
S'Where'
p7290
aS'was'
p7291
aS'the'
p7292
aS'football'
p7293
aS'before'
p7294
aS'the'
p7295
aS'bathroom'
p7296
asI913
(lp7297
S'Where'
p7298
aS'was'
p7299
aS'the'
p7300
aS'football'
p7301
aS'before'
p7302
aS'the'
p7303
aS'garden'
p7304
asI914
(lp7305
S'Where'
p7306
aS'was'
p7307
aS'the'
p7308
aS'apple'
p7309
aS'before'
p7310
aS'the'
p7311
aS'kitchen'
p7312
asI915
(lp7313
S'Where'
p7314
aS'was'
p7315
aS'the'
p7316
aS'apple'
p7317
aS'before'
p7318
aS'the'
p7319
aS'bedroom'
p7320
asI916
(lp7321
S'Where'
p7322
aS'was'
p7323
aS'the'
p7324
aS'football'
p7325
aS'before'
p7326
aS'the'
p7327
aS'bathroom'
p7328
asI917
(lp7329
S'Where'
p7330
aS'was'
p7331
aS'the'
p7332
aS'football'
p7333
aS'before'
p7334
aS'the'
p7335
aS'bathroom'
p7336
asI918
(lp7337
S'Where'
p7338
aS'was'
p7339
aS'the'
p7340
aS'football'
p7341
aS'before'
p7342
aS'the'
p7343
aS'bathroom'
p7344
asI919
(lp7345
S'Where'
p7346
aS'was'
p7347
aS'the'
p7348
aS'apple'
p7349
aS'before'
p7350
aS'the'
p7351
aS'bedroom'
p7352
asI920
(lp7353
S'Where'
p7354
aS'was'
p7355
aS'the'
p7356
aS'apple'
p7357
aS'before'
p7358
aS'the'
p7359
aS'bedroom'
p7360
asI921
(lp7361
S'Where'
p7362
aS'was'
p7363
aS'the'
p7364
aS'football'
p7365
aS'before'
p7366
aS'the'
p7367
aS'bedroom'
p7368
asI922
(lp7369
S'Where'
p7370
aS'was'
p7371
aS'the'
p7372
aS'football'
p7373
aS'before'
p7374
aS'the'
p7375
aS'bedroom'
p7376
asI923
(lp7377
S'Where'
p7378
aS'was'
p7379
aS'the'
p7380
aS'football'
p7381
aS'before'
p7382
aS'the'
p7383
aS'bedroom'
p7384
asI924
(lp7385
S'Where'
p7386
aS'was'
p7387
aS'the'
p7388
aS'apple'
p7389
aS'before'
p7390
aS'the'
p7391
aS'bedroom'
p7392
asI925
(lp7393
S'Where'
p7394
aS'was'
p7395
aS'the'
p7396
aS'milk'
p7397
aS'before'
p7398
aS'the'
p7399
aS'bedroom'
p7400
asI926
(lp7401
S'Where'
p7402
aS'was'
p7403
aS'the'
p7404
aS'apple'
p7405
aS'before'
p7406
aS'the'
p7407
aS'hallway'
p7408
asI927
(lp7409
S'Where'
p7410
aS'was'
p7411
aS'the'
p7412
aS'football'
p7413
aS'before'
p7414
aS'the'
p7415
aS'kitchen'
p7416
asI928
(lp7417
S'Where'
p7418
aS'was'
p7419
aS'the'
p7420
aS'apple'
p7421
aS'before'
p7422
aS'the'
p7423
aS'hallway'
p7424
asI929
(lp7425
S'Where'
p7426
aS'was'
p7427
aS'the'
p7428
aS'apple'
p7429
aS'before'
p7430
aS'the'
p7431
aS'hallway'
p7432
asI930
(lp7433
S'Where'
p7434
aS'was'
p7435
aS'the'
p7436
aS'apple'
p7437
aS'before'
p7438
aS'the'
p7439
aS'hallway'
p7440
asI931
(lp7441
S'Where'
p7442
aS'was'
p7443
aS'the'
p7444
aS'football'
p7445
aS'before'
p7446
aS'the'
p7447
aS'garden'
p7448
asI932
(lp7449
S'Where'
p7450
aS'was'
p7451
aS'the'
p7452
aS'football'
p7453
aS'before'
p7454
aS'the'
p7455
aS'bedroom'
p7456
asI933
(lp7457
S'Where'
p7458
aS'was'
p7459
aS'the'
p7460
aS'football'
p7461
aS'before'
p7462
aS'the'
p7463
aS'kitchen'
p7464
asI934
(lp7465
S'Where'
p7466
aS'was'
p7467
aS'the'
p7468
aS'football'
p7469
aS'before'
p7470
aS'the'
p7471
aS'bathroom'
p7472
asI935
(lp7473
S'Where'
p7474
aS'was'
p7475
aS'the'
p7476
aS'football'
p7477
aS'before'
p7478
aS'the'
p7479
aS'bathroom'
p7480
asI936
(lp7481
S'Where'
p7482
aS'was'
p7483
aS'the'
p7484
aS'apple'
p7485
aS'before'
p7486
aS'the'
p7487
aS'garden'
p7488
asI937
(lp7489
S'Where'
p7490
aS'was'
p7491
aS'the'
p7492
aS'apple'
p7493
aS'before'
p7494
aS'the'
p7495
aS'garden'
p7496
asI938
(lp7497
S'Where'
p7498
aS'was'
p7499
aS'the'
p7500
aS'apple'
p7501
aS'before'
p7502
aS'the'
p7503
aS'garden'
p7504
asI939
(lp7505
S'Where'
p7506
aS'was'
p7507
aS'the'
p7508
aS'milk'
p7509
aS'before'
p7510
aS'the'
p7511
aS'bathroom'
p7512
asI940
(lp7513
S'Where'
p7514
aS'was'
p7515
aS'the'
p7516
aS'milk'
p7517
aS'before'
p7518
aS'the'
p7519
aS'hallway'
p7520
asI941
(lp7521
S'Where'
p7522
aS'was'
p7523
aS'the'
p7524
aS'milk'
p7525
aS'before'
p7526
aS'the'
p7527
aS'office'
p7528
asI942
(lp7529
S'Where'
p7530
aS'was'
p7531
aS'the'
p7532
aS'milk'
p7533
aS'before'
p7534
aS'the'
p7535
aS'office'
p7536
asI943
(lp7537
S'Where'
p7538
aS'was'
p7539
aS'the'
p7540
aS'milk'
p7541
aS'before'
p7542
aS'the'
p7543
aS'office'
p7544
asI944
(lp7545
S'Where'
p7546
aS'was'
p7547
aS'the'
p7548
aS'milk'
p7549
aS'before'
p7550
aS'the'
p7551
aS'garden'
p7552
asI945
(lp7553
S'Where'
p7554
aS'was'
p7555
aS'the'
p7556
aS'milk'
p7557
aS'before'
p7558
aS'the'
p7559
aS'bedroom'
p7560
asI946
(lp7561
S'Where'
p7562
aS'was'
p7563
aS'the'
p7564
aS'milk'
p7565
aS'before'
p7566
aS'the'
p7567
aS'kitchen'
p7568
asI947
(lp7569
S'Where'
p7570
aS'was'
p7571
aS'the'
p7572
aS'milk'
p7573
aS'before'
p7574
aS'the'
p7575
aS'kitchen'
p7576
asI948
(lp7577
S'Where'
p7578
aS'was'
p7579
aS'the'
p7580
aS'milk'
p7581
aS'before'
p7582
aS'the'
p7583
aS'bedroom'
p7584
asI949
(lp7585
S'Where'
p7586
aS'was'
p7587
aS'the'
p7588
aS'milk'
p7589
aS'before'
p7590
aS'the'
p7591
aS'bedroom'
p7592
asI950
(lp7593
S'Where'
p7594
aS'was'
p7595
aS'the'
p7596
aS'milk'
p7597
aS'before'
p7598
aS'the'
p7599
aS'bedroom'
p7600
asI951
(lp7601
S'Where'
p7602
aS'was'
p7603
aS'the'
p7604
aS'football'
p7605
aS'before'
p7606
aS'the'
p7607
aS'bedroom'
p7608
asI952
(lp7609
S'Where'
p7610
aS'was'
p7611
aS'the'
p7612
aS'football'
p7613
aS'before'
p7614
aS'the'
p7615
aS'bedroom'
p7616
asI953
(lp7617
S'Where'
p7618
aS'was'
p7619
aS'the'
p7620
aS'football'
p7621
aS'before'
p7622
aS'the'
p7623
aS'bedroom'
p7624
asI954
(lp7625
S'Where'
p7626
aS'was'
p7627
aS'the'
p7628
aS'milk'
p7629
aS'before'
p7630
aS'the'
p7631
aS'bedroom'
p7632
asI955
(lp7633
S'Where'
p7634
aS'was'
p7635
aS'the'
p7636
aS'milk'
p7637
aS'before'
p7638
aS'the'
p7639
aS'garden'
p7640
asI956
(lp7641
S'Where'
p7642
aS'was'
p7643
aS'the'
p7644
aS'apple'
p7645
aS'before'
p7646
aS'the'
p7647
aS'hallway'
p7648
asI957
(lp7649
S'Where'
p7650
aS'was'
p7651
aS'the'
p7652
aS'apple'
p7653
aS'before'
p7654
aS'the'
p7655
aS'garden'
p7656
asI958
(lp7657
S'Where'
p7658
aS'was'
p7659
aS'the'
p7660
aS'football'
p7661
aS'before'
p7662
aS'the'
p7663
aS'garden'
p7664
asI959
(lp7665
S'Where'
p7666
aS'was'
p7667
aS'the'
p7668
aS'apple'
p7669
aS'before'
p7670
aS'the'
p7671
aS'office'
p7672
asI960
(lp7673
S'Where'
p7674
aS'was'
p7675
aS'the'
p7676
aS'apple'
p7677
aS'before'
p7678
aS'the'
p7679
aS'office'
p7680
asI961
(lp7681
S'Where'
p7682
aS'was'
p7683
aS'the'
p7684
aS'milk'
p7685
aS'before'
p7686
aS'the'
p7687
aS'bathroom'
p7688
asI962
(lp7689
S'Where'
p7690
aS'was'
p7691
aS'the'
p7692
aS'milk'
p7693
aS'before'
p7694
aS'the'
p7695
aS'hallway'
p7696
asI963
(lp7697
S'Where'
p7698
aS'was'
p7699
aS'the'
p7700
aS'milk'
p7701
aS'before'
p7702
aS'the'
p7703
aS'hallway'
p7704
asI964
(lp7705
S'Where'
p7706
aS'was'
p7707
aS'the'
p7708
aS'football'
p7709
aS'before'
p7710
aS'the'
p7711
aS'garden'
p7712
asI965
(lp7713
S'Where'
p7714
aS'was'
p7715
aS'the'
p7716
aS'milk'
p7717
aS'before'
p7718
aS'the'
p7719
aS'kitchen'
p7720
asI966
(lp7721
S'Where'
p7722
aS'was'
p7723
aS'the'
p7724
aS'milk'
p7725
aS'before'
p7726
aS'the'
p7727
aS'kitchen'
p7728
asI967
(lp7729
S'Where'
p7730
aS'was'
p7731
aS'the'
p7732
aS'milk'
p7733
aS'before'
p7734
aS'the'
p7735
aS'bathroom'
p7736
asI968
(lp7737
S'Where'
p7738
aS'was'
p7739
aS'the'
p7740
aS'milk'
p7741
aS'before'
p7742
aS'the'
p7743
aS'office'
p7744
asI969
(lp7745
S'Where'
p7746
aS'was'
p7747
aS'the'
p7748
aS'apple'
p7749
aS'before'
p7750
aS'the'
p7751
aS'bedroom'
p7752
asI970
(lp7753
S'Where'
p7754
aS'was'
p7755
aS'the'
p7756
aS'apple'
p7757
aS'before'
p7758
aS'the'
p7759
aS'hallway'
p7760
asI971
(lp7761
S'Where'
p7762
aS'was'
p7763
aS'the'
p7764
aS'apple'
p7765
aS'before'
p7766
aS'the'
p7767
aS'office'
p7768
asI972
(lp7769
S'Where'
p7770
aS'was'
p7771
aS'the'
p7772
aS'apple'
p7773
aS'before'
p7774
aS'the'
p7775
aS'hallway'
p7776
asI973
(lp7777
S'Where'
p7778
aS'was'
p7779
aS'the'
p7780
aS'apple'
p7781
aS'before'
p7782
aS'the'
p7783
aS'hallway'
p7784
asI974
(lp7785
S'Where'
p7786
aS'was'
p7787
aS'the'
p7788
aS'apple'
p7789
aS'before'
p7790
aS'the'
p7791
aS'hallway'
p7792
asI975
(lp7793
S'Where'
p7794
aS'was'
p7795
aS'the'
p7796
aS'milk'
p7797
aS'before'
p7798
aS'the'
p7799
aS'garden'
p7800
asI976
(lp7801
S'Where'
p7802
aS'was'
p7803
aS'the'
p7804
aS'football'
p7805
aS'before'
p7806
aS'the'
p7807
aS'office'
p7808
asI977
(lp7809
S'Where'
p7810
aS'was'
p7811
aS'the'
p7812
aS'milk'
p7813
aS'before'
p7814
aS'the'
p7815
aS'hallway'
p7816
asI978
(lp7817
S'Where'
p7818
aS'was'
p7819
aS'the'
p7820
aS'milk'
p7821
aS'before'
p7822
aS'the'
p7823
aS'kitchen'
p7824
asI979
(lp7825
S'Where'
p7826
aS'was'
p7827
aS'the'
p7828
aS'football'
p7829
aS'before'
p7830
aS'the'
p7831
aS'garden'
p7832
asI980
(lp7833
S'Where'
p7834
aS'was'
p7835
aS'the'
p7836
aS'football'
p7837
aS'before'
p7838
aS'the'
p7839
aS'garden'
p7840
asI981
(lp7841
S'Where'
p7842
aS'was'
p7843
aS'the'
p7844
aS'milk'
p7845
aS'before'
p7846
aS'the'
p7847
aS'office'
p7848
asI982
(lp7849
S'Where'
p7850
aS'was'
p7851
aS'the'
p7852
aS'milk'
p7853
aS'before'
p7854
aS'the'
p7855
aS'hallway'
p7856
asI983
(lp7857
S'Where'
p7858
aS'was'
p7859
aS'the'
p7860
aS'football'
p7861
aS'before'
p7862
aS'the'
p7863
aS'office'
p7864
asI984
(lp7865
S'Where'
p7866
aS'was'
p7867
aS'the'
p7868
aS'football'
p7869
aS'before'
p7870
aS'the'
p7871
aS'kitchen'
p7872
asI985
(lp7873
S'Where'
p7874
aS'was'
p7875
aS'the'
p7876
aS'football'
p7877
aS'before'
p7878
aS'the'
p7879
aS'kitchen'
p7880
asI986
(lp7881
S'Where'
p7882
aS'was'
p7883
aS'the'
p7884
aS'milk'
p7885
aS'before'
p7886
aS'the'
p7887
aS'bathroom'
p7888
asI987
(lp7889
S'Where'
p7890
aS'was'
p7891
aS'the'
p7892
aS'milk'
p7893
aS'before'
p7894
aS'the'
p7895
aS'hallway'
p7896
asI988
(lp7897
S'Where'
p7898
aS'was'
p7899
aS'the'
p7900
aS'apple'
p7901
aS'before'
p7902
aS'the'
p7903
aS'hallway'
p7904
asI989
(lp7905
S'Where'
p7906
aS'was'
p7907
aS'the'
p7908
aS'apple'
p7909
aS'before'
p7910
aS'the'
p7911
aS'garden'
p7912
asI990
(lp7913
S'Where'
p7914
aS'was'
p7915
aS'the'
p7916
aS'apple'
p7917
aS'before'
p7918
aS'the'
p7919
aS'kitchen'
p7920
asI991
(lp7921
S'Where'
p7922
aS'was'
p7923
aS'the'
p7924
aS'football'
p7925
aS'before'
p7926
aS'the'
p7927
aS'garden'
p7928
asI992
(lp7929
S'Where'
p7930
aS'was'
p7931
aS'the'
p7932
aS'football'
p7933
aS'before'
p7934
aS'the'
p7935
aS'hallway'
p7936
asI993
(lp7937
S'Where'
p7938
aS'was'
p7939
aS'the'
p7940
aS'football'
p7941
aS'before'
p7942
aS'the'
p7943
aS'hallway'
p7944
asI994
(lp7945
S'Where'
p7946
aS'was'
p7947
aS'the'
p7948
aS'football'
p7949
aS'before'
p7950
aS'the'
p7951
aS'hallway'
p7952
asI995
(lp7953
S'Where'
p7954
aS'was'
p7955
aS'the'
p7956
aS'football'
p7957
aS'before'
p7958
aS'the'
p7959
aS'garden'
p7960
asI996
(lp7961
S'Where'
p7962
aS'was'
p7963
aS'the'
p7964
aS'apple'
p7965
aS'before'
p7966
aS'the'
p7967
aS'hallway'
p7968
asI997
(lp7969
S'Where'
p7970
aS'was'
p7971
aS'the'
p7972
aS'apple'
p7973
aS'before'
p7974
aS'the'
p7975
aS'hallway'
p7976
asI998
(lp7977
S'Where'
p7978
aS'was'
p7979
aS'the'
p7980
aS'apple'
p7981
aS'before'
p7982
aS'the'
p7983
aS'garden'
p7984
asI999
(lp7985
S'Where'
p7986
aS'was'
p7987
aS'the'
p7988
aS'apple'
p7989
aS'before'
p7990
aS'the'
p7991
aS'kitchen'
p7992
asI1000
(lp7993
S'Where'
p7994
aS'was'
p7995
aS'the'
p7996
aS'apple'
p7997
aS'before'
p7998
aS'the'
p7999
aS'kitchen'
p8000
as.