(dp0
S'office'
p1
I8
sS'do'
p2
I9
sS'is'
p3
I10
sS'How'
p4
I11
sS'bedroom'
p5
I12
sS'go'
p6
I13
sS'bathroom'
p7
I17
sS'from'
p8
I18
sS'west'
p9
I26
sS'1'
p10
I20
sS'to'
p11
I21
sS'3'
p12
I22
sS'2'
p13
I23
sS'5'
p14
I24
sS'4'
p15
I25
sS'you'
p16
I15
sS'east'
p17
I28
sS'hallway'
p18
I5
sS'north'
p19
I6
sS'garden'
p20
I7
sS'The'
p21
I14
sS'kitchen'
p22
I16
sS'e'
p23
I2
sS'of'
p24
I19
sS'n'
p25
I3
sS's'
p26
I1
sS'w'
p27
I4
sS'the'
p28
I27
sS'south'
p29
I29
s.