(dp0
I1
(lp1
S'Where'
p2
aS'is'
p3
aS'the'
p4
aS'football'
p5
asI2
(lp6
S'Where'
p7
aS'is'
p8
aS'the'
p9
aS'football'
p10
asI3
(lp11
S'Where'
p12
aS'is'
p13
aS'the'
p14
aS'football'
p15
asI4
(lp16
S'Where'
p17
aS'is'
p18
aS'the'
p19
aS'apple'
p20
asI5
(lp21
S'Where'
p22
aS'is'
p23
aS'the'
p24
aS'milk'
p25
asI6
(lp26
S'Where'
p27
aS'is'
p28
aS'the'
p29
aS'football'
p30
asI7
(lp31
S'Where'
p32
aS'is'
p33
aS'the'
p34
aS'milk'
p35
asI8
(lp36
S'Where'
p37
aS'is'
p38
aS'the'
p39
aS'milk'
p40
asI9
(lp41
S'Where'
p42
aS'is'
p43
aS'the'
p44
aS'milk'
p45
asI10
(lp46
S'Where'
p47
aS'is'
p48
aS'the'
p49
aS'apple'
p50
asI11
(lp51
S'Where'
p52
aS'is'
p53
aS'the'
p54
aS'apple'
p55
asI12
(lp56
S'Where'
p57
aS'is'
p58
aS'the'
p59
aS'apple'
p60
asI13
(lp61
S'Where'
p62
aS'is'
p63
aS'the'
p64
aS'milk'
p65
asI14
(lp66
S'Where'
p67
aS'is'
p68
aS'the'
p69
aS'football'
p70
asI15
(lp71
S'Where'
p72
aS'is'
p73
aS'the'
p74
aS'football'
p75
asI16
(lp76
S'Where'
p77
aS'is'
p78
aS'the'
p79
aS'football'
p80
asI17
(lp81
S'Where'
p82
aS'is'
p83
aS'the'
p84
aS'football'
p85
asI18
(lp86
S'Where'
p87
aS'is'
p88
aS'the'
p89
aS'football'
p90
asI19
(lp91
S'Where'
p92
aS'is'
p93
aS'the'
p94
aS'football'
p95
asI20
(lp96
S'Where'
p97
aS'is'
p98
aS'the'
p99
aS'milk'
p100
asI21
(lp101
S'Where'
p102
aS'is'
p103
aS'the'
p104
aS'football'
p105
asI22
(lp106
S'Where'
p107
aS'is'
p108
aS'the'
p109
aS'milk'
p110
asI23
(lp111
S'Where'
p112
aS'is'
p113
aS'the'
p114
aS'milk'
p115
asI24
(lp116
S'Where'
p117
aS'is'
p118
aS'the'
p119
aS'football'
p120
asI25
(lp121
S'Where'
p122
aS'is'
p123
aS'the'
p124
aS'milk'
p125
asI26
(lp126
S'Where'
p127
aS'is'
p128
aS'the'
p129
aS'apple'
p130
asI27
(lp131
S'Where'
p132
aS'is'
p133
aS'the'
p134
aS'apple'
p135
asI28
(lp136
S'Where'
p137
aS'is'
p138
aS'the'
p139
aS'apple'
p140
asI29
(lp141
S'Where'
p142
aS'is'
p143
aS'the'
p144
aS'football'
p145
asI30
(lp146
S'Where'
p147
aS'is'
p148
aS'the'
p149
aS'apple'
p150
asI31
(lp151
S'Where'
p152
aS'is'
p153
aS'the'
p154
aS'milk'
p155
asI32
(lp156
S'Where'
p157
aS'is'
p158
aS'the'
p159
aS'milk'
p160
asI33
(lp161
S'Where'
p162
aS'is'
p163
aS'the'
p164
aS'milk'
p165
asI34
(lp166
S'Where'
p167
aS'is'
p168
aS'the'
p169
aS'football'
p170
asI35
(lp171
S'Where'
p172
aS'is'
p173
aS'the'
p174
aS'milk'
p175
asI36
(lp176
S'Where'
p177
aS'is'
p178
aS'the'
p179
aS'milk'
p180
asI37
(lp181
S'Where'
p182
aS'is'
p183
aS'the'
p184
aS'football'
p185
asI38
(lp186
S'Where'
p187
aS'is'
p188
aS'the'
p189
aS'football'
p190
asI39
(lp191
S'Where'
p192
aS'is'
p193
aS'the'
p194
aS'football'
p195
asI40
(lp196
S'Where'
p197
aS'is'
p198
aS'the'
p199
aS'football'
p200
asI41
(lp201
S'Where'
p202
aS'is'
p203
aS'the'
p204
aS'apple'
p205
asI42
(lp206
S'Where'
p207
aS'is'
p208
aS'the'
p209
aS'apple'
p210
asI43
(lp211
S'Where'
p212
aS'is'
p213
aS'the'
p214
aS'apple'
p215
asI44
(lp216
S'Where'
p217
aS'is'
p218
aS'the'
p219
aS'apple'
p220
asI45
(lp221
S'Where'
p222
aS'is'
p223
aS'the'
p224
aS'football'
p225
asI46
(lp226
S'Where'
p227
aS'is'
p228
aS'the'
p229
aS'apple'
p230
asI47
(lp231
S'Where'
p232
aS'is'
p233
aS'the'
p234
aS'milk'
p235
asI48
(lp236
S'Where'
p237
aS'is'
p238
aS'the'
p239
aS'milk'
p240
asI49
(lp241
S'Where'
p242
aS'is'
p243
aS'the'
p244
aS'apple'
p245
asI50
(lp246
S'Where'
p247
aS'is'
p248
aS'the'
p249
aS'milk'
p250
asI51
(lp251
S'Where'
p252
aS'is'
p253
aS'the'
p254
aS'football'
p255
asI52
(lp256
S'Where'
p257
aS'is'
p258
aS'the'
p259
aS'milk'
p260
asI53
(lp261
S'Where'
p262
aS'is'
p263
aS'the'
p264
aS'milk'
p265
asI54
(lp266
S'Where'
p267
aS'is'
p268
aS'the'
p269
aS'football'
p270
asI55
(lp271
S'Where'
p272
aS'is'
p273
aS'the'
p274
aS'apple'
p275
asI56
(lp276
S'Where'
p277
aS'is'
p278
aS'the'
p279
aS'apple'
p280
asI57
(lp281
S'Where'
p282
aS'is'
p283
aS'the'
p284
aS'apple'
p285
asI58
(lp286
S'Where'
p287
aS'is'
p288
aS'the'
p289
aS'milk'
p290
asI59
(lp291
S'Where'
p292
aS'is'
p293
aS'the'
p294
aS'milk'
p295
asI60
(lp296
S'Where'
p297
aS'is'
p298
aS'the'
p299
aS'football'
p300
asI61
(lp301
S'Where'
p302
aS'is'
p303
aS'the'
p304
aS'milk'
p305
asI62
(lp306
S'Where'
p307
aS'is'
p308
aS'the'
p309
aS'milk'
p310
asI63
(lp311
S'Where'
p312
aS'is'
p313
aS'the'
p314
aS'football'
p315
asI64
(lp316
S'Where'
p317
aS'is'
p318
aS'the'
p319
aS'football'
p320
asI65
(lp321
S'Where'
p322
aS'is'
p323
aS'the'
p324
aS'apple'
p325
asI66
(lp326
S'Where'
p327
aS'is'
p328
aS'the'
p329
aS'football'
p330
asI67
(lp331
S'Where'
p332
aS'is'
p333
aS'the'
p334
aS'football'
p335
asI68
(lp336
S'Where'
p337
aS'is'
p338
aS'the'
p339
aS'football'
p340
asI69
(lp341
S'Where'
p342
aS'is'
p343
aS'the'
p344
aS'apple'
p345
asI70
(lp346
S'Where'
p347
aS'is'
p348
aS'the'
p349
aS'apple'
p350
asI71
(lp351
S'Where'
p352
aS'is'
p353
aS'the'
p354
aS'football'
p355
asI72
(lp356
S'Where'
p357
aS'is'
p358
aS'the'
p359
aS'football'
p360
asI73
(lp361
S'Where'
p362
aS'is'
p363
aS'the'
p364
aS'football'
p365
asI74
(lp366
S'Where'
p367
aS'is'
p368
aS'the'
p369
aS'apple'
p370
asI75
(lp371
S'Where'
p372
aS'is'
p373
aS'the'
p374
aS'apple'
p375
asI76
(lp376
S'Where'
p377
aS'is'
p378
aS'the'
p379
aS'apple'
p380
asI77
(lp381
S'Where'
p382
aS'is'
p383
aS'the'
p384
aS'apple'
p385
asI78
(lp386
S'Where'
p387
aS'is'
p388
aS'the'
p389
aS'apple'
p390
asI79
(lp391
S'Where'
p392
aS'is'
p393
aS'the'
p394
aS'apple'
p395
asI80
(lp396
S'Where'
p397
aS'is'
p398
aS'the'
p399
aS'apple'
p400
asI81
(lp401
S'Where'
p402
aS'is'
p403
aS'the'
p404
aS'apple'
p405
asI82
(lp406
S'Where'
p407
aS'is'
p408
aS'the'
p409
aS'apple'
p410
asI83
(lp411
S'Where'
p412
aS'is'
p413
aS'the'
p414
aS'apple'
p415
asI84
(lp416
S'Where'
p417
aS'is'
p418
aS'the'
p419
aS'apple'
p420
asI85
(lp421
S'Where'
p422
aS'is'
p423
aS'the'
p424
aS'apple'
p425
asI86
(lp426
S'Where'
p427
aS'is'
p428
aS'the'
p429
aS'apple'
p430
asI87
(lp431
S'Where'
p432
aS'is'
p433
aS'the'
p434
aS'apple'
p435
asI88
(lp436
S'Where'
p437
aS'is'
p438
aS'the'
p439
aS'apple'
p440
asI89
(lp441
S'Where'
p442
aS'is'
p443
aS'the'
p444
aS'apple'
p445
asI90
(lp446
S'Where'
p447
aS'is'
p448
aS'the'
p449
aS'apple'
p450
asI91
(lp451
S'Where'
p452
aS'is'
p453
aS'the'
p454
aS'apple'
p455
asI92
(lp456
S'Where'
p457
aS'is'
p458
aS'the'
p459
aS'football'
p460
asI93
(lp461
S'Where'
p462
aS'is'
p463
aS'the'
p464
aS'football'
p465
asI94
(lp466
S'Where'
p467
aS'is'
p468
aS'the'
p469
aS'apple'
p470
asI95
(lp471
S'Where'
p472
aS'is'
p473
aS'the'
p474
aS'football'
p475
asI96
(lp476
S'Where'
p477
aS'is'
p478
aS'the'
p479
aS'milk'
p480
asI97
(lp481
S'Where'
p482
aS'is'
p483
aS'the'
p484
aS'milk'
p485
asI98
(lp486
S'Where'
p487
aS'is'
p488
aS'the'
p489
aS'milk'
p490
asI99
(lp491
S'Where'
p492
aS'is'
p493
aS'the'
p494
aS'milk'
p495
asI100
(lp496
S'Where'
p497
aS'is'
p498
aS'the'
p499
aS'football'
p500
asI101
(lp501
S'Where'
p502
aS'is'
p503
aS'the'
p504
aS'football'
p505
asI102
(lp506
S'Where'
p507
aS'is'
p508
aS'the'
p509
aS'football'
p510
asI103
(lp511
S'Where'
p512
aS'is'
p513
aS'the'
p514
aS'football'
p515
asI104
(lp516
S'Where'
p517
aS'is'
p518
aS'the'
p519
aS'football'
p520
asI105
(lp521
S'Where'
p522
aS'is'
p523
aS'the'
p524
aS'milk'
p525
asI106
(lp526
S'Where'
p527
aS'is'
p528
aS'the'
p529
aS'apple'
p530
asI107
(lp531
S'Where'
p532
aS'is'
p533
aS'the'
p534
aS'apple'
p535
asI108
(lp536
S'Where'
p537
aS'is'
p538
aS'the'
p539
aS'apple'
p540
asI109
(lp541
S'Where'
p542
aS'is'
p543
aS'the'
p544
aS'apple'
p545
asI110
(lp546
S'Where'
p547
aS'is'
p548
aS'the'
p549
aS'apple'
p550
asI111
(lp551
S'Where'
p552
aS'is'
p553
aS'the'
p554
aS'apple'
p555
asI112
(lp556
S'Where'
p557
aS'is'
p558
aS'the'
p559
aS'apple'
p560
asI113
(lp561
S'Where'
p562
aS'is'
p563
aS'the'
p564
aS'apple'
p565
asI114
(lp566
S'Where'
p567
aS'is'
p568
aS'the'
p569
aS'apple'
p570
asI115
(lp571
S'Where'
p572
aS'is'
p573
aS'the'
p574
aS'milk'
p575
asI116
(lp576
S'Where'
p577
aS'is'
p578
aS'the'
p579
aS'apple'
p580
asI117
(lp581
S'Where'
p582
aS'is'
p583
aS'the'
p584
aS'apple'
p585
asI118
(lp586
S'Where'
p587
aS'is'
p588
aS'the'
p589
aS'apple'
p590
asI119
(lp591
S'Where'
p592
aS'is'
p593
aS'the'
p594
aS'apple'
p595
asI120
(lp596
S'Where'
p597
aS'is'
p598
aS'the'
p599
aS'apple'
p600
asI121
(lp601
S'Where'
p602
aS'is'
p603
aS'the'
p604
aS'milk'
p605
asI122
(lp606
S'Where'
p607
aS'is'
p608
aS'the'
p609
aS'apple'
p610
asI123
(lp611
S'Where'
p612
aS'is'
p613
aS'the'
p614
aS'apple'
p615
asI124
(lp616
S'Where'
p617
aS'is'
p618
aS'the'
p619
aS'milk'
p620
asI125
(lp621
S'Where'
p622
aS'is'
p623
aS'the'
p624
aS'milk'
p625
asI126
(lp626
S'Where'
p627
aS'is'
p628
aS'the'
p629
aS'milk'
p630
asI127
(lp631
S'Where'
p632
aS'is'
p633
aS'the'
p634
aS'milk'
p635
asI128
(lp636
S'Where'
p637
aS'is'
p638
aS'the'
p639
aS'milk'
p640
asI129
(lp641
S'Where'
p642
aS'is'
p643
aS'the'
p644
aS'milk'
p645
asI130
(lp646
S'Where'
p647
aS'is'
p648
aS'the'
p649
aS'football'
p650
asI131
(lp651
S'Where'
p652
aS'is'
p653
aS'the'
p654
aS'milk'
p655
asI132
(lp656
S'Where'
p657
aS'is'
p658
aS'the'
p659
aS'football'
p660
asI133
(lp661
S'Where'
p662
aS'is'
p663
aS'the'
p664
aS'football'
p665
asI134
(lp666
S'Where'
p667
aS'is'
p668
aS'the'
p669
aS'milk'
p670
asI135
(lp671
S'Where'
p672
aS'is'
p673
aS'the'
p674
aS'milk'
p675
asI136
(lp676
S'Where'
p677
aS'is'
p678
aS'the'
p679
aS'football'
p680
asI137
(lp681
S'Where'
p682
aS'is'
p683
aS'the'
p684
aS'football'
p685
asI138
(lp686
S'Where'
p687
aS'is'
p688
aS'the'
p689
aS'football'
p690
asI139
(lp691
S'Where'
p692
aS'is'
p693
aS'the'
p694
aS'football'
p695
asI140
(lp696
S'Where'
p697
aS'is'
p698
aS'the'
p699
aS'football'
p700
asI141
(lp701
S'Where'
p702
aS'is'
p703
aS'the'
p704
aS'milk'
p705
asI142
(lp706
S'Where'
p707
aS'is'
p708
aS'the'
p709
aS'milk'
p710
asI143
(lp711
S'Where'
p712
aS'is'
p713
aS'the'
p714
aS'milk'
p715
asI144
(lp716
S'Where'
p717
aS'is'
p718
aS'the'
p719
aS'milk'
p720
asI145
(lp721
S'Where'
p722
aS'is'
p723
aS'the'
p724
aS'milk'
p725
asI146
(lp726
S'Where'
p727
aS'is'
p728
aS'the'
p729
aS'milk'
p730
asI147
(lp731
S'Where'
p732
aS'is'
p733
aS'the'
p734
aS'milk'
p735
asI148
(lp736
S'Where'
p737
aS'is'
p738
aS'the'
p739
aS'milk'
p740
asI149
(lp741
S'Where'
p742
aS'is'
p743
aS'the'
p744
aS'football'
p745
asI150
(lp746
S'Where'
p747
aS'is'
p748
aS'the'
p749
aS'apple'
p750
asI151
(lp751
S'Where'
p752
aS'is'
p753
aS'the'
p754
aS'milk'
p755
asI152
(lp756
S'Where'
p757
aS'is'
p758
aS'the'
p759
aS'milk'
p760
asI153
(lp761
S'Where'
p762
aS'is'
p763
aS'the'
p764
aS'milk'
p765
asI154
(lp766
S'Where'
p767
aS'is'
p768
aS'the'
p769
aS'apple'
p770
asI155
(lp771
S'Where'
p772
aS'is'
p773
aS'the'
p774
aS'football'
p775
asI156
(lp776
S'Where'
p777
aS'is'
p778
aS'the'
p779
aS'football'
p780
asI157
(lp781
S'Where'
p782
aS'is'
p783
aS'the'
p784
aS'football'
p785
asI158
(lp786
S'Where'
p787
aS'is'
p788
aS'the'
p789
aS'apple'
p790
asI159
(lp791
S'Where'
p792
aS'is'
p793
aS'the'
p794
aS'apple'
p795
asI160
(lp796
S'Where'
p797
aS'is'
p798
aS'the'
p799
aS'apple'
p800
asI161
(lp801
S'Where'
p802
aS'is'
p803
aS'the'
p804
aS'apple'
p805
asI162
(lp806
S'Where'
p807
aS'is'
p808
aS'the'
p809
aS'apple'
p810
asI163
(lp811
S'Where'
p812
aS'is'
p813
aS'the'
p814
aS'football'
p815
asI164
(lp816
S'Where'
p817
aS'is'
p818
aS'the'
p819
aS'football'
p820
asI165
(lp821
S'Where'
p822
aS'is'
p823
aS'the'
p824
aS'football'
p825
asI166
(lp826
S'Where'
p827
aS'is'
p828
aS'the'
p829
aS'football'
p830
asI167
(lp831
S'Where'
p832
aS'is'
p833
aS'the'
p834
aS'football'
p835
asI168
(lp836
S'Where'
p837
aS'is'
p838
aS'the'
p839
aS'football'
p840
asI169
(lp841
S'Where'
p842
aS'is'
p843
aS'the'
p844
aS'football'
p845
asI170
(lp846
S'Where'
p847
aS'is'
p848
aS'the'
p849
aS'football'
p850
asI171
(lp851
S'Where'
p852
aS'is'
p853
aS'the'
p854
aS'football'
p855
asI172
(lp856
S'Where'
p857
aS'is'
p858
aS'the'
p859
aS'football'
p860
asI173
(lp861
S'Where'
p862
aS'is'
p863
aS'the'
p864
aS'football'
p865
asI174
(lp866
S'Where'
p867
aS'is'
p868
aS'the'
p869
aS'milk'
p870
asI175
(lp871
S'Where'
p872
aS'is'
p873
aS'the'
p874
aS'milk'
p875
asI176
(lp876
S'Where'
p877
aS'is'
p878
aS'the'
p879
aS'apple'
p880
asI177
(lp881
S'Where'
p882
aS'is'
p883
aS'the'
p884
aS'apple'
p885
asI178
(lp886
S'Where'
p887
aS'is'
p888
aS'the'
p889
aS'apple'
p890
asI179
(lp891
S'Where'
p892
aS'is'
p893
aS'the'
p894
aS'football'
p895
asI180
(lp896
S'Where'
p897
aS'is'
p898
aS'the'
p899
aS'football'
p900
asI181
(lp901
S'Where'
p902
aS'is'
p903
aS'the'
p904
aS'milk'
p905
asI182
(lp906
S'Where'
p907
aS'is'
p908
aS'the'
p909
aS'apple'
p910
asI183
(lp911
S'Where'
p912
aS'is'
p913
aS'the'
p914
aS'apple'
p915
asI184
(lp916
S'Where'
p917
aS'is'
p918
aS'the'
p919
aS'apple'
p920
asI185
(lp921
S'Where'
p922
aS'is'
p923
aS'the'
p924
aS'apple'
p925
asI186
(lp926
S'Where'
p927
aS'is'
p928
aS'the'
p929
aS'football'
p930
asI187
(lp931
S'Where'
p932
aS'is'
p933
aS'the'
p934
aS'football'
p935
asI188
(lp936
S'Where'
p937
aS'is'
p938
aS'the'
p939
aS'apple'
p940
asI189
(lp941
S'Where'
p942
aS'is'
p943
aS'the'
p944
aS'apple'
p945
asI190
(lp946
S'Where'
p947
aS'is'
p948
aS'the'
p949
aS'football'
p950
asI191
(lp951
S'Where'
p952
aS'is'
p953
aS'the'
p954
aS'apple'
p955
asI192
(lp956
S'Where'
p957
aS'is'
p958
aS'the'
p959
aS'apple'
p960
asI193
(lp961
S'Where'
p962
aS'is'
p963
aS'the'
p964
aS'milk'
p965
asI194
(lp966
S'Where'
p967
aS'is'
p968
aS'the'
p969
aS'milk'
p970
asI195
(lp971
S'Where'
p972
aS'is'
p973
aS'the'
p974
aS'milk'
p975
asI196
(lp976
S'Where'
p977
aS'is'
p978
aS'the'
p979
aS'apple'
p980
asI197
(lp981
S'Where'
p982
aS'is'
p983
aS'the'
p984
aS'apple'
p985
asI198
(lp986
S'Where'
p987
aS'is'
p988
aS'the'
p989
aS'milk'
p990
asI199
(lp991
S'Where'
p992
aS'is'
p993
aS'the'
p994
aS'milk'
p995
asI200
(lp996
S'Where'
p997
aS'is'
p998
aS'the'
p999
aS'football'
p1000
asI201
(lp1001
S'Where'
p1002
aS'is'
p1003
aS'the'
p1004
aS'apple'
p1005
asI202
(lp1006
S'Where'
p1007
aS'is'
p1008
aS'the'
p1009
aS'apple'
p1010
asI203
(lp1011
S'Where'
p1012
aS'is'
p1013
aS'the'
p1014
aS'milk'
p1015
asI204
(lp1016
S'Where'
p1017
aS'is'
p1018
aS'the'
p1019
aS'milk'
p1020
asI205
(lp1021
S'Where'
p1022
aS'is'
p1023
aS'the'
p1024
aS'milk'
p1025
asI206
(lp1026
S'Where'
p1027
aS'is'
p1028
aS'the'
p1029
aS'apple'
p1030
asI207
(lp1031
S'Where'
p1032
aS'is'
p1033
aS'the'
p1034
aS'apple'
p1035
asI208
(lp1036
S'Where'
p1037
aS'is'
p1038
aS'the'
p1039
aS'apple'
p1040
asI209
(lp1041
S'Where'
p1042
aS'is'
p1043
aS'the'
p1044
aS'apple'
p1045
asI210
(lp1046
S'Where'
p1047
aS'is'
p1048
aS'the'
p1049
aS'apple'
p1050
asI211
(lp1051
S'Where'
p1052
aS'is'
p1053
aS'the'
p1054
aS'milk'
p1055
asI212
(lp1056
S'Where'
p1057
aS'is'
p1058
aS'the'
p1059
aS'milk'
p1060
asI213
(lp1061
S'Where'
p1062
aS'is'
p1063
aS'the'
p1064
aS'apple'
p1065
asI214
(lp1066
S'Where'
p1067
aS'is'
p1068
aS'the'
p1069
aS'apple'
p1070
asI215
(lp1071
S'Where'
p1072
aS'is'
p1073
aS'the'
p1074
aS'apple'
p1075
asI216
(lp1076
S'Where'
p1077
aS'is'
p1078
aS'the'
p1079
aS'apple'
p1080
asI217
(lp1081
S'Where'
p1082
aS'is'
p1083
aS'the'
p1084
aS'apple'
p1085
asI218
(lp1086
S'Where'
p1087
aS'is'
p1088
aS'the'
p1089
aS'football'
p1090
asI219
(lp1091
S'Where'
p1092
aS'is'
p1093
aS'the'
p1094
aS'football'
p1095
asI220
(lp1096
S'Where'
p1097
aS'is'
p1098
aS'the'
p1099
aS'apple'
p1100
asI221
(lp1101
S'Where'
p1102
aS'is'
p1103
aS'the'
p1104
aS'milk'
p1105
asI222
(lp1106
S'Where'
p1107
aS'is'
p1108
aS'the'
p1109
aS'milk'
p1110
asI223
(lp1111
S'Where'
p1112
aS'is'
p1113
aS'the'
p1114
aS'milk'
p1115
asI224
(lp1116
S'Where'
p1117
aS'is'
p1118
aS'the'
p1119
aS'football'
p1120
asI225
(lp1121
S'Where'
p1122
aS'is'
p1123
aS'the'
p1124
aS'football'
p1125
asI226
(lp1126
S'Where'
p1127
aS'is'
p1128
aS'the'
p1129
aS'football'
p1130
asI227
(lp1131
S'Where'
p1132
aS'is'
p1133
aS'the'
p1134
aS'football'
p1135
asI228
(lp1136
S'Where'
p1137
aS'is'
p1138
aS'the'
p1139
aS'football'
p1140
asI229
(lp1141
S'Where'
p1142
aS'is'
p1143
aS'the'
p1144
aS'apple'
p1145
asI230
(lp1146
S'Where'
p1147
aS'is'
p1148
aS'the'
p1149
aS'football'
p1150
asI231
(lp1151
S'Where'
p1152
aS'is'
p1153
aS'the'
p1154
aS'apple'
p1155
asI232
(lp1156
S'Where'
p1157
aS'is'
p1158
aS'the'
p1159
aS'apple'
p1160
asI233
(lp1161
S'Where'
p1162
aS'is'
p1163
aS'the'
p1164
aS'apple'
p1165
asI234
(lp1166
S'Where'
p1167
aS'is'
p1168
aS'the'
p1169
aS'football'
p1170
asI235
(lp1171
S'Where'
p1172
aS'is'
p1173
aS'the'
p1174
aS'football'
p1175
asI236
(lp1176
S'Where'
p1177
aS'is'
p1178
aS'the'
p1179
aS'milk'
p1180
asI237
(lp1181
S'Where'
p1182
aS'is'
p1183
aS'the'
p1184
aS'football'
p1185
asI238
(lp1186
S'Where'
p1187
aS'is'
p1188
aS'the'
p1189
aS'football'
p1190
asI239
(lp1191
S'Where'
p1192
aS'is'
p1193
aS'the'
p1194
aS'football'
p1195
asI240
(lp1196
S'Where'
p1197
aS'is'
p1198
aS'the'
p1199
aS'football'
p1200
asI241
(lp1201
S'Where'
p1202
aS'is'
p1203
aS'the'
p1204
aS'apple'
p1205
asI242
(lp1206
S'Where'
p1207
aS'is'
p1208
aS'the'
p1209
aS'apple'
p1210
asI243
(lp1211
S'Where'
p1212
aS'is'
p1213
aS'the'
p1214
aS'apple'
p1215
asI244
(lp1216
S'Where'
p1217
aS'is'
p1218
aS'the'
p1219
aS'milk'
p1220
asI245
(lp1221
S'Where'
p1222
aS'is'
p1223
aS'the'
p1224
aS'milk'
p1225
asI246
(lp1226
S'Where'
p1227
aS'is'
p1228
aS'the'
p1229
aS'football'
p1230
asI247
(lp1231
S'Where'
p1232
aS'is'
p1233
aS'the'
p1234
aS'milk'
p1235
asI248
(lp1236
S'Where'
p1237
aS'is'
p1238
aS'the'
p1239
aS'apple'
p1240
asI249
(lp1241
S'Where'
p1242
aS'is'
p1243
aS'the'
p1244
aS'apple'
p1245
asI250
(lp1246
S'Where'
p1247
aS'is'
p1248
aS'the'
p1249
aS'milk'
p1250
asI251
(lp1251
S'Where'
p1252
aS'is'
p1253
aS'the'
p1254
aS'football'
p1255
asI252
(lp1256
S'Where'
p1257
aS'is'
p1258
aS'the'
p1259
aS'football'
p1260
asI253
(lp1261
S'Where'
p1262
aS'is'
p1263
aS'the'
p1264
aS'football'
p1265
asI254
(lp1266
S'Where'
p1267
aS'is'
p1268
aS'the'
p1269
aS'milk'
p1270
asI255
(lp1271
S'Where'
p1272
aS'is'
p1273
aS'the'
p1274
aS'milk'
p1275
asI256
(lp1276
S'Where'
p1277
aS'is'
p1278
aS'the'
p1279
aS'apple'
p1280
asI257
(lp1281
S'Where'
p1282
aS'is'
p1283
aS'the'
p1284
aS'milk'
p1285
asI258
(lp1286
S'Where'
p1287
aS'is'
p1288
aS'the'
p1289
aS'apple'
p1290
asI259
(lp1291
S'Where'
p1292
aS'is'
p1293
aS'the'
p1294
aS'apple'
p1295
asI260
(lp1296
S'Where'
p1297
aS'is'
p1298
aS'the'
p1299
aS'milk'
p1300
asI261
(lp1301
S'Where'
p1302
aS'is'
p1303
aS'the'
p1304
aS'milk'
p1305
asI262
(lp1306
S'Where'
p1307
aS'is'
p1308
aS'the'
p1309
aS'milk'
p1310
asI263
(lp1311
S'Where'
p1312
aS'is'
p1313
aS'the'
p1314
aS'apple'
p1315
asI264
(lp1316
S'Where'
p1317
aS'is'
p1318
aS'the'
p1319
aS'apple'
p1320
asI265
(lp1321
S'Where'
p1322
aS'is'
p1323
aS'the'
p1324
aS'apple'
p1325
asI266
(lp1326
S'Where'
p1327
aS'is'
p1328
aS'the'
p1329
aS'milk'
p1330
asI267
(lp1331
S'Where'
p1332
aS'is'
p1333
aS'the'
p1334
aS'milk'
p1335
asI268
(lp1336
S'Where'
p1337
aS'is'
p1338
aS'the'
p1339
aS'football'
p1340
asI269
(lp1341
S'Where'
p1342
aS'is'
p1343
aS'the'
p1344
aS'football'
p1345
asI270
(lp1346
S'Where'
p1347
aS'is'
p1348
aS'the'
p1349
aS'football'
p1350
asI271
(lp1351
S'Where'
p1352
aS'is'
p1353
aS'the'
p1354
aS'milk'
p1355
asI272
(lp1356
S'Where'
p1357
aS'is'
p1358
aS'the'
p1359
aS'milk'
p1360
asI273
(lp1361
S'Where'
p1362
aS'is'
p1363
aS'the'
p1364
aS'milk'
p1365
asI274
(lp1366
S'Where'
p1367
aS'is'
p1368
aS'the'
p1369
aS'apple'
p1370
asI275
(lp1371
S'Where'
p1372
aS'is'
p1373
aS'the'
p1374
aS'apple'
p1375
asI276
(lp1376
S'Where'
p1377
aS'is'
p1378
aS'the'
p1379
aS'milk'
p1380
asI277
(lp1381
S'Where'
p1382
aS'is'
p1383
aS'the'
p1384
aS'milk'
p1385
asI278
(lp1386
S'Where'
p1387
aS'is'
p1388
aS'the'
p1389
aS'football'
p1390
asI279
(lp1391
S'Where'
p1392
aS'is'
p1393
aS'the'
p1394
aS'milk'
p1395
asI280
(lp1396
S'Where'
p1397
aS'is'
p1398
aS'the'
p1399
aS'milk'
p1400
asI281
(lp1401
S'Where'
p1402
aS'is'
p1403
aS'the'
p1404
aS'apple'
p1405
asI282
(lp1406
S'Where'
p1407
aS'is'
p1408
aS'the'
p1409
aS'football'
p1410
asI283
(lp1411
S'Where'
p1412
aS'is'
p1413
aS'the'
p1414
aS'apple'
p1415
asI284
(lp1416
S'Where'
p1417
aS'is'
p1418
aS'the'
p1419
aS'milk'
p1420
asI285
(lp1421
S'Where'
p1422
aS'is'
p1423
aS'the'
p1424
aS'milk'
p1425
asI286
(lp1426
S'Where'
p1427
aS'is'
p1428
aS'the'
p1429
aS'milk'
p1430
asI287
(lp1431
S'Where'
p1432
aS'is'
p1433
aS'the'
p1434
aS'milk'
p1435
asI288
(lp1436
S'Where'
p1437
aS'is'
p1438
aS'the'
p1439
aS'milk'
p1440
asI289
(lp1441
S'Where'
p1442
aS'is'
p1443
aS'the'
p1444
aS'milk'
p1445
asI290
(lp1446
S'Where'
p1447
aS'is'
p1448
aS'the'
p1449
aS'milk'
p1450
asI291
(lp1451
S'Where'
p1452
aS'is'
p1453
aS'the'
p1454
aS'milk'
p1455
asI292
(lp1456
S'Where'
p1457
aS'is'
p1458
aS'the'
p1459
aS'apple'
p1460
asI293
(lp1461
S'Where'
p1462
aS'is'
p1463
aS'the'
p1464
aS'apple'
p1465
asI294
(lp1466
S'Where'
p1467
aS'is'
p1468
aS'the'
p1469
aS'milk'
p1470
asI295
(lp1471
S'Where'
p1472
aS'is'
p1473
aS'the'
p1474
aS'milk'
p1475
asI296
(lp1476
S'Where'
p1477
aS'is'
p1478
aS'the'
p1479
aS'football'
p1480
asI297
(lp1481
S'Where'
p1482
aS'is'
p1483
aS'the'
p1484
aS'milk'
p1485
asI298
(lp1486
S'Where'
p1487
aS'is'
p1488
aS'the'
p1489
aS'milk'
p1490
asI299
(lp1491
S'Where'
p1492
aS'is'
p1493
aS'the'
p1494
aS'milk'
p1495
asI300
(lp1496
S'Where'
p1497
aS'is'
p1498
aS'the'
p1499
aS'milk'
p1500
asI301
(lp1501
S'Where'
p1502
aS'is'
p1503
aS'the'
p1504
aS'football'
p1505
asI302
(lp1506
S'Where'
p1507
aS'is'
p1508
aS'the'
p1509
aS'football'
p1510
asI303
(lp1511
S'Where'
p1512
aS'is'
p1513
aS'the'
p1514
aS'apple'
p1515
asI304
(lp1516
S'Where'
p1517
aS'is'
p1518
aS'the'
p1519
aS'apple'
p1520
asI305
(lp1521
S'Where'
p1522
aS'is'
p1523
aS'the'
p1524
aS'milk'
p1525
asI306
(lp1526
S'Where'
p1527
aS'is'
p1528
aS'the'
p1529
aS'apple'
p1530
asI307
(lp1531
S'Where'
p1532
aS'is'
p1533
aS'the'
p1534
aS'apple'
p1535
asI308
(lp1536
S'Where'
p1537
aS'is'
p1538
aS'the'
p1539
aS'apple'
p1540
asI309
(lp1541
S'Where'
p1542
aS'is'
p1543
aS'the'
p1544
aS'apple'
p1545
asI310
(lp1546
S'Where'
p1547
aS'is'
p1548
aS'the'
p1549
aS'apple'
p1550
asI311
(lp1551
S'Where'
p1552
aS'is'
p1553
aS'the'
p1554
aS'apple'
p1555
asI312
(lp1556
S'Where'
p1557
aS'is'
p1558
aS'the'
p1559
aS'apple'
p1560
asI313
(lp1561
S'Where'
p1562
aS'is'
p1563
aS'the'
p1564
aS'apple'
p1565
asI314
(lp1566
S'Where'
p1567
aS'is'
p1568
aS'the'
p1569
aS'apple'
p1570
asI315
(lp1571
S'Where'
p1572
aS'is'
p1573
aS'the'
p1574
aS'apple'
p1575
asI316
(lp1576
S'Where'
p1577
aS'is'
p1578
aS'the'
p1579
aS'football'
p1580
asI317
(lp1581
S'Where'
p1582
aS'is'
p1583
aS'the'
p1584
aS'milk'
p1585
asI318
(lp1586
S'Where'
p1587
aS'is'
p1588
aS'the'
p1589
aS'apple'
p1590
asI319
(lp1591
S'Where'
p1592
aS'is'
p1593
aS'the'
p1594
aS'football'
p1595
asI320
(lp1596
S'Where'
p1597
aS'is'
p1598
aS'the'
p1599
aS'football'
p1600
asI321
(lp1601
S'Where'
p1602
aS'is'
p1603
aS'the'
p1604
aS'apple'
p1605
asI322
(lp1606
S'Where'
p1607
aS'is'
p1608
aS'the'
p1609
aS'milk'
p1610
asI323
(lp1611
S'Where'
p1612
aS'is'
p1613
aS'the'
p1614
aS'apple'
p1615
asI324
(lp1616
S'Where'
p1617
aS'is'
p1618
aS'the'
p1619
aS'milk'
p1620
asI325
(lp1621
S'Where'
p1622
aS'is'
p1623
aS'the'
p1624
aS'milk'
p1625
asI326
(lp1626
S'Where'
p1627
aS'is'
p1628
aS'the'
p1629
aS'milk'
p1630
asI327
(lp1631
S'Where'
p1632
aS'is'
p1633
aS'the'
p1634
aS'milk'
p1635
asI328
(lp1636
S'Where'
p1637
aS'is'
p1638
aS'the'
p1639
aS'milk'
p1640
asI329
(lp1641
S'Where'
p1642
aS'is'
p1643
aS'the'
p1644
aS'football'
p1645
asI330
(lp1646
S'Where'
p1647
aS'is'
p1648
aS'the'
p1649
aS'football'
p1650
asI331
(lp1651
S'Where'
p1652
aS'is'
p1653
aS'the'
p1654
aS'apple'
p1655
asI332
(lp1656
S'Where'
p1657
aS'is'
p1658
aS'the'
p1659
aS'apple'
p1660
asI333
(lp1661
S'Where'
p1662
aS'is'
p1663
aS'the'
p1664
aS'apple'
p1665
asI334
(lp1666
S'Where'
p1667
aS'is'
p1668
aS'the'
p1669
aS'apple'
p1670
asI335
(lp1671
S'Where'
p1672
aS'is'
p1673
aS'the'
p1674
aS'apple'
p1675
asI336
(lp1676
S'Where'
p1677
aS'is'
p1678
aS'the'
p1679
aS'football'
p1680
asI337
(lp1681
S'Where'
p1682
aS'is'
p1683
aS'the'
p1684
aS'milk'
p1685
asI338
(lp1686
S'Where'
p1687
aS'is'
p1688
aS'the'
p1689
aS'football'
p1690
asI339
(lp1691
S'Where'
p1692
aS'is'
p1693
aS'the'
p1694
aS'football'
p1695
asI340
(lp1696
S'Where'
p1697
aS'is'
p1698
aS'the'
p1699
aS'football'
p1700
asI341
(lp1701
S'Where'
p1702
aS'is'
p1703
aS'the'
p1704
aS'football'
p1705
asI342
(lp1706
S'Where'
p1707
aS'is'
p1708
aS'the'
p1709
aS'football'
p1710
asI343
(lp1711
S'Where'
p1712
aS'is'
p1713
aS'the'
p1714
aS'football'
p1715
asI344
(lp1716
S'Where'
p1717
aS'is'
p1718
aS'the'
p1719
aS'football'
p1720
asI345
(lp1721
S'Where'
p1722
aS'is'
p1723
aS'the'
p1724
aS'football'
p1725
asI346
(lp1726
S'Where'
p1727
aS'is'
p1728
aS'the'
p1729
aS'apple'
p1730
asI347
(lp1731
S'Where'
p1732
aS'is'
p1733
aS'the'
p1734
aS'apple'
p1735
asI348
(lp1736
S'Where'
p1737
aS'is'
p1738
aS'the'
p1739
aS'football'
p1740
asI349
(lp1741
S'Where'
p1742
aS'is'
p1743
aS'the'
p1744
aS'milk'
p1745
asI350
(lp1746
S'Where'
p1747
aS'is'
p1748
aS'the'
p1749
aS'milk'
p1750
asI351
(lp1751
S'Where'
p1752
aS'is'
p1753
aS'the'
p1754
aS'football'
p1755
asI352
(lp1756
S'Where'
p1757
aS'is'
p1758
aS'the'
p1759
aS'football'
p1760
asI353
(lp1761
S'Where'
p1762
aS'is'
p1763
aS'the'
p1764
aS'milk'
p1765
asI354
(lp1766
S'Where'
p1767
aS'is'
p1768
aS'the'
p1769
aS'milk'
p1770
asI355
(lp1771
S'Where'
p1772
aS'is'
p1773
aS'the'
p1774
aS'apple'
p1775
asI356
(lp1776
S'Where'
p1777
aS'is'
p1778
aS'the'
p1779
aS'apple'
p1780
asI357
(lp1781
S'Where'
p1782
aS'is'
p1783
aS'the'
p1784
aS'milk'
p1785
asI358
(lp1786
S'Where'
p1787
aS'is'
p1788
aS'the'
p1789
aS'milk'
p1790
asI359
(lp1791
S'Where'
p1792
aS'is'
p1793
aS'the'
p1794
aS'apple'
p1795
asI360
(lp1796
S'Where'
p1797
aS'is'
p1798
aS'the'
p1799
aS'football'
p1800
asI361
(lp1801
S'Where'
p1802
aS'is'
p1803
aS'the'
p1804
aS'football'
p1805
asI362
(lp1806
S'Where'
p1807
aS'is'
p1808
aS'the'
p1809
aS'football'
p1810
asI363
(lp1811
S'Where'
p1812
aS'is'
p1813
aS'the'
p1814
aS'football'
p1815
asI364
(lp1816
S'Where'
p1817
aS'is'
p1818
aS'the'
p1819
aS'football'
p1820
asI365
(lp1821
S'Where'
p1822
aS'is'
p1823
aS'the'
p1824
aS'football'
p1825
asI366
(lp1826
S'Where'
p1827
aS'is'
p1828
aS'the'
p1829
aS'football'
p1830
asI367
(lp1831
S'Where'
p1832
aS'is'
p1833
aS'the'
p1834
aS'football'
p1835
asI368
(lp1836
S'Where'
p1837
aS'is'
p1838
aS'the'
p1839
aS'milk'
p1840
asI369
(lp1841
S'Where'
p1842
aS'is'
p1843
aS'the'
p1844
aS'milk'
p1845
asI370
(lp1846
S'Where'
p1847
aS'is'
p1848
aS'the'
p1849
aS'football'
p1850
asI371
(lp1851
S'Where'
p1852
aS'is'
p1853
aS'the'
p1854
aS'football'
p1855
asI372
(lp1856
S'Where'
p1857
aS'is'
p1858
aS'the'
p1859
aS'football'
p1860
asI373
(lp1861
S'Where'
p1862
aS'is'
p1863
aS'the'
p1864
aS'football'
p1865
asI374
(lp1866
S'Where'
p1867
aS'is'
p1868
aS'the'
p1869
aS'apple'
p1870
asI375
(lp1871
S'Where'
p1872
aS'is'
p1873
aS'the'
p1874
aS'apple'
p1875
asI376
(lp1876
S'Where'
p1877
aS'is'
p1878
aS'the'
p1879
aS'football'
p1880
asI377
(lp1881
S'Where'
p1882
aS'is'
p1883
aS'the'
p1884
aS'milk'
p1885
asI378
(lp1886
S'Where'
p1887
aS'is'
p1888
aS'the'
p1889
aS'apple'
p1890
asI379
(lp1891
S'Where'
p1892
aS'is'
p1893
aS'the'
p1894
aS'apple'
p1895
asI380
(lp1896
S'Where'
p1897
aS'is'
p1898
aS'the'
p1899
aS'football'
p1900
asI381
(lp1901
S'Where'
p1902
aS'is'
p1903
aS'the'
p1904
aS'football'
p1905
asI382
(lp1906
S'Where'
p1907
aS'is'
p1908
aS'the'
p1909
aS'football'
p1910
asI383
(lp1911
S'Where'
p1912
aS'is'
p1913
aS'the'
p1914
aS'football'
p1915
asI384
(lp1916
S'Where'
p1917
aS'is'
p1918
aS'the'
p1919
aS'football'
p1920
asI385
(lp1921
S'Where'
p1922
aS'is'
p1923
aS'the'
p1924
aS'apple'
p1925
asI386
(lp1926
S'Where'
p1927
aS'is'
p1928
aS'the'
p1929
aS'milk'
p1930
asI387
(lp1931
S'Where'
p1932
aS'is'
p1933
aS'the'
p1934
aS'milk'
p1935
asI388
(lp1936
S'Where'
p1937
aS'is'
p1938
aS'the'
p1939
aS'milk'
p1940
asI389
(lp1941
S'Where'
p1942
aS'is'
p1943
aS'the'
p1944
aS'football'
p1945
asI390
(lp1946
S'Where'
p1947
aS'is'
p1948
aS'the'
p1949
aS'football'
p1950
asI391
(lp1951
S'Where'
p1952
aS'is'
p1953
aS'the'
p1954
aS'milk'
p1955
asI392
(lp1956
S'Where'
p1957
aS'is'
p1958
aS'the'
p1959
aS'milk'
p1960
asI393
(lp1961
S'Where'
p1962
aS'is'
p1963
aS'the'
p1964
aS'football'
p1965
asI394
(lp1966
S'Where'
p1967
aS'is'
p1968
aS'the'
p1969
aS'football'
p1970
asI395
(lp1971
S'Where'
p1972
aS'is'
p1973
aS'the'
p1974
aS'milk'
p1975
asI396
(lp1976
S'Where'
p1977
aS'is'
p1978
aS'the'
p1979
aS'milk'
p1980
asI397
(lp1981
S'Where'
p1982
aS'is'
p1983
aS'the'
p1984
aS'milk'
p1985
asI398
(lp1986
S'Where'
p1987
aS'is'
p1988
aS'the'
p1989
aS'milk'
p1990
asI399
(lp1991
S'Where'
p1992
aS'is'
p1993
aS'the'
p1994
aS'milk'
p1995
asI400
(lp1996
S'Where'
p1997
aS'is'
p1998
aS'the'
p1999
aS'apple'
p2000
asI401
(lp2001
S'Where'
p2002
aS'is'
p2003
aS'the'
p2004
aS'football'
p2005
asI402
(lp2006
S'Where'
p2007
aS'is'
p2008
aS'the'
p2009
aS'football'
p2010
asI403
(lp2011
S'Where'
p2012
aS'is'
p2013
aS'the'
p2014
aS'milk'
p2015
asI404
(lp2016
S'Where'
p2017
aS'is'
p2018
aS'the'
p2019
aS'milk'
p2020
asI405
(lp2021
S'Where'
p2022
aS'is'
p2023
aS'the'
p2024
aS'milk'
p2025
asI406
(lp2026
S'Where'
p2027
aS'is'
p2028
aS'the'
p2029
aS'apple'
p2030
asI407
(lp2031
S'Where'
p2032
aS'is'
p2033
aS'the'
p2034
aS'apple'
p2035
asI408
(lp2036
S'Where'
p2037
aS'is'
p2038
aS'the'
p2039
aS'apple'
p2040
asI409
(lp2041
S'Where'
p2042
aS'is'
p2043
aS'the'
p2044
aS'football'
p2045
asI410
(lp2046
S'Where'
p2047
aS'is'
p2048
aS'the'
p2049
aS'football'
p2050
asI411
(lp2051
S'Where'
p2052
aS'is'
p2053
aS'the'
p2054
aS'football'
p2055
asI412
(lp2056
S'Where'
p2057
aS'is'
p2058
aS'the'
p2059
aS'apple'
p2060
asI413
(lp2061
S'Where'
p2062
aS'is'
p2063
aS'the'
p2064
aS'apple'
p2065
asI414
(lp2066
S'Where'
p2067
aS'is'
p2068
aS'the'
p2069
aS'apple'
p2070
asI415
(lp2071
S'Where'
p2072
aS'is'
p2073
aS'the'
p2074
aS'apple'
p2075
asI416
(lp2076
S'Where'
p2077
aS'is'
p2078
aS'the'
p2079
aS'apple'
p2080
asI417
(lp2081
S'Where'
p2082
aS'is'
p2083
aS'the'
p2084
aS'apple'
p2085
asI418
(lp2086
S'Where'
p2087
aS'is'
p2088
aS'the'
p2089
aS'milk'
p2090
asI419
(lp2091
S'Where'
p2092
aS'is'
p2093
aS'the'
p2094
aS'football'
p2095
asI420
(lp2096
S'Where'
p2097
aS'is'
p2098
aS'the'
p2099
aS'football'
p2100
asI421
(lp2101
S'Where'
p2102
aS'is'
p2103
aS'the'
p2104
aS'football'
p2105
asI422
(lp2106
S'Where'
p2107
aS'is'
p2108
aS'the'
p2109
aS'apple'
p2110
asI423
(lp2111
S'Where'
p2112
aS'is'
p2113
aS'the'
p2114
aS'apple'
p2115
asI424
(lp2116
S'Where'
p2117
aS'is'
p2118
aS'the'
p2119
aS'football'
p2120
asI425
(lp2121
S'Where'
p2122
aS'is'
p2123
aS'the'
p2124
aS'football'
p2125
asI426
(lp2126
S'Where'
p2127
aS'is'
p2128
aS'the'
p2129
aS'apple'
p2130
asI427
(lp2131
S'Where'
p2132
aS'is'
p2133
aS'the'
p2134
aS'apple'
p2135
asI428
(lp2136
S'Where'
p2137
aS'is'
p2138
aS'the'
p2139
aS'apple'
p2140
asI429
(lp2141
S'Where'
p2142
aS'is'
p2143
aS'the'
p2144
aS'apple'
p2145
asI430
(lp2146
S'Where'
p2147
aS'is'
p2148
aS'the'
p2149
aS'apple'
p2150
asI431
(lp2151
S'Where'
p2152
aS'is'
p2153
aS'the'
p2154
aS'apple'
p2155
asI432
(lp2156
S'Where'
p2157
aS'is'
p2158
aS'the'
p2159
aS'football'
p2160
asI433
(lp2161
S'Where'
p2162
aS'is'
p2163
aS'the'
p2164
aS'football'
p2165
asI434
(lp2166
S'Where'
p2167
aS'is'
p2168
aS'the'
p2169
aS'football'
p2170
asI435
(lp2171
S'Where'
p2172
aS'is'
p2173
aS'the'
p2174
aS'football'
p2175
asI436
(lp2176
S'Where'
p2177
aS'is'
p2178
aS'the'
p2179
aS'apple'
p2180
asI437
(lp2181
S'Where'
p2182
aS'is'
p2183
aS'the'
p2184
aS'apple'
p2185
asI438
(lp2186
S'Where'
p2187
aS'is'
p2188
aS'the'
p2189
aS'apple'
p2190
asI439
(lp2191
S'Where'
p2192
aS'is'
p2193
aS'the'
p2194
aS'apple'
p2195
asI440
(lp2196
S'Where'
p2197
aS'is'
p2198
aS'the'
p2199
aS'apple'
p2200
asI441
(lp2201
S'Where'
p2202
aS'is'
p2203
aS'the'
p2204
aS'milk'
p2205
asI442
(lp2206
S'Where'
p2207
aS'is'
p2208
aS'the'
p2209
aS'milk'
p2210
asI443
(lp2211
S'Where'
p2212
aS'is'
p2213
aS'the'
p2214
aS'milk'
p2215
asI444
(lp2216
S'Where'
p2217
aS'is'
p2218
aS'the'
p2219
aS'milk'
p2220
asI445
(lp2221
S'Where'
p2222
aS'is'
p2223
aS'the'
p2224
aS'milk'
p2225
asI446
(lp2226
S'Where'
p2227
aS'is'
p2228
aS'the'
p2229
aS'football'
p2230
asI447
(lp2231
S'Where'
p2232
aS'is'
p2233
aS'the'
p2234
aS'apple'
p2235
asI448
(lp2236
S'Where'
p2237
aS'is'
p2238
aS'the'
p2239
aS'apple'
p2240
asI449
(lp2241
S'Where'
p2242
aS'is'
p2243
aS'the'
p2244
aS'football'
p2245
asI450
(lp2246
S'Where'
p2247
aS'is'
p2248
aS'the'
p2249
aS'football'
p2250
asI451
(lp2251
S'Where'
p2252
aS'is'
p2253
aS'the'
p2254
aS'football'
p2255
asI452
(lp2256
S'Where'
p2257
aS'is'
p2258
aS'the'
p2259
aS'football'
p2260
asI453
(lp2261
S'Where'
p2262
aS'is'
p2263
aS'the'
p2264
aS'football'
p2265
asI454
(lp2266
S'Where'
p2267
aS'is'
p2268
aS'the'
p2269
aS'football'
p2270
asI455
(lp2271
S'Where'
p2272
aS'is'
p2273
aS'the'
p2274
aS'football'
p2275
asI456
(lp2276
S'Where'
p2277
aS'is'
p2278
aS'the'
p2279
aS'football'
p2280
asI457
(lp2281
S'Where'
p2282
aS'is'
p2283
aS'the'
p2284
aS'football'
p2285
asI458
(lp2286
S'Where'
p2287
aS'is'
p2288
aS'the'
p2289
aS'football'
p2290
asI459
(lp2291
S'Where'
p2292
aS'is'
p2293
aS'the'
p2294
aS'milk'
p2295
asI460
(lp2296
S'Where'
p2297
aS'is'
p2298
aS'the'
p2299
aS'milk'
p2300
asI461
(lp2301
S'Where'
p2302
aS'is'
p2303
aS'the'
p2304
aS'milk'
p2305
asI462
(lp2306
S'Where'
p2307
aS'is'
p2308
aS'the'
p2309
aS'milk'
p2310
asI463
(lp2311
S'Where'
p2312
aS'is'
p2313
aS'the'
p2314
aS'milk'
p2315
asI464
(lp2316
S'Where'
p2317
aS'is'
p2318
aS'the'
p2319
aS'football'
p2320
asI465
(lp2321
S'Where'
p2322
aS'is'
p2323
aS'the'
p2324
aS'football'
p2325
asI466
(lp2326
S'Where'
p2327
aS'is'
p2328
aS'the'
p2329
aS'milk'
p2330
asI467
(lp2331
S'Where'
p2332
aS'is'
p2333
aS'the'
p2334
aS'milk'
p2335
asI468
(lp2336
S'Where'
p2337
aS'is'
p2338
aS'the'
p2339
aS'milk'
p2340
asI469
(lp2341
S'Where'
p2342
aS'is'
p2343
aS'the'
p2344
aS'milk'
p2345
asI470
(lp2346
S'Where'
p2347
aS'is'
p2348
aS'the'
p2349
aS'milk'
p2350
asI471
(lp2351
S'Where'
p2352
aS'is'
p2353
aS'the'
p2354
aS'football'
p2355
asI472
(lp2356
S'Where'
p2357
aS'is'
p2358
aS'the'
p2359
aS'football'
p2360
asI473
(lp2361
S'Where'
p2362
aS'is'
p2363
aS'the'
p2364
aS'football'
p2365
asI474
(lp2366
S'Where'
p2367
aS'is'
p2368
aS'the'
p2369
aS'apple'
p2370
asI475
(lp2371
S'Where'
p2372
aS'is'
p2373
aS'the'
p2374
aS'apple'
p2375
asI476
(lp2376
S'Where'
p2377
aS'is'
p2378
aS'the'
p2379
aS'milk'
p2380
asI477
(lp2381
S'Where'
p2382
aS'is'
p2383
aS'the'
p2384
aS'milk'
p2385
asI478
(lp2386
S'Where'
p2387
aS'is'
p2388
aS'the'
p2389
aS'milk'
p2390
asI479
(lp2391
S'Where'
p2392
aS'is'
p2393
aS'the'
p2394
aS'milk'
p2395
asI480
(lp2396
S'Where'
p2397
aS'is'
p2398
aS'the'
p2399
aS'football'
p2400
asI481
(lp2401
S'Where'
p2402
aS'is'
p2403
aS'the'
p2404
aS'milk'
p2405
asI482
(lp2406
S'Where'
p2407
aS'is'
p2408
aS'the'
p2409
aS'milk'
p2410
asI483
(lp2411
S'Where'
p2412
aS'is'
p2413
aS'the'
p2414
aS'milk'
p2415
asI484
(lp2416
S'Where'
p2417
aS'is'
p2418
aS'the'
p2419
aS'milk'
p2420
asI485
(lp2421
S'Where'
p2422
aS'is'
p2423
aS'the'
p2424
aS'apple'
p2425
asI486
(lp2426
S'Where'
p2427
aS'is'
p2428
aS'the'
p2429
aS'milk'
p2430
asI487
(lp2431
S'Where'
p2432
aS'is'
p2433
aS'the'
p2434
aS'football'
p2435
asI488
(lp2436
S'Where'
p2437
aS'is'
p2438
aS'the'
p2439
aS'milk'
p2440
asI489
(lp2441
S'Where'
p2442
aS'is'
p2443
aS'the'
p2444
aS'milk'
p2445
asI490
(lp2446
S'Where'
p2447
aS'is'
p2448
aS'the'
p2449
aS'apple'
p2450
asI491
(lp2451
S'Where'
p2452
aS'is'
p2453
aS'the'
p2454
aS'apple'
p2455
asI492
(lp2456
S'Where'
p2457
aS'is'
p2458
aS'the'
p2459
aS'milk'
p2460
asI493
(lp2461
S'Where'
p2462
aS'is'
p2463
aS'the'
p2464
aS'apple'
p2465
asI494
(lp2466
S'Where'
p2467
aS'is'
p2468
aS'the'
p2469
aS'apple'
p2470
asI495
(lp2471
S'Where'
p2472
aS'is'
p2473
aS'the'
p2474
aS'apple'
p2475
asI496
(lp2476
S'Where'
p2477
aS'is'
p2478
aS'the'
p2479
aS'football'
p2480
asI497
(lp2481
S'Where'
p2482
aS'is'
p2483
aS'the'
p2484
aS'football'
p2485
asI498
(lp2486
S'Where'
p2487
aS'is'
p2488
aS'the'
p2489
aS'football'
p2490
asI499
(lp2491
S'Where'
p2492
aS'is'
p2493
aS'the'
p2494
aS'football'
p2495
asI500
(lp2496
S'Where'
p2497
aS'is'
p2498
aS'the'
p2499
aS'milk'
p2500
asI501
(lp2501
S'Where'
p2502
aS'is'
p2503
aS'the'
p2504
aS'football'
p2505
asI502
(lp2506
S'Where'
p2507
aS'is'
p2508
aS'the'
p2509
aS'football'
p2510
asI503
(lp2511
S'Where'
p2512
aS'is'
p2513
aS'the'
p2514
aS'milk'
p2515
asI504
(lp2516
S'Where'
p2517
aS'is'
p2518
aS'the'
p2519
aS'milk'
p2520
asI505
(lp2521
S'Where'
p2522
aS'is'
p2523
aS'the'
p2524
aS'football'
p2525
asI506
(lp2526
S'Where'
p2527
aS'is'
p2528
aS'the'
p2529
aS'apple'
p2530
asI507
(lp2531
S'Where'
p2532
aS'is'
p2533
aS'the'
p2534
aS'apple'
p2535
asI508
(lp2536
S'Where'
p2537
aS'is'
p2538
aS'the'
p2539
aS'apple'
p2540
asI509
(lp2541
S'Where'
p2542
aS'is'
p2543
aS'the'
p2544
aS'milk'
p2545
asI510
(lp2546
S'Where'
p2547
aS'is'
p2548
aS'the'
p2549
aS'milk'
p2550
asI511
(lp2551
S'Where'
p2552
aS'is'
p2553
aS'the'
p2554
aS'football'
p2555
asI512
(lp2556
S'Where'
p2557
aS'is'
p2558
aS'the'
p2559
aS'football'
p2560
asI513
(lp2561
S'Where'
p2562
aS'is'
p2563
aS'the'
p2564
aS'football'
p2565
asI514
(lp2566
S'Where'
p2567
aS'is'
p2568
aS'the'
p2569
aS'football'
p2570
asI515
(lp2571
S'Where'
p2572
aS'is'
p2573
aS'the'
p2574
aS'milk'
p2575
asI516
(lp2576
S'Where'
p2577
aS'is'
p2578
aS'the'
p2579
aS'apple'
p2580
asI517
(lp2581
S'Where'
p2582
aS'is'
p2583
aS'the'
p2584
aS'apple'
p2585
asI518
(lp2586
S'Where'
p2587
aS'is'
p2588
aS'the'
p2589
aS'milk'
p2590
asI519
(lp2591
S'Where'
p2592
aS'is'
p2593
aS'the'
p2594
aS'milk'
p2595
asI520
(lp2596
S'Where'
p2597
aS'is'
p2598
aS'the'
p2599
aS'milk'
p2600
asI521
(lp2601
S'Where'
p2602
aS'is'
p2603
aS'the'
p2604
aS'football'
p2605
asI522
(lp2606
S'Where'
p2607
aS'is'
p2608
aS'the'
p2609
aS'football'
p2610
asI523
(lp2611
S'Where'
p2612
aS'is'
p2613
aS'the'
p2614
aS'apple'
p2615
asI524
(lp2616
S'Where'
p2617
aS'is'
p2618
aS'the'
p2619
aS'football'
p2620
asI525
(lp2621
S'Where'
p2622
aS'is'
p2623
aS'the'
p2624
aS'apple'
p2625
asI526
(lp2626
S'Where'
p2627
aS'is'
p2628
aS'the'
p2629
aS'milk'
p2630
asI527
(lp2631
S'Where'
p2632
aS'is'
p2633
aS'the'
p2634
aS'milk'
p2635
asI528
(lp2636
S'Where'
p2637
aS'is'
p2638
aS'the'
p2639
aS'apple'
p2640
asI529
(lp2641
S'Where'
p2642
aS'is'
p2643
aS'the'
p2644
aS'apple'
p2645
asI530
(lp2646
S'Where'
p2647
aS'is'
p2648
aS'the'
p2649
aS'apple'
p2650
asI531
(lp2651
S'Where'
p2652
aS'is'
p2653
aS'the'
p2654
aS'milk'
p2655
asI532
(lp2656
S'Where'
p2657
aS'is'
p2658
aS'the'
p2659
aS'milk'
p2660
asI533
(lp2661
S'Where'
p2662
aS'is'
p2663
aS'the'
p2664
aS'milk'
p2665
asI534
(lp2666
S'Where'
p2667
aS'is'
p2668
aS'the'
p2669
aS'football'
p2670
asI535
(lp2671
S'Where'
p2672
aS'is'
p2673
aS'the'
p2674
aS'football'
p2675
asI536
(lp2676
S'Where'
p2677
aS'is'
p2678
aS'the'
p2679
aS'football'
p2680
asI537
(lp2681
S'Where'
p2682
aS'is'
p2683
aS'the'
p2684
aS'football'
p2685
asI538
(lp2686
S'Where'
p2687
aS'is'
p2688
aS'the'
p2689
aS'football'
p2690
asI539
(lp2691
S'Where'
p2692
aS'is'
p2693
aS'the'
p2694
aS'football'
p2695
asI540
(lp2696
S'Where'
p2697
aS'is'
p2698
aS'the'
p2699
aS'football'
p2700
asI541
(lp2701
S'Where'
p2702
aS'is'
p2703
aS'the'
p2704
aS'football'
p2705
asI542
(lp2706
S'Where'
p2707
aS'is'
p2708
aS'the'
p2709
aS'apple'
p2710
asI543
(lp2711
S'Where'
p2712
aS'is'
p2713
aS'the'
p2714
aS'football'
p2715
asI544
(lp2716
S'Where'
p2717
aS'is'
p2718
aS'the'
p2719
aS'apple'
p2720
asI545
(lp2721
S'Where'
p2722
aS'is'
p2723
aS'the'
p2724
aS'football'
p2725
asI546
(lp2726
S'Where'
p2727
aS'is'
p2728
aS'the'
p2729
aS'apple'
p2730
asI547
(lp2731
S'Where'
p2732
aS'is'
p2733
aS'the'
p2734
aS'football'
p2735
asI548
(lp2736
S'Where'
p2737
aS'is'
p2738
aS'the'
p2739
aS'football'
p2740
asI549
(lp2741
S'Where'
p2742
aS'is'
p2743
aS'the'
p2744
aS'football'
p2745
asI550
(lp2746
S'Where'
p2747
aS'is'
p2748
aS'the'
p2749
aS'football'
p2750
asI551
(lp2751
S'Where'
p2752
aS'is'
p2753
aS'the'
p2754
aS'apple'
p2755
asI552
(lp2756
S'Where'
p2757
aS'is'
p2758
aS'the'
p2759
aS'apple'
p2760
asI553
(lp2761
S'Where'
p2762
aS'is'
p2763
aS'the'
p2764
aS'apple'
p2765
asI554
(lp2766
S'Where'
p2767
aS'is'
p2768
aS'the'
p2769
aS'football'
p2770
asI555
(lp2771
S'Where'
p2772
aS'is'
p2773
aS'the'
p2774
aS'apple'
p2775
asI556
(lp2776
S'Where'
p2777
aS'is'
p2778
aS'the'
p2779
aS'milk'
p2780
asI557
(lp2781
S'Where'
p2782
aS'is'
p2783
aS'the'
p2784
aS'milk'
p2785
asI558
(lp2786
S'Where'
p2787
aS'is'
p2788
aS'the'
p2789
aS'apple'
p2790
asI559
(lp2791
S'Where'
p2792
aS'is'
p2793
aS'the'
p2794
aS'apple'
p2795
asI560
(lp2796
S'Where'
p2797
aS'is'
p2798
aS'the'
p2799
aS'milk'
p2800
asI561
(lp2801
S'Where'
p2802
aS'is'
p2803
aS'the'
p2804
aS'football'
p2805
asI562
(lp2806
S'Where'
p2807
aS'is'
p2808
aS'the'
p2809
aS'football'
p2810
asI563
(lp2811
S'Where'
p2812
aS'is'
p2813
aS'the'
p2814
aS'football'
p2815
asI564
(lp2816
S'Where'
p2817
aS'is'
p2818
aS'the'
p2819
aS'football'
p2820
asI565
(lp2821
S'Where'
p2822
aS'is'
p2823
aS'the'
p2824
aS'football'
p2825
asI566
(lp2826
S'Where'
p2827
aS'is'
p2828
aS'the'
p2829
aS'milk'
p2830
asI567
(lp2831
S'Where'
p2832
aS'is'
p2833
aS'the'
p2834
aS'milk'
p2835
asI568
(lp2836
S'Where'
p2837
aS'is'
p2838
aS'the'
p2839
aS'milk'
p2840
asI569
(lp2841
S'Where'
p2842
aS'is'
p2843
aS'the'
p2844
aS'football'
p2845
asI570
(lp2846
S'Where'
p2847
aS'is'
p2848
aS'the'
p2849
aS'football'
p2850
asI571
(lp2851
S'Where'
p2852
aS'is'
p2853
aS'the'
p2854
aS'football'
p2855
asI572
(lp2856
S'Where'
p2857
aS'is'
p2858
aS'the'
p2859
aS'milk'
p2860
asI573
(lp2861
S'Where'
p2862
aS'is'
p2863
aS'the'
p2864
aS'milk'
p2865
asI574
(lp2866
S'Where'
p2867
aS'is'
p2868
aS'the'
p2869
aS'milk'
p2870
asI575
(lp2871
S'Where'
p2872
aS'is'
p2873
aS'the'
p2874
aS'football'
p2875
asI576
(lp2876
S'Where'
p2877
aS'is'
p2878
aS'the'
p2879
aS'football'
p2880
asI577
(lp2881
S'Where'
p2882
aS'is'
p2883
aS'the'
p2884
aS'football'
p2885
asI578
(lp2886
S'Where'
p2887
aS'is'
p2888
aS'the'
p2889
aS'milk'
p2890
asI579
(lp2891
S'Where'
p2892
aS'is'
p2893
aS'the'
p2894
aS'football'
p2895
asI580
(lp2896
S'Where'
p2897
aS'is'
p2898
aS'the'
p2899
aS'football'
p2900
asI581
(lp2901
S'Where'
p2902
aS'is'
p2903
aS'the'
p2904
aS'football'
p2905
asI582
(lp2906
S'Where'
p2907
aS'is'
p2908
aS'the'
p2909
aS'football'
p2910
asI583
(lp2911
S'Where'
p2912
aS'is'
p2913
aS'the'
p2914
aS'football'
p2915
asI584
(lp2916
S'Where'
p2917
aS'is'
p2918
aS'the'
p2919
aS'football'
p2920
asI585
(lp2921
S'Where'
p2922
aS'is'
p2923
aS'the'
p2924
aS'milk'
p2925
asI586
(lp2926
S'Where'
p2927
aS'is'
p2928
aS'the'
p2929
aS'milk'
p2930
asI587
(lp2931
S'Where'
p2932
aS'is'
p2933
aS'the'
p2934
aS'milk'
p2935
asI588
(lp2936
S'Where'
p2937
aS'is'
p2938
aS'the'
p2939
aS'milk'
p2940
asI589
(lp2941
S'Where'
p2942
aS'is'
p2943
aS'the'
p2944
aS'milk'
p2945
asI590
(lp2946
S'Where'
p2947
aS'is'
p2948
aS'the'
p2949
aS'milk'
p2950
asI591
(lp2951
S'Where'
p2952
aS'is'
p2953
aS'the'
p2954
aS'milk'
p2955
asI592
(lp2956
S'Where'
p2957
aS'is'
p2958
aS'the'
p2959
aS'milk'
p2960
asI593
(lp2961
S'Where'
p2962
aS'is'
p2963
aS'the'
p2964
aS'milk'
p2965
asI594
(lp2966
S'Where'
p2967
aS'is'
p2968
aS'the'
p2969
aS'milk'
p2970
asI595
(lp2971
S'Where'
p2972
aS'is'
p2973
aS'the'
p2974
aS'football'
p2975
asI596
(lp2976
S'Where'
p2977
aS'is'
p2978
aS'the'
p2979
aS'milk'
p2980
asI597
(lp2981
S'Where'
p2982
aS'is'
p2983
aS'the'
p2984
aS'milk'
p2985
asI598
(lp2986
S'Where'
p2987
aS'is'
p2988
aS'the'
p2989
aS'milk'
p2990
asI599
(lp2991
S'Where'
p2992
aS'is'
p2993
aS'the'
p2994
aS'milk'
p2995
asI600
(lp2996
S'Where'
p2997
aS'is'
p2998
aS'the'
p2999
aS'apple'
p3000
asI601
(lp3001
S'Where'
p3002
aS'is'
p3003
aS'the'
p3004
aS'apple'
p3005
asI602
(lp3006
S'Where'
p3007
aS'is'
p3008
aS'the'
p3009
aS'apple'
p3010
asI603
(lp3011
S'Where'
p3012
aS'is'
p3013
aS'the'
p3014
aS'apple'
p3015
asI604
(lp3016
S'Where'
p3017
aS'is'
p3018
aS'the'
p3019
aS'apple'
p3020
asI605
(lp3021
S'Where'
p3022
aS'is'
p3023
aS'the'
p3024
aS'football'
p3025
asI606
(lp3026
S'Where'
p3027
aS'is'
p3028
aS'the'
p3029
aS'apple'
p3030
asI607
(lp3031
S'Where'
p3032
aS'is'
p3033
aS'the'
p3034
aS'apple'
p3035
asI608
(lp3036
S'Where'
p3037
aS'is'
p3038
aS'the'
p3039
aS'apple'
p3040
asI609
(lp3041
S'Where'
p3042
aS'is'
p3043
aS'the'
p3044
aS'apple'
p3045
asI610
(lp3046
S'Where'
p3047
aS'is'
p3048
aS'the'
p3049
aS'football'
p3050
asI611
(lp3051
S'Where'
p3052
aS'is'
p3053
aS'the'
p3054
aS'milk'
p3055
asI612
(lp3056
S'Where'
p3057
aS'is'
p3058
aS'the'
p3059
aS'football'
p3060
asI613
(lp3061
S'Where'
p3062
aS'is'
p3063
aS'the'
p3064
aS'football'
p3065
asI614
(lp3066
S'Where'
p3067
aS'is'
p3068
aS'the'
p3069
aS'milk'
p3070
asI615
(lp3071
S'Where'
p3072
aS'is'
p3073
aS'the'
p3074
aS'milk'
p3075
asI616
(lp3076
S'Where'
p3077
aS'is'
p3078
aS'the'
p3079
aS'milk'
p3080
asI617
(lp3081
S'Where'
p3082
aS'is'
p3083
aS'the'
p3084
aS'milk'
p3085
asI618
(lp3086
S'Where'
p3087
aS'is'
p3088
aS'the'
p3089
aS'milk'
p3090
asI619
(lp3091
S'Where'
p3092
aS'is'
p3093
aS'the'
p3094
aS'football'
p3095
asI620
(lp3096
S'Where'
p3097
aS'is'
p3098
aS'the'
p3099
aS'milk'
p3100
asI621
(lp3101
S'Where'
p3102
aS'is'
p3103
aS'the'
p3104
aS'football'
p3105
asI622
(lp3106
S'Where'
p3107
aS'is'
p3108
aS'the'
p3109
aS'football'
p3110
asI623
(lp3111
S'Where'
p3112
aS'is'
p3113
aS'the'
p3114
aS'football'
p3115
asI624
(lp3116
S'Where'
p3117
aS'is'
p3118
aS'the'
p3119
aS'football'
p3120
asI625
(lp3121
S'Where'
p3122
aS'is'
p3123
aS'the'
p3124
aS'milk'
p3125
asI626
(lp3126
S'Where'
p3127
aS'is'
p3128
aS'the'
p3129
aS'apple'
p3130
asI627
(lp3131
S'Where'
p3132
aS'is'
p3133
aS'the'
p3134
aS'apple'
p3135
asI628
(lp3136
S'Where'
p3137
aS'is'
p3138
aS'the'
p3139
aS'football'
p3140
asI629
(lp3141
S'Where'
p3142
aS'is'
p3143
aS'the'
p3144
aS'apple'
p3145
asI630
(lp3146
S'Where'
p3147
aS'is'
p3148
aS'the'
p3149
aS'football'
p3150
asI631
(lp3151
S'Where'
p3152
aS'is'
p3153
aS'the'
p3154
aS'football'
p3155
asI632
(lp3156
S'Where'
p3157
aS'is'
p3158
aS'the'
p3159
aS'milk'
p3160
asI633
(lp3161
S'Where'
p3162
aS'is'
p3163
aS'the'
p3164
aS'football'
p3165
asI634
(lp3166
S'Where'
p3167
aS'is'
p3168
aS'the'
p3169
aS'football'
p3170
asI635
(lp3171
S'Where'
p3172
aS'is'
p3173
aS'the'
p3174
aS'milk'
p3175
asI636
(lp3176
S'Where'
p3177
aS'is'
p3178
aS'the'
p3179
aS'apple'
p3180
asI637
(lp3181
S'Where'
p3182
aS'is'
p3183
aS'the'
p3184
aS'apple'
p3185
asI638
(lp3186
S'Where'
p3187
aS'is'
p3188
aS'the'
p3189
aS'milk'
p3190
asI639
(lp3191
S'Where'
p3192
aS'is'
p3193
aS'the'
p3194
aS'milk'
p3195
asI640
(lp3196
S'Where'
p3197
aS'is'
p3198
aS'the'
p3199
aS'milk'
p3200
asI641
(lp3201
S'Where'
p3202
aS'is'
p3203
aS'the'
p3204
aS'apple'
p3205
asI642
(lp3206
S'Where'
p3207
aS'is'
p3208
aS'the'
p3209
aS'apple'
p3210
asI643
(lp3211
S'Where'
p3212
aS'is'
p3213
aS'the'
p3214
aS'apple'
p3215
asI644
(lp3216
S'Where'
p3217
aS'is'
p3218
aS'the'
p3219
aS'apple'
p3220
asI645
(lp3221
S'Where'
p3222
aS'is'
p3223
aS'the'
p3224
aS'football'
p3225
asI646
(lp3226
S'Where'
p3227
aS'is'
p3228
aS'the'
p3229
aS'football'
p3230
asI647
(lp3231
S'Where'
p3232
aS'is'
p3233
aS'the'
p3234
aS'football'
p3235
asI648
(lp3236
S'Where'
p3237
aS'is'
p3238
aS'the'
p3239
aS'football'
p3240
asI649
(lp3241
S'Where'
p3242
aS'is'
p3243
aS'the'
p3244
aS'football'
p3245
asI650
(lp3246
S'Where'
p3247
aS'is'
p3248
aS'the'
p3249
aS'football'
p3250
asI651
(lp3251
S'Where'
p3252
aS'is'
p3253
aS'the'
p3254
aS'football'
p3255
asI652
(lp3256
S'Where'
p3257
aS'is'
p3258
aS'the'
p3259
aS'apple'
p3260
asI653
(lp3261
S'Where'
p3262
aS'is'
p3263
aS'the'
p3264
aS'apple'
p3265
asI654
(lp3266
S'Where'
p3267
aS'is'
p3268
aS'the'
p3269
aS'apple'
p3270
asI655
(lp3271
S'Where'
p3272
aS'is'
p3273
aS'the'
p3274
aS'football'
p3275
asI656
(lp3276
S'Where'
p3277
aS'is'
p3278
aS'the'
p3279
aS'milk'
p3280
asI657
(lp3281
S'Where'
p3282
aS'is'
p3283
aS'the'
p3284
aS'milk'
p3285
asI658
(lp3286
S'Where'
p3287
aS'is'
p3288
aS'the'
p3289
aS'milk'
p3290
asI659
(lp3291
S'Where'
p3292
aS'is'
p3293
aS'the'
p3294
aS'milk'
p3295
asI660
(lp3296
S'Where'
p3297
aS'is'
p3298
aS'the'
p3299
aS'football'
p3300
asI661
(lp3301
S'Where'
p3302
aS'is'
p3303
aS'the'
p3304
aS'football'
p3305
asI662
(lp3306
S'Where'
p3307
aS'is'
p3308
aS'the'
p3309
aS'football'
p3310
asI663
(lp3311
S'Where'
p3312
aS'is'
p3313
aS'the'
p3314
aS'football'
p3315
asI664
(lp3316
S'Where'
p3317
aS'is'
p3318
aS'the'
p3319
aS'football'
p3320
asI665
(lp3321
S'Where'
p3322
aS'is'
p3323
aS'the'
p3324
aS'apple'
p3325
asI666
(lp3326
S'Where'
p3327
aS'is'
p3328
aS'the'
p3329
aS'milk'
p3330
asI667
(lp3331
S'Where'
p3332
aS'is'
p3333
aS'the'
p3334
aS'milk'
p3335
asI668
(lp3336
S'Where'
p3337
aS'is'
p3338
aS'the'
p3339
aS'milk'
p3340
asI669
(lp3341
S'Where'
p3342
aS'is'
p3343
aS'the'
p3344
aS'milk'
p3345
asI670
(lp3346
S'Where'
p3347
aS'is'
p3348
aS'the'
p3349
aS'milk'
p3350
asI671
(lp3351
S'Where'
p3352
aS'is'
p3353
aS'the'
p3354
aS'football'
p3355
asI672
(lp3356
S'Where'
p3357
aS'is'
p3358
aS'the'
p3359
aS'football'
p3360
asI673
(lp3361
S'Where'
p3362
aS'is'
p3363
aS'the'
p3364
aS'football'
p3365
asI674
(lp3366
S'Where'
p3367
aS'is'
p3368
aS'the'
p3369
aS'milk'
p3370
asI675
(lp3371
S'Where'
p3372
aS'is'
p3373
aS'the'
p3374
aS'milk'
p3375
asI676
(lp3376
S'Where'
p3377
aS'is'
p3378
aS'the'
p3379
aS'football'
p3380
asI677
(lp3381
S'Where'
p3382
aS'is'
p3383
aS'the'
p3384
aS'football'
p3385
asI678
(lp3386
S'Where'
p3387
aS'is'
p3388
aS'the'
p3389
aS'football'
p3390
asI679
(lp3391
S'Where'
p3392
aS'is'
p3393
aS'the'
p3394
aS'milk'
p3395
asI680
(lp3396
S'Where'
p3397
aS'is'
p3398
aS'the'
p3399
aS'apple'
p3400
asI681
(lp3401
S'Where'
p3402
aS'is'
p3403
aS'the'
p3404
aS'apple'
p3405
asI682
(lp3406
S'Where'
p3407
aS'is'
p3408
aS'the'
p3409
aS'apple'
p3410
asI683
(lp3411
S'Where'
p3412
aS'is'
p3413
aS'the'
p3414
aS'apple'
p3415
asI684
(lp3416
S'Where'
p3417
aS'is'
p3418
aS'the'
p3419
aS'milk'
p3420
asI685
(lp3421
S'Where'
p3422
aS'is'
p3423
aS'the'
p3424
aS'milk'
p3425
asI686
(lp3426
S'Where'
p3427
aS'is'
p3428
aS'the'
p3429
aS'milk'
p3430
asI687
(lp3431
S'Where'
p3432
aS'is'
p3433
aS'the'
p3434
aS'milk'
p3435
asI688
(lp3436
S'Where'
p3437
aS'is'
p3438
aS'the'
p3439
aS'milk'
p3440
asI689
(lp3441
S'Where'
p3442
aS'is'
p3443
aS'the'
p3444
aS'milk'
p3445
asI690
(lp3446
S'Where'
p3447
aS'is'
p3448
aS'the'
p3449
aS'milk'
p3450
asI691
(lp3451
S'Where'
p3452
aS'is'
p3453
aS'the'
p3454
aS'apple'
p3455
asI692
(lp3456
S'Where'
p3457
aS'is'
p3458
aS'the'
p3459
aS'apple'
p3460
asI693
(lp3461
S'Where'
p3462
aS'is'
p3463
aS'the'
p3464
aS'apple'
p3465
asI694
(lp3466
S'Where'
p3467
aS'is'
p3468
aS'the'
p3469
aS'football'
p3470
asI695
(lp3471
S'Where'
p3472
aS'is'
p3473
aS'the'
p3474
aS'football'
p3475
asI696
(lp3476
S'Where'
p3477
aS'is'
p3478
aS'the'
p3479
aS'apple'
p3480
asI697
(lp3481
S'Where'
p3482
aS'is'
p3483
aS'the'
p3484
aS'apple'
p3485
asI698
(lp3486
S'Where'
p3487
aS'is'
p3488
aS'the'
p3489
aS'milk'
p3490
asI699
(lp3491
S'Where'
p3492
aS'is'
p3493
aS'the'
p3494
aS'milk'
p3495
asI700
(lp3496
S'Where'
p3497
aS'is'
p3498
aS'the'
p3499
aS'football'
p3500
asI701
(lp3501
S'Where'
p3502
aS'is'
p3503
aS'the'
p3504
aS'apple'
p3505
asI702
(lp3506
S'Where'
p3507
aS'is'
p3508
aS'the'
p3509
aS'apple'
p3510
asI703
(lp3511
S'Where'
p3512
aS'is'
p3513
aS'the'
p3514
aS'apple'
p3515
asI704
(lp3516
S'Where'
p3517
aS'is'
p3518
aS'the'
p3519
aS'apple'
p3520
asI705
(lp3521
S'Where'
p3522
aS'is'
p3523
aS'the'
p3524
aS'apple'
p3525
asI706
(lp3526
S'Where'
p3527
aS'is'
p3528
aS'the'
p3529
aS'football'
p3530
asI707
(lp3531
S'Where'
p3532
aS'is'
p3533
aS'the'
p3534
aS'football'
p3535
asI708
(lp3536
S'Where'
p3537
aS'is'
p3538
aS'the'
p3539
aS'football'
p3540
asI709
(lp3541
S'Where'
p3542
aS'is'
p3543
aS'the'
p3544
aS'apple'
p3545
asI710
(lp3546
S'Where'
p3547
aS'is'
p3548
aS'the'
p3549
aS'apple'
p3550
asI711
(lp3551
S'Where'
p3552
aS'is'
p3553
aS'the'
p3554
aS'football'
p3555
asI712
(lp3556
S'Where'
p3557
aS'is'
p3558
aS'the'
p3559
aS'milk'
p3560
asI713
(lp3561
S'Where'
p3562
aS'is'
p3563
aS'the'
p3564
aS'milk'
p3565
asI714
(lp3566
S'Where'
p3567
aS'is'
p3568
aS'the'
p3569
aS'milk'
p3570
asI715
(lp3571
S'Where'
p3572
aS'is'
p3573
aS'the'
p3574
aS'football'
p3575
asI716
(lp3576
S'Where'
p3577
aS'is'
p3578
aS'the'
p3579
aS'apple'
p3580
asI717
(lp3581
S'Where'
p3582
aS'is'
p3583
aS'the'
p3584
aS'apple'
p3585
asI718
(lp3586
S'Where'
p3587
aS'is'
p3588
aS'the'
p3589
aS'apple'
p3590
asI719
(lp3591
S'Where'
p3592
aS'is'
p3593
aS'the'
p3594
aS'apple'
p3595
asI720
(lp3596
S'Where'
p3597
aS'is'
p3598
aS'the'
p3599
aS'milk'
p3600
asI721
(lp3601
S'Where'
p3602
aS'is'
p3603
aS'the'
p3604
aS'football'
p3605
asI722
(lp3606
S'Where'
p3607
aS'is'
p3608
aS'the'
p3609
aS'football'
p3610
asI723
(lp3611
S'Where'
p3612
aS'is'
p3613
aS'the'
p3614
aS'milk'
p3615
asI724
(lp3616
S'Where'
p3617
aS'is'
p3618
aS'the'
p3619
aS'milk'
p3620
asI725
(lp3621
S'Where'
p3622
aS'is'
p3623
aS'the'
p3624
aS'football'
p3625
asI726
(lp3626
S'Where'
p3627
aS'is'
p3628
aS'the'
p3629
aS'football'
p3630
asI727
(lp3631
S'Where'
p3632
aS'is'
p3633
aS'the'
p3634
aS'apple'
p3635
asI728
(lp3636
S'Where'
p3637
aS'is'
p3638
aS'the'
p3639
aS'apple'
p3640
asI729
(lp3641
S'Where'
p3642
aS'is'
p3643
aS'the'
p3644
aS'milk'
p3645
asI730
(lp3646
S'Where'
p3647
aS'is'
p3648
aS'the'
p3649
aS'milk'
p3650
asI731
(lp3651
S'Where'
p3652
aS'is'
p3653
aS'the'
p3654
aS'apple'
p3655
asI732
(lp3656
S'Where'
p3657
aS'is'
p3658
aS'the'
p3659
aS'milk'
p3660
asI733
(lp3661
S'Where'
p3662
aS'is'
p3663
aS'the'
p3664
aS'apple'
p3665
asI734
(lp3666
S'Where'
p3667
aS'is'
p3668
aS'the'
p3669
aS'apple'
p3670
asI735
(lp3671
S'Where'
p3672
aS'is'
p3673
aS'the'
p3674
aS'football'
p3675
asI736
(lp3676
S'Where'
p3677
aS'is'
p3678
aS'the'
p3679
aS'apple'
p3680
asI737
(lp3681
S'Where'
p3682
aS'is'
p3683
aS'the'
p3684
aS'apple'
p3685
asI738
(lp3686
S'Where'
p3687
aS'is'
p3688
aS'the'
p3689
aS'milk'
p3690
asI739
(lp3691
S'Where'
p3692
aS'is'
p3693
aS'the'
p3694
aS'milk'
p3695
asI740
(lp3696
S'Where'
p3697
aS'is'
p3698
aS'the'
p3699
aS'milk'
p3700
asI741
(lp3701
S'Where'
p3702
aS'is'
p3703
aS'the'
p3704
aS'football'
p3705
asI742
(lp3706
S'Where'
p3707
aS'is'
p3708
aS'the'
p3709
aS'football'
p3710
asI743
(lp3711
S'Where'
p3712
aS'is'
p3713
aS'the'
p3714
aS'football'
p3715
asI744
(lp3716
S'Where'
p3717
aS'is'
p3718
aS'the'
p3719
aS'milk'
p3720
asI745
(lp3721
S'Where'
p3722
aS'is'
p3723
aS'the'
p3724
aS'milk'
p3725
asI746
(lp3726
S'Where'
p3727
aS'is'
p3728
aS'the'
p3729
aS'milk'
p3730
asI747
(lp3731
S'Where'
p3732
aS'is'
p3733
aS'the'
p3734
aS'milk'
p3735
asI748
(lp3736
S'Where'
p3737
aS'is'
p3738
aS'the'
p3739
aS'apple'
p3740
asI749
(lp3741
S'Where'
p3742
aS'is'
p3743
aS'the'
p3744
aS'apple'
p3745
asI750
(lp3746
S'Where'
p3747
aS'is'
p3748
aS'the'
p3749
aS'apple'
p3750
asI751
(lp3751
S'Where'
p3752
aS'is'
p3753
aS'the'
p3754
aS'milk'
p3755
asI752
(lp3756
S'Where'
p3757
aS'is'
p3758
aS'the'
p3759
aS'milk'
p3760
asI753
(lp3761
S'Where'
p3762
aS'is'
p3763
aS'the'
p3764
aS'milk'
p3765
asI754
(lp3766
S'Where'
p3767
aS'is'
p3768
aS'the'
p3769
aS'football'
p3770
asI755
(lp3771
S'Where'
p3772
aS'is'
p3773
aS'the'
p3774
aS'milk'
p3775
asI756
(lp3776
S'Where'
p3777
aS'is'
p3778
aS'the'
p3779
aS'milk'
p3780
asI757
(lp3781
S'Where'
p3782
aS'is'
p3783
aS'the'
p3784
aS'milk'
p3785
asI758
(lp3786
S'Where'
p3787
aS'is'
p3788
aS'the'
p3789
aS'football'
p3790
asI759
(lp3791
S'Where'
p3792
aS'is'
p3793
aS'the'
p3794
aS'milk'
p3795
asI760
(lp3796
S'Where'
p3797
aS'is'
p3798
aS'the'
p3799
aS'milk'
p3800
asI761
(lp3801
S'Where'
p3802
aS'is'
p3803
aS'the'
p3804
aS'football'
p3805
asI762
(lp3806
S'Where'
p3807
aS'is'
p3808
aS'the'
p3809
aS'football'
p3810
asI763
(lp3811
S'Where'
p3812
aS'is'
p3813
aS'the'
p3814
aS'apple'
p3815
asI764
(lp3816
S'Where'
p3817
aS'is'
p3818
aS'the'
p3819
aS'apple'
p3820
asI765
(lp3821
S'Where'
p3822
aS'is'
p3823
aS'the'
p3824
aS'apple'
p3825
asI766
(lp3826
S'Where'
p3827
aS'is'
p3828
aS'the'
p3829
aS'apple'
p3830
asI767
(lp3831
S'Where'
p3832
aS'is'
p3833
aS'the'
p3834
aS'apple'
p3835
asI768
(lp3836
S'Where'
p3837
aS'is'
p3838
aS'the'
p3839
aS'football'
p3840
asI769
(lp3841
S'Where'
p3842
aS'is'
p3843
aS'the'
p3844
aS'football'
p3845
asI770
(lp3846
S'Where'
p3847
aS'is'
p3848
aS'the'
p3849
aS'football'
p3850
asI771
(lp3851
S'Where'
p3852
aS'is'
p3853
aS'the'
p3854
aS'apple'
p3855
asI772
(lp3856
S'Where'
p3857
aS'is'
p3858
aS'the'
p3859
aS'apple'
p3860
asI773
(lp3861
S'Where'
p3862
aS'is'
p3863
aS'the'
p3864
aS'milk'
p3865
asI774
(lp3866
S'Where'
p3867
aS'is'
p3868
aS'the'
p3869
aS'milk'
p3870
asI775
(lp3871
S'Where'
p3872
aS'is'
p3873
aS'the'
p3874
aS'apple'
p3875
asI776
(lp3876
S'Where'
p3877
aS'is'
p3878
aS'the'
p3879
aS'milk'
p3880
asI777
(lp3881
S'Where'
p3882
aS'is'
p3883
aS'the'
p3884
aS'milk'
p3885
asI778
(lp3886
S'Where'
p3887
aS'is'
p3888
aS'the'
p3889
aS'milk'
p3890
asI779
(lp3891
S'Where'
p3892
aS'is'
p3893
aS'the'
p3894
aS'milk'
p3895
asI780
(lp3896
S'Where'
p3897
aS'is'
p3898
aS'the'
p3899
aS'apple'
p3900
asI781
(lp3901
S'Where'
p3902
aS'is'
p3903
aS'the'
p3904
aS'football'
p3905
asI782
(lp3906
S'Where'
p3907
aS'is'
p3908
aS'the'
p3909
aS'football'
p3910
asI783
(lp3911
S'Where'
p3912
aS'is'
p3913
aS'the'
p3914
aS'milk'
p3915
asI784
(lp3916
S'Where'
p3917
aS'is'
p3918
aS'the'
p3919
aS'football'
p3920
asI785
(lp3921
S'Where'
p3922
aS'is'
p3923
aS'the'
p3924
aS'football'
p3925
asI786
(lp3926
S'Where'
p3927
aS'is'
p3928
aS'the'
p3929
aS'milk'
p3930
asI787
(lp3931
S'Where'
p3932
aS'is'
p3933
aS'the'
p3934
aS'milk'
p3935
asI788
(lp3936
S'Where'
p3937
aS'is'
p3938
aS'the'
p3939
aS'milk'
p3940
asI789
(lp3941
S'Where'
p3942
aS'is'
p3943
aS'the'
p3944
aS'milk'
p3945
asI790
(lp3946
S'Where'
p3947
aS'is'
p3948
aS'the'
p3949
aS'milk'
p3950
asI791
(lp3951
S'Where'
p3952
aS'is'
p3953
aS'the'
p3954
aS'milk'
p3955
asI792
(lp3956
S'Where'
p3957
aS'is'
p3958
aS'the'
p3959
aS'milk'
p3960
asI793
(lp3961
S'Where'
p3962
aS'is'
p3963
aS'the'
p3964
aS'football'
p3965
asI794
(lp3966
S'Where'
p3967
aS'is'
p3968
aS'the'
p3969
aS'milk'
p3970
asI795
(lp3971
S'Where'
p3972
aS'is'
p3973
aS'the'
p3974
aS'football'
p3975
asI796
(lp3976
S'Where'
p3977
aS'is'
p3978
aS'the'
p3979
aS'football'
p3980
asI797
(lp3981
S'Where'
p3982
aS'is'
p3983
aS'the'
p3984
aS'football'
p3985
asI798
(lp3986
S'Where'
p3987
aS'is'
p3988
aS'the'
p3989
aS'football'
p3990
asI799
(lp3991
S'Where'
p3992
aS'is'
p3993
aS'the'
p3994
aS'football'
p3995
asI800
(lp3996
S'Where'
p3997
aS'is'
p3998
aS'the'
p3999
aS'apple'
p4000
asI801
(lp4001
S'Where'
p4002
aS'is'
p4003
aS'the'
p4004
aS'football'
p4005
asI802
(lp4006
S'Where'
p4007
aS'is'
p4008
aS'the'
p4009
aS'football'
p4010
asI803
(lp4011
S'Where'
p4012
aS'is'
p4013
aS'the'
p4014
aS'football'
p4015
asI804
(lp4016
S'Where'
p4017
aS'is'
p4018
aS'the'
p4019
aS'football'
p4020
asI805
(lp4021
S'Where'
p4022
aS'is'
p4023
aS'the'
p4024
aS'football'
p4025
asI806
(lp4026
S'Where'
p4027
aS'is'
p4028
aS'the'
p4029
aS'apple'
p4030
asI807
(lp4031
S'Where'
p4032
aS'is'
p4033
aS'the'
p4034
aS'apple'
p4035
asI808
(lp4036
S'Where'
p4037
aS'is'
p4038
aS'the'
p4039
aS'apple'
p4040
asI809
(lp4041
S'Where'
p4042
aS'is'
p4043
aS'the'
p4044
aS'milk'
p4045
asI810
(lp4046
S'Where'
p4047
aS'is'
p4048
aS'the'
p4049
aS'milk'
p4050
asI811
(lp4051
S'Where'
p4052
aS'is'
p4053
aS'the'
p4054
aS'milk'
p4055
asI812
(lp4056
S'Where'
p4057
aS'is'
p4058
aS'the'
p4059
aS'milk'
p4060
asI813
(lp4061
S'Where'
p4062
aS'is'
p4063
aS'the'
p4064
aS'milk'
p4065
asI814
(lp4066
S'Where'
p4067
aS'is'
p4068
aS'the'
p4069
aS'apple'
p4070
asI815
(lp4071
S'Where'
p4072
aS'is'
p4073
aS'the'
p4074
aS'milk'
p4075
asI816
(lp4076
S'Where'
p4077
aS'is'
p4078
aS'the'
p4079
aS'milk'
p4080
asI817
(lp4081
S'Where'
p4082
aS'is'
p4083
aS'the'
p4084
aS'milk'
p4085
asI818
(lp4086
S'Where'
p4087
aS'is'
p4088
aS'the'
p4089
aS'apple'
p4090
asI819
(lp4091
S'Where'
p4092
aS'is'
p4093
aS'the'
p4094
aS'milk'
p4095
asI820
(lp4096
S'Where'
p4097
aS'is'
p4098
aS'the'
p4099
aS'apple'
p4100
asI821
(lp4101
S'Where'
p4102
aS'is'
p4103
aS'the'
p4104
aS'apple'
p4105
asI822
(lp4106
S'Where'
p4107
aS'is'
p4108
aS'the'
p4109
aS'football'
p4110
asI823
(lp4111
S'Where'
p4112
aS'is'
p4113
aS'the'
p4114
aS'apple'
p4115
asI824
(lp4116
S'Where'
p4117
aS'is'
p4118
aS'the'
p4119
aS'apple'
p4120
asI825
(lp4121
S'Where'
p4122
aS'is'
p4123
aS'the'
p4124
aS'apple'
p4125
asI826
(lp4126
S'Where'
p4127
aS'is'
p4128
aS'the'
p4129
aS'milk'
p4130
asI827
(lp4131
S'Where'
p4132
aS'is'
p4133
aS'the'
p4134
aS'milk'
p4135
asI828
(lp4136
S'Where'
p4137
aS'is'
p4138
aS'the'
p4139
aS'apple'
p4140
asI829
(lp4141
S'Where'
p4142
aS'is'
p4143
aS'the'
p4144
aS'apple'
p4145
asI830
(lp4146
S'Where'
p4147
aS'is'
p4148
aS'the'
p4149
aS'apple'
p4150
asI831
(lp4151
S'Where'
p4152
aS'is'
p4153
aS'the'
p4154
aS'apple'
p4155
asI832
(lp4156
S'Where'
p4157
aS'is'
p4158
aS'the'
p4159
aS'apple'
p4160
asI833
(lp4161
S'Where'
p4162
aS'is'
p4163
aS'the'
p4164
aS'milk'
p4165
asI834
(lp4166
S'Where'
p4167
aS'is'
p4168
aS'the'
p4169
aS'apple'
p4170
asI835
(lp4171
S'Where'
p4172
aS'is'
p4173
aS'the'
p4174
aS'milk'
p4175
asI836
(lp4176
S'Where'
p4177
aS'is'
p4178
aS'the'
p4179
aS'football'
p4180
asI837
(lp4181
S'Where'
p4182
aS'is'
p4183
aS'the'
p4184
aS'apple'
p4185
asI838
(lp4186
S'Where'
p4187
aS'is'
p4188
aS'the'
p4189
aS'football'
p4190
asI839
(lp4191
S'Where'
p4192
aS'is'
p4193
aS'the'
p4194
aS'milk'
p4195
asI840
(lp4196
S'Where'
p4197
aS'is'
p4198
aS'the'
p4199
aS'apple'
p4200
asI841
(lp4201
S'Where'
p4202
aS'is'
p4203
aS'the'
p4204
aS'apple'
p4205
asI842
(lp4206
S'Where'
p4207
aS'is'
p4208
aS'the'
p4209
aS'football'
p4210
asI843
(lp4211
S'Where'
p4212
aS'is'
p4213
aS'the'
p4214
aS'apple'
p4215
asI844
(lp4216
S'Where'
p4217
aS'is'
p4218
aS'the'
p4219
aS'apple'
p4220
asI845
(lp4221
S'Where'
p4222
aS'is'
p4223
aS'the'
p4224
aS'apple'
p4225
asI846
(lp4226
S'Where'
p4227
aS'is'
p4228
aS'the'
p4229
aS'football'
p4230
asI847
(lp4231
S'Where'
p4232
aS'is'
p4233
aS'the'
p4234
aS'football'
p4235
asI848
(lp4236
S'Where'
p4237
aS'is'
p4238
aS'the'
p4239
aS'football'
p4240
asI849
(lp4241
S'Where'
p4242
aS'is'
p4243
aS'the'
p4244
aS'apple'
p4245
asI850
(lp4246
S'Where'
p4247
aS'is'
p4248
aS'the'
p4249
aS'apple'
p4250
asI851
(lp4251
S'Where'
p4252
aS'is'
p4253
aS'the'
p4254
aS'milk'
p4255
asI852
(lp4256
S'Where'
p4257
aS'is'
p4258
aS'the'
p4259
aS'apple'
p4260
asI853
(lp4261
S'Where'
p4262
aS'is'
p4263
aS'the'
p4264
aS'apple'
p4265
asI854
(lp4266
S'Where'
p4267
aS'is'
p4268
aS'the'
p4269
aS'apple'
p4270
asI855
(lp4271
S'Where'
p4272
aS'is'
p4273
aS'the'
p4274
aS'milk'
p4275
asI856
(lp4276
S'Where'
p4277
aS'is'
p4278
aS'the'
p4279
aS'apple'
p4280
asI857
(lp4281
S'Where'
p4282
aS'is'
p4283
aS'the'
p4284
aS'apple'
p4285
asI858
(lp4286
S'Where'
p4287
aS'is'
p4288
aS'the'
p4289
aS'apple'
p4290
asI859
(lp4291
S'Where'
p4292
aS'is'
p4293
aS'the'
p4294
aS'apple'
p4295
asI860
(lp4296
S'Where'
p4297
aS'is'
p4298
aS'the'
p4299
aS'apple'
p4300
asI861
(lp4301
S'Where'
p4302
aS'is'
p4303
aS'the'
p4304
aS'apple'
p4305
asI862
(lp4306
S'Where'
p4307
aS'is'
p4308
aS'the'
p4309
aS'apple'
p4310
asI863
(lp4311
S'Where'
p4312
aS'is'
p4313
aS'the'
p4314
aS'apple'
p4315
asI864
(lp4316
S'Where'
p4317
aS'is'
p4318
aS'the'
p4319
aS'football'
p4320
asI865
(lp4321
S'Where'
p4322
aS'is'
p4323
aS'the'
p4324
aS'football'
p4325
asI866
(lp4326
S'Where'
p4327
aS'is'
p4328
aS'the'
p4329
aS'milk'
p4330
asI867
(lp4331
S'Where'
p4332
aS'is'
p4333
aS'the'
p4334
aS'milk'
p4335
asI868
(lp4336
S'Where'
p4337
aS'is'
p4338
aS'the'
p4339
aS'milk'
p4340
asI869
(lp4341
S'Where'
p4342
aS'is'
p4343
aS'the'
p4344
aS'milk'
p4345
asI870
(lp4346
S'Where'
p4347
aS'is'
p4348
aS'the'
p4349
aS'milk'
p4350
asI871
(lp4351
S'Where'
p4352
aS'is'
p4353
aS'the'
p4354
aS'milk'
p4355
asI872
(lp4356
S'Where'
p4357
aS'is'
p4358
aS'the'
p4359
aS'milk'
p4360
asI873
(lp4361
S'Where'
p4362
aS'is'
p4363
aS'the'
p4364
aS'milk'
p4365
asI874
(lp4366
S'Where'
p4367
aS'is'
p4368
aS'the'
p4369
aS'football'
p4370
asI875
(lp4371
S'Where'
p4372
aS'is'
p4373
aS'the'
p4374
aS'football'
p4375
asI876
(lp4376
S'Where'
p4377
aS'is'
p4378
aS'the'
p4379
aS'milk'
p4380
asI877
(lp4381
S'Where'
p4382
aS'is'
p4383
aS'the'
p4384
aS'football'
p4385
asI878
(lp4386
S'Where'
p4387
aS'is'
p4388
aS'the'
p4389
aS'football'
p4390
asI879
(lp4391
S'Where'
p4392
aS'is'
p4393
aS'the'
p4394
aS'football'
p4395
asI880
(lp4396
S'Where'
p4397
aS'is'
p4398
aS'the'
p4399
aS'football'
p4400
asI881
(lp4401
S'Where'
p4402
aS'is'
p4403
aS'the'
p4404
aS'football'
p4405
asI882
(lp4406
S'Where'
p4407
aS'is'
p4408
aS'the'
p4409
aS'football'
p4410
asI883
(lp4411
S'Where'
p4412
aS'is'
p4413
aS'the'
p4414
aS'football'
p4415
asI884
(lp4416
S'Where'
p4417
aS'is'
p4418
aS'the'
p4419
aS'milk'
p4420
asI885
(lp4421
S'Where'
p4422
aS'is'
p4423
aS'the'
p4424
aS'milk'
p4425
asI886
(lp4426
S'Where'
p4427
aS'is'
p4428
aS'the'
p4429
aS'apple'
p4430
asI887
(lp4431
S'Where'
p4432
aS'is'
p4433
aS'the'
p4434
aS'milk'
p4435
asI888
(lp4436
S'Where'
p4437
aS'is'
p4438
aS'the'
p4439
aS'apple'
p4440
asI889
(lp4441
S'Where'
p4442
aS'is'
p4443
aS'the'
p4444
aS'apple'
p4445
asI890
(lp4446
S'Where'
p4447
aS'is'
p4448
aS'the'
p4449
aS'apple'
p4450
asI891
(lp4451
S'Where'
p4452
aS'is'
p4453
aS'the'
p4454
aS'football'
p4455
asI892
(lp4456
S'Where'
p4457
aS'is'
p4458
aS'the'
p4459
aS'football'
p4460
asI893
(lp4461
S'Where'
p4462
aS'is'
p4463
aS'the'
p4464
aS'football'
p4465
asI894
(lp4466
S'Where'
p4467
aS'is'
p4468
aS'the'
p4469
aS'football'
p4470
asI895
(lp4471
S'Where'
p4472
aS'is'
p4473
aS'the'
p4474
aS'football'
p4475
asI896
(lp4476
S'Where'
p4477
aS'is'
p4478
aS'the'
p4479
aS'milk'
p4480
asI897
(lp4481
S'Where'
p4482
aS'is'
p4483
aS'the'
p4484
aS'milk'
p4485
asI898
(lp4486
S'Where'
p4487
aS'is'
p4488
aS'the'
p4489
aS'apple'
p4490
asI899
(lp4491
S'Where'
p4492
aS'is'
p4493
aS'the'
p4494
aS'apple'
p4495
asI900
(lp4496
S'Where'
p4497
aS'is'
p4498
aS'the'
p4499
aS'football'
p4500
asI901
(lp4501
S'Where'
p4502
aS'is'
p4503
aS'the'
p4504
aS'football'
p4505
asI902
(lp4506
S'Where'
p4507
aS'is'
p4508
aS'the'
p4509
aS'milk'
p4510
asI903
(lp4511
S'Where'
p4512
aS'is'
p4513
aS'the'
p4514
aS'football'
p4515
asI904
(lp4516
S'Where'
p4517
aS'is'
p4518
aS'the'
p4519
aS'football'
p4520
asI905
(lp4521
S'Where'
p4522
aS'is'
p4523
aS'the'
p4524
aS'apple'
p4525
asI906
(lp4526
S'Where'
p4527
aS'is'
p4528
aS'the'
p4529
aS'apple'
p4530
asI907
(lp4531
S'Where'
p4532
aS'is'
p4533
aS'the'
p4534
aS'football'
p4535
asI908
(lp4536
S'Where'
p4537
aS'is'
p4538
aS'the'
p4539
aS'football'
p4540
asI909
(lp4541
S'Where'
p4542
aS'is'
p4543
aS'the'
p4544
aS'milk'
p4545
asI910
(lp4546
S'Where'
p4547
aS'is'
p4548
aS'the'
p4549
aS'milk'
p4550
asI911
(lp4551
S'Where'
p4552
aS'is'
p4553
aS'the'
p4554
aS'milk'
p4555
asI912
(lp4556
S'Where'
p4557
aS'is'
p4558
aS'the'
p4559
aS'milk'
p4560
asI913
(lp4561
S'Where'
p4562
aS'is'
p4563
aS'the'
p4564
aS'milk'
p4565
asI914
(lp4566
S'Where'
p4567
aS'is'
p4568
aS'the'
p4569
aS'milk'
p4570
asI915
(lp4571
S'Where'
p4572
aS'is'
p4573
aS'the'
p4574
aS'milk'
p4575
asI916
(lp4576
S'Where'
p4577
aS'is'
p4578
aS'the'
p4579
aS'milk'
p4580
asI917
(lp4581
S'Where'
p4582
aS'is'
p4583
aS'the'
p4584
aS'football'
p4585
asI918
(lp4586
S'Where'
p4587
aS'is'
p4588
aS'the'
p4589
aS'football'
p4590
asI919
(lp4591
S'Where'
p4592
aS'is'
p4593
aS'the'
p4594
aS'milk'
p4595
asI920
(lp4596
S'Where'
p4597
aS'is'
p4598
aS'the'
p4599
aS'milk'
p4600
asI921
(lp4601
S'Where'
p4602
aS'is'
p4603
aS'the'
p4604
aS'football'
p4605
asI922
(lp4606
S'Where'
p4607
aS'is'
p4608
aS'the'
p4609
aS'football'
p4610
asI923
(lp4611
S'Where'
p4612
aS'is'
p4613
aS'the'
p4614
aS'apple'
p4615
asI924
(lp4616
S'Where'
p4617
aS'is'
p4618
aS'the'
p4619
aS'apple'
p4620
asI925
(lp4621
S'Where'
p4622
aS'is'
p4623
aS'the'
p4624
aS'milk'
p4625
asI926
(lp4626
S'Where'
p4627
aS'is'
p4628
aS'the'
p4629
aS'apple'
p4630
asI927
(lp4631
S'Where'
p4632
aS'is'
p4633
aS'the'
p4634
aS'apple'
p4635
asI928
(lp4636
S'Where'
p4637
aS'is'
p4638
aS'the'
p4639
aS'football'
p4640
asI929
(lp4641
S'Where'
p4642
aS'is'
p4643
aS'the'
p4644
aS'football'
p4645
asI930
(lp4646
S'Where'
p4647
aS'is'
p4648
aS'the'
p4649
aS'football'
p4650
asI931
(lp4651
S'Where'
p4652
aS'is'
p4653
aS'the'
p4654
aS'football'
p4655
asI932
(lp4656
S'Where'
p4657
aS'is'
p4658
aS'the'
p4659
aS'milk'
p4660
asI933
(lp4661
S'Where'
p4662
aS'is'
p4663
aS'the'
p4664
aS'milk'
p4665
asI934
(lp4666
S'Where'
p4667
aS'is'
p4668
aS'the'
p4669
aS'milk'
p4670
asI935
(lp4671
S'Where'
p4672
aS'is'
p4673
aS'the'
p4674
aS'football'
p4675
asI936
(lp4676
S'Where'
p4677
aS'is'
p4678
aS'the'
p4679
aS'apple'
p4680
asI937
(lp4681
S'Where'
p4682
aS'is'
p4683
aS'the'
p4684
aS'apple'
p4685
asI938
(lp4686
S'Where'
p4687
aS'is'
p4688
aS'the'
p4689
aS'apple'
p4690
asI939
(lp4691
S'Where'
p4692
aS'is'
p4693
aS'the'
p4694
aS'milk'
p4695
asI940
(lp4696
S'Where'
p4697
aS'is'
p4698
aS'the'
p4699
aS'milk'
p4700
asI941
(lp4701
S'Where'
p4702
aS'is'
p4703
aS'the'
p4704
aS'milk'
p4705
asI942
(lp4706
S'Where'
p4707
aS'is'
p4708
aS'the'
p4709
aS'milk'
p4710
asI943
(lp4711
S'Where'
p4712
aS'is'
p4713
aS'the'
p4714
aS'milk'
p4715
asI944
(lp4716
S'Where'
p4717
aS'is'
p4718
aS'the'
p4719
aS'apple'
p4720
asI945
(lp4721
S'Where'
p4722
aS'is'
p4723
aS'the'
p4724
aS'football'
p4725
asI946
(lp4726
S'Where'
p4727
aS'is'
p4728
aS'the'
p4729
aS'apple'
p4730
asI947
(lp4731
S'Where'
p4732
aS'is'
p4733
aS'the'
p4734
aS'apple'
p4735
asI948
(lp4736
S'Where'
p4737
aS'is'
p4738
aS'the'
p4739
aS'apple'
p4740
asI949
(lp4741
S'Where'
p4742
aS'is'
p4743
aS'the'
p4744
aS'apple'
p4745
asI950
(lp4746
S'Where'
p4747
aS'is'
p4748
aS'the'
p4749
aS'milk'
p4750
asI951
(lp4751
S'Where'
p4752
aS'is'
p4753
aS'the'
p4754
aS'milk'
p4755
asI952
(lp4756
S'Where'
p4757
aS'is'
p4758
aS'the'
p4759
aS'apple'
p4760
asI953
(lp4761
S'Where'
p4762
aS'is'
p4763
aS'the'
p4764
aS'milk'
p4765
asI954
(lp4766
S'Where'
p4767
aS'is'
p4768
aS'the'
p4769
aS'apple'
p4770
asI955
(lp4771
S'Where'
p4772
aS'is'
p4773
aS'the'
p4774
aS'apple'
p4775
asI956
(lp4776
S'Where'
p4777
aS'is'
p4778
aS'the'
p4779
aS'football'
p4780
asI957
(lp4781
S'Where'
p4782
aS'is'
p4783
aS'the'
p4784
aS'football'
p4785
asI958
(lp4786
S'Where'
p4787
aS'is'
p4788
aS'the'
p4789
aS'football'
p4790
asI959
(lp4791
S'Where'
p4792
aS'is'
p4793
aS'the'
p4794
aS'football'
p4795
asI960
(lp4796
S'Where'
p4797
aS'is'
p4798
aS'the'
p4799
aS'milk'
p4800
asI961
(lp4801
S'Where'
p4802
aS'is'
p4803
aS'the'
p4804
aS'apple'
p4805
asI962
(lp4806
S'Where'
p4807
aS'is'
p4808
aS'the'
p4809
aS'apple'
p4810
asI963
(lp4811
S'Where'
p4812
aS'is'
p4813
aS'the'
p4814
aS'football'
p4815
asI964
(lp4816
S'Where'
p4817
aS'is'
p4818
aS'the'
p4819
aS'milk'
p4820
asI965
(lp4821
S'Where'
p4822
aS'is'
p4823
aS'the'
p4824
aS'milk'
p4825
asI966
(lp4826
S'Where'
p4827
aS'is'
p4828
aS'the'
p4829
aS'football'
p4830
asI967
(lp4831
S'Where'
p4832
aS'is'
p4833
aS'the'
p4834
aS'apple'
p4835
asI968
(lp4836
S'Where'
p4837
aS'is'
p4838
aS'the'
p4839
aS'apple'
p4840
asI969
(lp4841
S'Where'
p4842
aS'is'
p4843
aS'the'
p4844
aS'football'
p4845
asI970
(lp4846
S'Where'
p4847
aS'is'
p4848
aS'the'
p4849
aS'apple'
p4850
asI971
(lp4851
S'Where'
p4852
aS'is'
p4853
aS'the'
p4854
aS'football'
p4855
asI972
(lp4856
S'Where'
p4857
aS'is'
p4858
aS'the'
p4859
aS'football'
p4860
asI973
(lp4861
S'Where'
p4862
aS'is'
p4863
aS'the'
p4864
aS'football'
p4865
asI974
(lp4866
S'Where'
p4867
aS'is'
p4868
aS'the'
p4869
aS'football'
p4870
asI975
(lp4871
S'Where'
p4872
aS'is'
p4873
aS'the'
p4874
aS'football'
p4875
asI976
(lp4876
S'Where'
p4877
aS'is'
p4878
aS'the'
p4879
aS'milk'
p4880
asI977
(lp4881
S'Where'
p4882
aS'is'
p4883
aS'the'
p4884
aS'milk'
p4885
asI978
(lp4886
S'Where'
p4887
aS'is'
p4888
aS'the'
p4889
aS'football'
p4890
asI979
(lp4891
S'Where'
p4892
aS'is'
p4893
aS'the'
p4894
aS'football'
p4895
asI980
(lp4896
S'Where'
p4897
aS'is'
p4898
aS'the'
p4899
aS'milk'
p4900
asI981
(lp4901
S'Where'
p4902
aS'is'
p4903
aS'the'
p4904
aS'football'
p4905
asI982
(lp4906
S'Where'
p4907
aS'is'
p4908
aS'the'
p4909
aS'football'
p4910
asI983
(lp4911
S'Where'
p4912
aS'is'
p4913
aS'the'
p4914
aS'apple'
p4915
asI984
(lp4916
S'Where'
p4917
aS'is'
p4918
aS'the'
p4919
aS'apple'
p4920
asI985
(lp4921
S'Where'
p4922
aS'is'
p4923
aS'the'
p4924
aS'apple'
p4925
asI986
(lp4926
S'Where'
p4927
aS'is'
p4928
aS'the'
p4929
aS'football'
p4930
asI987
(lp4931
S'Where'
p4932
aS'is'
p4933
aS'the'
p4934
aS'milk'
p4935
asI988
(lp4936
S'Where'
p4937
aS'is'
p4938
aS'the'
p4939
aS'football'
p4940
asI989
(lp4941
S'Where'
p4942
aS'is'
p4943
aS'the'
p4944
aS'football'
p4945
asI990
(lp4946
S'Where'
p4947
aS'is'
p4948
aS'the'
p4949
aS'football'
p4950
asI991
(lp4951
S'Where'
p4952
aS'is'
p4953
aS'the'
p4954
aS'apple'
p4955
asI992
(lp4956
S'Where'
p4957
aS'is'
p4958
aS'the'
p4959
aS'apple'
p4960
asI993
(lp4961
S'Where'
p4962
aS'is'
p4963
aS'the'
p4964
aS'football'
p4965
asI994
(lp4966
S'Where'
p4967
aS'is'
p4968
aS'the'
p4969
aS'football'
p4970
asI995
(lp4971
S'Where'
p4972
aS'is'
p4973
aS'the'
p4974
aS'football'
p4975
asI996
(lp4976
S'Where'
p4977
aS'is'
p4978
aS'the'
p4979
aS'apple'
p4980
asI997
(lp4981
S'Where'
p4982
aS'is'
p4983
aS'the'
p4984
aS'apple'
p4985
asI998
(lp4986
S'Where'
p4987
aS'is'
p4988
aS'the'
p4989
aS'apple'
p4990
asI999
(lp4991
S'Where'
p4992
aS'is'
p4993
aS'the'
p4994
aS'apple'
p4995
asI1000
(lp4996
S'Where'
p4997
aS'is'
p4998
aS'the'
p4999
aS'apple'
p5000
as.