(dp0
I1
(lp1
S'How'
p2
aS'do'
p3
aS'you'
p4
aS'go'
p5
aS'from'
p6
aS'the'
p7
aS'kitchen'
p8
aS'to'
p9
aS'the'
p10
aS'garden'
p11
asI2
(lp12
S'How'
p13
aS'do'
p14
aS'you'
p15
aS'go'
p16
aS'from'
p17
aS'the'
p18
aS'kitchen'
p19
aS'to'
p20
aS'the'
p21
aS'hallway'
p22
asI3
(lp23
S'How'
p24
aS'do'
p25
aS'you'
p26
aS'go'
p27
aS'from'
p28
aS'the'
p29
aS'garden'
p30
aS'to'
p31
aS'the'
p32
aS'bedroom'
p33
asI4
(lp34
S'How'
p35
aS'do'
p36
aS'you'
p37
aS'go'
p38
aS'from'
p39
aS'the'
p40
aS'bedroom'
p41
aS'to'
p42
aS'the'
p43
aS'kitchen'
p44
asI5
(lp45
S'How'
p46
aS'do'
p47
aS'you'
p48
aS'go'
p49
aS'from'
p50
aS'the'
p51
aS'bedroom'
p52
aS'to'
p53
aS'the'
p54
aS'kitchen'
p55
asI6
(lp56
S'How'
p57
aS'do'
p58
aS'you'
p59
aS'go'
p60
aS'from'
p61
aS'the'
p62
aS'bedroom'
p63
aS'to'
p64
aS'the'
p65
aS'garden'
p66
asI7
(lp67
S'How'
p68
aS'do'
p69
aS'you'
p70
aS'go'
p71
aS'from'
p72
aS'the'
p73
aS'garden'
p74
aS'to'
p75
aS'the'
p76
aS'office'
p77
asI8
(lp78
S'How'
p79
aS'do'
p80
aS'you'
p81
aS'go'
p82
aS'from'
p83
aS'the'
p84
aS'hallway'
p85
aS'to'
p86
aS'the'
p87
aS'kitchen'
p88
asI9
(lp89
S'How'
p90
aS'do'
p91
aS'you'
p92
aS'go'
p93
aS'from'
p94
aS'the'
p95
aS'hallway'
p96
aS'to'
p97
aS'the'
p98
aS'bedroom'
p99
asI10
(lp100
S'How'
p101
aS'do'
p102
aS'you'
p103
aS'go'
p104
aS'from'
p105
aS'the'
p106
aS'hallway'
p107
aS'to'
p108
aS'the'
p109
aS'bedroom'
p110
asI11
(lp111
S'How'
p112
aS'do'
p113
aS'you'
p114
aS'go'
p115
aS'from'
p116
aS'the'
p117
aS'bedroom'
p118
aS'to'
p119
aS'the'
p120
aS'garden'
p121
asI12
(lp122
S'How'
p123
aS'do'
p124
aS'you'
p125
aS'go'
p126
aS'from'
p127
aS'the'
p128
aS'kitchen'
p129
aS'to'
p130
aS'the'
p131
aS'bathroom'
p132
asI13
(lp133
S'How'
p134
aS'do'
p135
aS'you'
p136
aS'go'
p137
aS'from'
p138
aS'the'
p139
aS'bathroom'
p140
aS'to'
p141
aS'the'
p142
aS'kitchen'
p143
asI14
(lp144
S'How'
p145
aS'do'
p146
aS'you'
p147
aS'go'
p148
aS'from'
p149
aS'the'
p150
aS'hallway'
p151
aS'to'
p152
aS'the'
p153
aS'office'
p154
asI15
(lp155
S'How'
p156
aS'do'
p157
aS'you'
p158
aS'go'
p159
aS'from'
p160
aS'the'
p161
aS'kitchen'
p162
aS'to'
p163
aS'the'
p164
aS'garden'
p165
asI16
(lp166
S'How'
p167
aS'do'
p168
aS'you'
p169
aS'go'
p170
aS'from'
p171
aS'the'
p172
aS'bedroom'
p173
aS'to'
p174
aS'the'
p175
aS'office'
p176
asI17
(lp177
S'How'
p178
aS'do'
p179
aS'you'
p180
aS'go'
p181
aS'from'
p182
aS'the'
p183
aS'hallway'
p184
aS'to'
p185
aS'the'
p186
aS'garden'
p187
asI18
(lp188
S'How'
p189
aS'do'
p190
aS'you'
p191
aS'go'
p192
aS'from'
p193
aS'the'
p194
aS'bedroom'
p195
aS'to'
p196
aS'the'
p197
aS'kitchen'
p198
asI19
(lp199
S'How'
p200
aS'do'
p201
aS'you'
p202
aS'go'
p203
aS'from'
p204
aS'the'
p205
aS'garden'
p206
aS'to'
p207
aS'the'
p208
aS'hallway'
p209
asI20
(lp210
S'How'
p211
aS'do'
p212
aS'you'
p213
aS'go'
p214
aS'from'
p215
aS'the'
p216
aS'bedroom'
p217
aS'to'
p218
aS'the'
p219
aS'kitchen'
p220
asI21
(lp221
S'How'
p222
aS'do'
p223
aS'you'
p224
aS'go'
p225
aS'from'
p226
aS'the'
p227
aS'office'
p228
aS'to'
p229
aS'the'
p230
aS'bedroom'
p231
asI22
(lp232
S'How'
p233
aS'do'
p234
aS'you'
p235
aS'go'
p236
aS'from'
p237
aS'the'
p238
aS'bedroom'
p239
aS'to'
p240
aS'the'
p241
aS'bathroom'
p242
asI23
(lp243
S'How'
p244
aS'do'
p245
aS'you'
p246
aS'go'
p247
aS'from'
p248
aS'the'
p249
aS'kitchen'
p250
aS'to'
p251
aS'the'
p252
aS'hallway'
p253
asI24
(lp254
S'How'
p255
aS'do'
p256
aS'you'
p257
aS'go'
p258
aS'from'
p259
aS'the'
p260
aS'garden'
p261
aS'to'
p262
aS'the'
p263
aS'bathroom'
p264
asI25
(lp265
S'How'
p266
aS'do'
p267
aS'you'
p268
aS'go'
p269
aS'from'
p270
aS'the'
p271
aS'bathroom'
p272
aS'to'
p273
aS'the'
p274
aS'office'
p275
asI26
(lp276
S'How'
p277
aS'do'
p278
aS'you'
p279
aS'go'
p280
aS'from'
p281
aS'the'
p282
aS'office'
p283
aS'to'
p284
aS'the'
p285
aS'garden'
p286
asI27
(lp287
S'How'
p288
aS'do'
p289
aS'you'
p290
aS'go'
p291
aS'from'
p292
aS'the'
p293
aS'hallway'
p294
aS'to'
p295
aS'the'
p296
aS'kitchen'
p297
asI28
(lp298
S'How'
p299
aS'do'
p300
aS'you'
p301
aS'go'
p302
aS'from'
p303
aS'the'
p304
aS'garden'
p305
aS'to'
p306
aS'the'
p307
aS'office'
p308
asI29
(lp309
S'How'
p310
aS'do'
p311
aS'you'
p312
aS'go'
p313
aS'from'
p314
aS'the'
p315
aS'hallway'
p316
aS'to'
p317
aS'the'
p318
aS'garden'
p319
asI30
(lp320
S'How'
p321
aS'do'
p322
aS'you'
p323
aS'go'
p324
aS'from'
p325
aS'the'
p326
aS'office'
p327
aS'to'
p328
aS'the'
p329
aS'kitchen'
p330
asI31
(lp331
S'How'
p332
aS'do'
p333
aS'you'
p334
aS'go'
p335
aS'from'
p336
aS'the'
p337
aS'hallway'
p338
aS'to'
p339
aS'the'
p340
aS'garden'
p341
asI32
(lp342
S'How'
p343
aS'do'
p344
aS'you'
p345
aS'go'
p346
aS'from'
p347
aS'the'
p348
aS'bedroom'
p349
aS'to'
p350
aS'the'
p351
aS'kitchen'
p352
asI33
(lp353
S'How'
p354
aS'do'
p355
aS'you'
p356
aS'go'
p357
aS'from'
p358
aS'the'
p359
aS'kitchen'
p360
aS'to'
p361
aS'the'
p362
aS'hallway'
p363
asI34
(lp364
S'How'
p365
aS'do'
p366
aS'you'
p367
aS'go'
p368
aS'from'
p369
aS'the'
p370
aS'bathroom'
p371
aS'to'
p372
aS'the'
p373
aS'garden'
p374
asI35
(lp375
S'How'
p376
aS'do'
p377
aS'you'
p378
aS'go'
p379
aS'from'
p380
aS'the'
p381
aS'bathroom'
p382
aS'to'
p383
aS'the'
p384
aS'bedroom'
p385
asI36
(lp386
S'How'
p387
aS'do'
p388
aS'you'
p389
aS'go'
p390
aS'from'
p391
aS'the'
p392
aS'bathroom'
p393
aS'to'
p394
aS'the'
p395
aS'office'
p396
asI37
(lp397
S'How'
p398
aS'do'
p399
aS'you'
p400
aS'go'
p401
aS'from'
p402
aS'the'
p403
aS'bathroom'
p404
aS'to'
p405
aS'the'
p406
aS'kitchen'
p407
asI38
(lp408
S'How'
p409
aS'do'
p410
aS'you'
p411
aS'go'
p412
aS'from'
p413
aS'the'
p414
aS'bedroom'
p415
aS'to'
p416
aS'the'
p417
aS'hallway'
p418
asI39
(lp419
S'How'
p420
aS'do'
p421
aS'you'
p422
aS'go'
p423
aS'from'
p424
aS'the'
p425
aS'garden'
p426
aS'to'
p427
aS'the'
p428
aS'office'
p429
asI40
(lp430
S'How'
p431
aS'do'
p432
aS'you'
p433
aS'go'
p434
aS'from'
p435
aS'the'
p436
aS'bedroom'
p437
aS'to'
p438
aS'the'
p439
aS'hallway'
p440
asI41
(lp441
S'How'
p442
aS'do'
p443
aS'you'
p444
aS'go'
p445
aS'from'
p446
aS'the'
p447
aS'bathroom'
p448
aS'to'
p449
aS'the'
p450
aS'garden'
p451
asI42
(lp452
S'How'
p453
aS'do'
p454
aS'you'
p455
aS'go'
p456
aS'from'
p457
aS'the'
p458
aS'hallway'
p459
aS'to'
p460
aS'the'
p461
aS'bathroom'
p462
asI43
(lp463
S'How'
p464
aS'do'
p465
aS'you'
p466
aS'go'
p467
aS'from'
p468
aS'the'
p469
aS'bathroom'
p470
aS'to'
p471
aS'the'
p472
aS'garden'
p473
asI44
(lp474
S'How'
p475
aS'do'
p476
aS'you'
p477
aS'go'
p478
aS'from'
p479
aS'the'
p480
aS'garden'
p481
aS'to'
p482
aS'the'
p483
aS'hallway'
p484
asI45
(lp485
S'How'
p486
aS'do'
p487
aS'you'
p488
aS'go'
p489
aS'from'
p490
aS'the'
p491
aS'office'
p492
aS'to'
p493
aS'the'
p494
aS'hallway'
p495
asI46
(lp496
S'How'
p497
aS'do'
p498
aS'you'
p499
aS'go'
p500
aS'from'
p501
aS'the'
p502
aS'hallway'
p503
aS'to'
p504
aS'the'
p505
aS'garden'
p506
asI47
(lp507
S'How'
p508
aS'do'
p509
aS'you'
p510
aS'go'
p511
aS'from'
p512
aS'the'
p513
aS'office'
p514
aS'to'
p515
aS'the'
p516
aS'bedroom'
p517
asI48
(lp518
S'How'
p519
aS'do'
p520
aS'you'
p521
aS'go'
p522
aS'from'
p523
aS'the'
p524
aS'office'
p525
aS'to'
p526
aS'the'
p527
aS'bathroom'
p528
asI49
(lp529
S'How'
p530
aS'do'
p531
aS'you'
p532
aS'go'
p533
aS'from'
p534
aS'the'
p535
aS'office'
p536
aS'to'
p537
aS'the'
p538
aS'kitchen'
p539
asI50
(lp540
S'How'
p541
aS'do'
p542
aS'you'
p543
aS'go'
p544
aS'from'
p545
aS'the'
p546
aS'bedroom'
p547
aS'to'
p548
aS'the'
p549
aS'office'
p550
asI51
(lp551
S'How'
p552
aS'do'
p553
aS'you'
p554
aS'go'
p555
aS'from'
p556
aS'the'
p557
aS'kitchen'
p558
aS'to'
p559
aS'the'
p560
aS'bedroom'
p561
asI52
(lp562
S'How'
p563
aS'do'
p564
aS'you'
p565
aS'go'
p566
aS'from'
p567
aS'the'
p568
aS'office'
p569
aS'to'
p570
aS'the'
p571
aS'kitchen'
p572
asI53
(lp573
S'How'
p574
aS'do'
p575
aS'you'
p576
aS'go'
p577
aS'from'
p578
aS'the'
p579
aS'hallway'
p580
aS'to'
p581
aS'the'
p582
aS'bathroom'
p583
asI54
(lp584
S'How'
p585
aS'do'
p586
aS'you'
p587
aS'go'
p588
aS'from'
p589
aS'the'
p590
aS'bedroom'
p591
aS'to'
p592
aS'the'
p593
aS'office'
p594
asI55
(lp595
S'How'
p596
aS'do'
p597
aS'you'
p598
aS'go'
p599
aS'from'
p600
aS'the'
p601
aS'office'
p602
aS'to'
p603
aS'the'
p604
aS'hallway'
p605
asI56
(lp606
S'How'
p607
aS'do'
p608
aS'you'
p609
aS'go'
p610
aS'from'
p611
aS'the'
p612
aS'kitchen'
p613
aS'to'
p614
aS'the'
p615
aS'bathroom'
p616
asI57
(lp617
S'How'
p618
aS'do'
p619
aS'you'
p620
aS'go'
p621
aS'from'
p622
aS'the'
p623
aS'garden'
p624
aS'to'
p625
aS'the'
p626
aS'bathroom'
p627
asI58
(lp628
S'How'
p629
aS'do'
p630
aS'you'
p631
aS'go'
p632
aS'from'
p633
aS'the'
p634
aS'garden'
p635
aS'to'
p636
aS'the'
p637
aS'bedroom'
p638
asI59
(lp639
S'How'
p640
aS'do'
p641
aS'you'
p642
aS'go'
p643
aS'from'
p644
aS'the'
p645
aS'bathroom'
p646
aS'to'
p647
aS'the'
p648
aS'garden'
p649
asI60
(lp650
S'How'
p651
aS'do'
p652
aS'you'
p653
aS'go'
p654
aS'from'
p655
aS'the'
p656
aS'office'
p657
aS'to'
p658
aS'the'
p659
aS'kitchen'
p660
asI61
(lp661
S'How'
p662
aS'do'
p663
aS'you'
p664
aS'go'
p665
aS'from'
p666
aS'the'
p667
aS'bathroom'
p668
aS'to'
p669
aS'the'
p670
aS'bedroom'
p671
asI62
(lp672
S'How'
p673
aS'do'
p674
aS'you'
p675
aS'go'
p676
aS'from'
p677
aS'the'
p678
aS'hallway'
p679
aS'to'
p680
aS'the'
p681
aS'office'
p682
asI63
(lp683
S'How'
p684
aS'do'
p685
aS'you'
p686
aS'go'
p687
aS'from'
p688
aS'the'
p689
aS'hallway'
p690
aS'to'
p691
aS'the'
p692
aS'bathroom'
p693
asI64
(lp694
S'How'
p695
aS'do'
p696
aS'you'
p697
aS'go'
p698
aS'from'
p699
aS'the'
p700
aS'hallway'
p701
aS'to'
p702
aS'the'
p703
aS'bedroom'
p704
asI65
(lp705
S'How'
p706
aS'do'
p707
aS'you'
p708
aS'go'
p709
aS'from'
p710
aS'the'
p711
aS'bathroom'
p712
aS'to'
p713
aS'the'
p714
aS'bedroom'
p715
asI66
(lp716
S'How'
p717
aS'do'
p718
aS'you'
p719
aS'go'
p720
aS'from'
p721
aS'the'
p722
aS'garden'
p723
aS'to'
p724
aS'the'
p725
aS'office'
p726
asI67
(lp727
S'How'
p728
aS'do'
p729
aS'you'
p730
aS'go'
p731
aS'from'
p732
aS'the'
p733
aS'office'
p734
aS'to'
p735
aS'the'
p736
aS'bathroom'
p737
asI68
(lp738
S'How'
p739
aS'do'
p740
aS'you'
p741
aS'go'
p742
aS'from'
p743
aS'the'
p744
aS'office'
p745
aS'to'
p746
aS'the'
p747
aS'kitchen'
p748
asI69
(lp749
S'How'
p750
aS'do'
p751
aS'you'
p752
aS'go'
p753
aS'from'
p754
aS'the'
p755
aS'bathroom'
p756
aS'to'
p757
aS'the'
p758
aS'bedroom'
p759
asI70
(lp760
S'How'
p761
aS'do'
p762
aS'you'
p763
aS'go'
p764
aS'from'
p765
aS'the'
p766
aS'bathroom'
p767
aS'to'
p768
aS'the'
p769
aS'hallway'
p770
asI71
(lp771
S'How'
p772
aS'do'
p773
aS'you'
p774
aS'go'
p775
aS'from'
p776
aS'the'
p777
aS'garden'
p778
aS'to'
p779
aS'the'
p780
aS'bathroom'
p781
asI72
(lp782
S'How'
p783
aS'do'
p784
aS'you'
p785
aS'go'
p786
aS'from'
p787
aS'the'
p788
aS'kitchen'
p789
aS'to'
p790
aS'the'
p791
aS'garden'
p792
asI73
(lp793
S'How'
p794
aS'do'
p795
aS'you'
p796
aS'go'
p797
aS'from'
p798
aS'the'
p799
aS'office'
p800
aS'to'
p801
aS'the'
p802
aS'hallway'
p803
asI74
(lp804
S'How'
p805
aS'do'
p806
aS'you'
p807
aS'go'
p808
aS'from'
p809
aS'the'
p810
aS'bathroom'
p811
aS'to'
p812
aS'the'
p813
aS'kitchen'
p814
asI75
(lp815
S'How'
p816
aS'do'
p817
aS'you'
p818
aS'go'
p819
aS'from'
p820
aS'the'
p821
aS'bathroom'
p822
aS'to'
p823
aS'the'
p824
aS'bedroom'
p825
asI76
(lp826
S'How'
p827
aS'do'
p828
aS'you'
p829
aS'go'
p830
aS'from'
p831
aS'the'
p832
aS'office'
p833
aS'to'
p834
aS'the'
p835
aS'bedroom'
p836
asI77
(lp837
S'How'
p838
aS'do'
p839
aS'you'
p840
aS'go'
p841
aS'from'
p842
aS'the'
p843
aS'bathroom'
p844
aS'to'
p845
aS'the'
p846
aS'office'
p847
asI78
(lp848
S'How'
p849
aS'do'
p850
aS'you'
p851
aS'go'
p852
aS'from'
p853
aS'the'
p854
aS'garden'
p855
aS'to'
p856
aS'the'
p857
aS'kitchen'
p858
asI79
(lp859
S'How'
p860
aS'do'
p861
aS'you'
p862
aS'go'
p863
aS'from'
p864
aS'the'
p865
aS'bathroom'
p866
aS'to'
p867
aS'the'
p868
aS'kitchen'
p869
asI80
(lp870
S'How'
p871
aS'do'
p872
aS'you'
p873
aS'go'
p874
aS'from'
p875
aS'the'
p876
aS'bathroom'
p877
aS'to'
p878
aS'the'
p879
aS'bedroom'
p880
asI81
(lp881
S'How'
p882
aS'do'
p883
aS'you'
p884
aS'go'
p885
aS'from'
p886
aS'the'
p887
aS'garden'
p888
aS'to'
p889
aS'the'
p890
aS'hallway'
p891
asI82
(lp892
S'How'
p893
aS'do'
p894
aS'you'
p895
aS'go'
p896
aS'from'
p897
aS'the'
p898
aS'hallway'
p899
aS'to'
p900
aS'the'
p901
aS'bedroom'
p902
asI83
(lp903
S'How'
p904
aS'do'
p905
aS'you'
p906
aS'go'
p907
aS'from'
p908
aS'the'
p909
aS'garden'
p910
aS'to'
p911
aS'the'
p912
aS'hallway'
p913
asI84
(lp914
S'How'
p915
aS'do'
p916
aS'you'
p917
aS'go'
p918
aS'from'
p919
aS'the'
p920
aS'bedroom'
p921
aS'to'
p922
aS'the'
p923
aS'bathroom'
p924
asI85
(lp925
S'How'
p926
aS'do'
p927
aS'you'
p928
aS'go'
p929
aS'from'
p930
aS'the'
p931
aS'bathroom'
p932
aS'to'
p933
aS'the'
p934
aS'bedroom'
p935
asI86
(lp936
S'How'
p937
aS'do'
p938
aS'you'
p939
aS'go'
p940
aS'from'
p941
aS'the'
p942
aS'hallway'
p943
aS'to'
p944
aS'the'
p945
aS'bedroom'
p946
asI87
(lp947
S'How'
p948
aS'do'
p949
aS'you'
p950
aS'go'
p951
aS'from'
p952
aS'the'
p953
aS'garden'
p954
aS'to'
p955
aS'the'
p956
aS'office'
p957
asI88
(lp958
S'How'
p959
aS'do'
p960
aS'you'
p961
aS'go'
p962
aS'from'
p963
aS'the'
p964
aS'office'
p965
aS'to'
p966
aS'the'
p967
aS'hallway'
p968
asI89
(lp969
S'How'
p970
aS'do'
p971
aS'you'
p972
aS'go'
p973
aS'from'
p974
aS'the'
p975
aS'bedroom'
p976
aS'to'
p977
aS'the'
p978
aS'hallway'
p979
asI90
(lp980
S'How'
p981
aS'do'
p982
aS'you'
p983
aS'go'
p984
aS'from'
p985
aS'the'
p986
aS'office'
p987
aS'to'
p988
aS'the'
p989
aS'hallway'
p990
asI91
(lp991
S'How'
p992
aS'do'
p993
aS'you'
p994
aS'go'
p995
aS'from'
p996
aS'the'
p997
aS'bathroom'
p998
aS'to'
p999
aS'the'
p1000
aS'bedroom'
p1001
asI92
(lp1002
S'How'
p1003
aS'do'
p1004
aS'you'
p1005
aS'go'
p1006
aS'from'
p1007
aS'the'
p1008
aS'kitchen'
p1009
aS'to'
p1010
aS'the'
p1011
aS'bathroom'
p1012
asI93
(lp1013
S'How'
p1014
aS'do'
p1015
aS'you'
p1016
aS'go'
p1017
aS'from'
p1018
aS'the'
p1019
aS'kitchen'
p1020
aS'to'
p1021
aS'the'
p1022
aS'garden'
p1023
asI94
(lp1024
S'How'
p1025
aS'do'
p1026
aS'you'
p1027
aS'go'
p1028
aS'from'
p1029
aS'the'
p1030
aS'office'
p1031
aS'to'
p1032
aS'the'
p1033
aS'garden'
p1034
asI95
(lp1035
S'How'
p1036
aS'do'
p1037
aS'you'
p1038
aS'go'
p1039
aS'from'
p1040
aS'the'
p1041
aS'hallway'
p1042
aS'to'
p1043
aS'the'
p1044
aS'office'
p1045
asI96
(lp1046
S'How'
p1047
aS'do'
p1048
aS'you'
p1049
aS'go'
p1050
aS'from'
p1051
aS'the'
p1052
aS'bedroom'
p1053
aS'to'
p1054
aS'the'
p1055
aS'hallway'
p1056
asI97
(lp1057
S'How'
p1058
aS'do'
p1059
aS'you'
p1060
aS'go'
p1061
aS'from'
p1062
aS'the'
p1063
aS'kitchen'
p1064
aS'to'
p1065
aS'the'
p1066
aS'hallway'
p1067
asI98
(lp1068
S'How'
p1069
aS'do'
p1070
aS'you'
p1071
aS'go'
p1072
aS'from'
p1073
aS'the'
p1074
aS'hallway'
p1075
aS'to'
p1076
aS'the'
p1077
aS'bedroom'
p1078
asI99
(lp1079
S'How'
p1080
aS'do'
p1081
aS'you'
p1082
aS'go'
p1083
aS'from'
p1084
aS'the'
p1085
aS'garden'
p1086
aS'to'
p1087
aS'the'
p1088
aS'office'
p1089
asI100
(lp1090
S'How'
p1091
aS'do'
p1092
aS'you'
p1093
aS'go'
p1094
aS'from'
p1095
aS'the'
p1096
aS'bathroom'
p1097
aS'to'
p1098
aS'the'
p1099
aS'kitchen'
p1100
asI101
(lp1101
S'How'
p1102
aS'do'
p1103
aS'you'
p1104
aS'go'
p1105
aS'from'
p1106
aS'the'
p1107
aS'garden'
p1108
aS'to'
p1109
aS'the'
p1110
aS'office'
p1111
asI102
(lp1112
S'How'
p1113
aS'do'
p1114
aS'you'
p1115
aS'go'
p1116
aS'from'
p1117
aS'the'
p1118
aS'garden'
p1119
aS'to'
p1120
aS'the'
p1121
aS'hallway'
p1122
asI103
(lp1123
S'How'
p1124
aS'do'
p1125
aS'you'
p1126
aS'go'
p1127
aS'from'
p1128
aS'the'
p1129
aS'bedroom'
p1130
aS'to'
p1131
aS'the'
p1132
aS'office'
p1133
asI104
(lp1134
S'How'
p1135
aS'do'
p1136
aS'you'
p1137
aS'go'
p1138
aS'from'
p1139
aS'the'
p1140
aS'garden'
p1141
aS'to'
p1142
aS'the'
p1143
aS'hallway'
p1144
asI105
(lp1145
S'How'
p1146
aS'do'
p1147
aS'you'
p1148
aS'go'
p1149
aS'from'
p1150
aS'the'
p1151
aS'garden'
p1152
aS'to'
p1153
aS'the'
p1154
aS'kitchen'
p1155
asI106
(lp1156
S'How'
p1157
aS'do'
p1158
aS'you'
p1159
aS'go'
p1160
aS'from'
p1161
aS'the'
p1162
aS'bedroom'
p1163
aS'to'
p1164
aS'the'
p1165
aS'office'
p1166
asI107
(lp1167
S'How'
p1168
aS'do'
p1169
aS'you'
p1170
aS'go'
p1171
aS'from'
p1172
aS'the'
p1173
aS'hallway'
p1174
aS'to'
p1175
aS'the'
p1176
aS'kitchen'
p1177
asI108
(lp1178
S'How'
p1179
aS'do'
p1180
aS'you'
p1181
aS'go'
p1182
aS'from'
p1183
aS'the'
p1184
aS'garden'
p1185
aS'to'
p1186
aS'the'
p1187
aS'bedroom'
p1188
asI109
(lp1189
S'How'
p1190
aS'do'
p1191
aS'you'
p1192
aS'go'
p1193
aS'from'
p1194
aS'the'
p1195
aS'bathroom'
p1196
aS'to'
p1197
aS'the'
p1198
aS'bedroom'
p1199
asI110
(lp1200
S'How'
p1201
aS'do'
p1202
aS'you'
p1203
aS'go'
p1204
aS'from'
p1205
aS'the'
p1206
aS'bathroom'
p1207
aS'to'
p1208
aS'the'
p1209
aS'garden'
p1210
asI111
(lp1211
S'How'
p1212
aS'do'
p1213
aS'you'
p1214
aS'go'
p1215
aS'from'
p1216
aS'the'
p1217
aS'office'
p1218
aS'to'
p1219
aS'the'
p1220
aS'garden'
p1221
asI112
(lp1222
S'How'
p1223
aS'do'
p1224
aS'you'
p1225
aS'go'
p1226
aS'from'
p1227
aS'the'
p1228
aS'bathroom'
p1229
aS'to'
p1230
aS'the'
p1231
aS'garden'
p1232
asI113
(lp1233
S'How'
p1234
aS'do'
p1235
aS'you'
p1236
aS'go'
p1237
aS'from'
p1238
aS'the'
p1239
aS'hallway'
p1240
aS'to'
p1241
aS'the'
p1242
aS'office'
p1243
asI114
(lp1244
S'How'
p1245
aS'do'
p1246
aS'you'
p1247
aS'go'
p1248
aS'from'
p1249
aS'the'
p1250
aS'bedroom'
p1251
aS'to'
p1252
aS'the'
p1253
aS'office'
p1254
asI115
(lp1255
S'How'
p1256
aS'do'
p1257
aS'you'
p1258
aS'go'
p1259
aS'from'
p1260
aS'the'
p1261
aS'bathroom'
p1262
aS'to'
p1263
aS'the'
p1264
aS'bedroom'
p1265
asI116
(lp1266
S'How'
p1267
aS'do'
p1268
aS'you'
p1269
aS'go'
p1270
aS'from'
p1271
aS'the'
p1272
aS'garden'
p1273
aS'to'
p1274
aS'the'
p1275
aS'kitchen'
p1276
asI117
(lp1277
S'How'
p1278
aS'do'
p1279
aS'you'
p1280
aS'go'
p1281
aS'from'
p1282
aS'the'
p1283
aS'garden'
p1284
aS'to'
p1285
aS'the'
p1286
aS'bathroom'
p1287
asI118
(lp1288
S'How'
p1289
aS'do'
p1290
aS'you'
p1291
aS'go'
p1292
aS'from'
p1293
aS'the'
p1294
aS'bedroom'
p1295
aS'to'
p1296
aS'the'
p1297
aS'office'
p1298
asI119
(lp1299
S'How'
p1300
aS'do'
p1301
aS'you'
p1302
aS'go'
p1303
aS'from'
p1304
aS'the'
p1305
aS'hallway'
p1306
aS'to'
p1307
aS'the'
p1308
aS'office'
p1309
asI120
(lp1310
S'How'
p1311
aS'do'
p1312
aS'you'
p1313
aS'go'
p1314
aS'from'
p1315
aS'the'
p1316
aS'bedroom'
p1317
aS'to'
p1318
aS'the'
p1319
aS'garden'
p1320
asI121
(lp1321
S'How'
p1322
aS'do'
p1323
aS'you'
p1324
aS'go'
p1325
aS'from'
p1326
aS'the'
p1327
aS'garden'
p1328
aS'to'
p1329
aS'the'
p1330
aS'bathroom'
p1331
asI122
(lp1332
S'How'
p1333
aS'do'
p1334
aS'you'
p1335
aS'go'
p1336
aS'from'
p1337
aS'the'
p1338
aS'garden'
p1339
aS'to'
p1340
aS'the'
p1341
aS'office'
p1342
asI123
(lp1343
S'How'
p1344
aS'do'
p1345
aS'you'
p1346
aS'go'
p1347
aS'from'
p1348
aS'the'
p1349
aS'bathroom'
p1350
aS'to'
p1351
aS'the'
p1352
aS'kitchen'
p1353
asI124
(lp1354
S'How'
p1355
aS'do'
p1356
aS'you'
p1357
aS'go'
p1358
aS'from'
p1359
aS'the'
p1360
aS'kitchen'
p1361
aS'to'
p1362
aS'the'
p1363
aS'bedroom'
p1364
asI125
(lp1365
S'How'
p1366
aS'do'
p1367
aS'you'
p1368
aS'go'
p1369
aS'from'
p1370
aS'the'
p1371
aS'bedroom'
p1372
aS'to'
p1373
aS'the'
p1374
aS'garden'
p1375
asI126
(lp1376
S'How'
p1377
aS'do'
p1378
aS'you'
p1379
aS'go'
p1380
aS'from'
p1381
aS'the'
p1382
aS'bathroom'
p1383
aS'to'
p1384
aS'the'
p1385
aS'bedroom'
p1386
asI127
(lp1387
S'How'
p1388
aS'do'
p1389
aS'you'
p1390
aS'go'
p1391
aS'from'
p1392
aS'the'
p1393
aS'bedroom'
p1394
aS'to'
p1395
aS'the'
p1396
aS'garden'
p1397
asI128
(lp1398
S'How'
p1399
aS'do'
p1400
aS'you'
p1401
aS'go'
p1402
aS'from'
p1403
aS'the'
p1404
aS'garden'
p1405
aS'to'
p1406
aS'the'
p1407
aS'hallway'
p1408
asI129
(lp1409
S'How'
p1410
aS'do'
p1411
aS'you'
p1412
aS'go'
p1413
aS'from'
p1414
aS'the'
p1415
aS'bathroom'
p1416
aS'to'
p1417
aS'the'
p1418
aS'office'
p1419
asI130
(lp1420
S'How'
p1421
aS'do'
p1422
aS'you'
p1423
aS'go'
p1424
aS'from'
p1425
aS'the'
p1426
aS'kitchen'
p1427
aS'to'
p1428
aS'the'
p1429
aS'garden'
p1430
asI131
(lp1431
S'How'
p1432
aS'do'
p1433
aS'you'
p1434
aS'go'
p1435
aS'from'
p1436
aS'the'
p1437
aS'garden'
p1438
aS'to'
p1439
aS'the'
p1440
aS'kitchen'
p1441
asI132
(lp1442
S'How'
p1443
aS'do'
p1444
aS'you'
p1445
aS'go'
p1446
aS'from'
p1447
aS'the'
p1448
aS'garden'
p1449
aS'to'
p1450
aS'the'
p1451
aS'bedroom'
p1452
asI133
(lp1453
S'How'
p1454
aS'do'
p1455
aS'you'
p1456
aS'go'
p1457
aS'from'
p1458
aS'the'
p1459
aS'kitchen'
p1460
aS'to'
p1461
aS'the'
p1462
aS'garden'
p1463
asI134
(lp1464
S'How'
p1465
aS'do'
p1466
aS'you'
p1467
aS'go'
p1468
aS'from'
p1469
aS'the'
p1470
aS'garden'
p1471
aS'to'
p1472
aS'the'
p1473
aS'bedroom'
p1474
asI135
(lp1475
S'How'
p1476
aS'do'
p1477
aS'you'
p1478
aS'go'
p1479
aS'from'
p1480
aS'the'
p1481
aS'office'
p1482
aS'to'
p1483
aS'the'
p1484
aS'kitchen'
p1485
asI136
(lp1486
S'How'
p1487
aS'do'
p1488
aS'you'
p1489
aS'go'
p1490
aS'from'
p1491
aS'the'
p1492
aS'kitchen'
p1493
aS'to'
p1494
aS'the'
p1495
aS'bedroom'
p1496
asI137
(lp1497
S'How'
p1498
aS'do'
p1499
aS'you'
p1500
aS'go'
p1501
aS'from'
p1502
aS'the'
p1503
aS'office'
p1504
aS'to'
p1505
aS'the'
p1506
aS'kitchen'
p1507
asI138
(lp1508
S'How'
p1509
aS'do'
p1510
aS'you'
p1511
aS'go'
p1512
aS'from'
p1513
aS'the'
p1514
aS'bathroom'
p1515
aS'to'
p1516
aS'the'
p1517
aS'bedroom'
p1518
asI139
(lp1519
S'How'
p1520
aS'do'
p1521
aS'you'
p1522
aS'go'
p1523
aS'from'
p1524
aS'the'
p1525
aS'bathroom'
p1526
aS'to'
p1527
aS'the'
p1528
aS'bedroom'
p1529
asI140
(lp1530
S'How'
p1531
aS'do'
p1532
aS'you'
p1533
aS'go'
p1534
aS'from'
p1535
aS'the'
p1536
aS'hallway'
p1537
aS'to'
p1538
aS'the'
p1539
aS'bathroom'
p1540
asI141
(lp1541
S'How'
p1542
aS'do'
p1543
aS'you'
p1544
aS'go'
p1545
aS'from'
p1546
aS'the'
p1547
aS'bathroom'
p1548
aS'to'
p1549
aS'the'
p1550
aS'hallway'
p1551
asI142
(lp1552
S'How'
p1553
aS'do'
p1554
aS'you'
p1555
aS'go'
p1556
aS'from'
p1557
aS'the'
p1558
aS'garden'
p1559
aS'to'
p1560
aS'the'
p1561
aS'hallway'
p1562
asI143
(lp1563
S'How'
p1564
aS'do'
p1565
aS'you'
p1566
aS'go'
p1567
aS'from'
p1568
aS'the'
p1569
aS'kitchen'
p1570
aS'to'
p1571
aS'the'
p1572
aS'hallway'
p1573
asI144
(lp1574
S'How'
p1575
aS'do'
p1576
aS'you'
p1577
aS'go'
p1578
aS'from'
p1579
aS'the'
p1580
aS'garden'
p1581
aS'to'
p1582
aS'the'
p1583
aS'office'
p1584
asI145
(lp1585
S'How'
p1586
aS'do'
p1587
aS'you'
p1588
aS'go'
p1589
aS'from'
p1590
aS'the'
p1591
aS'bathroom'
p1592
aS'to'
p1593
aS'the'
p1594
aS'kitchen'
p1595
asI146
(lp1596
S'How'
p1597
aS'do'
p1598
aS'you'
p1599
aS'go'
p1600
aS'from'
p1601
aS'the'
p1602
aS'garden'
p1603
aS'to'
p1604
aS'the'
p1605
aS'bedroom'
p1606
asI147
(lp1607
S'How'
p1608
aS'do'
p1609
aS'you'
p1610
aS'go'
p1611
aS'from'
p1612
aS'the'
p1613
aS'bathroom'
p1614
aS'to'
p1615
aS'the'
p1616
aS'office'
p1617
asI148
(lp1618
S'How'
p1619
aS'do'
p1620
aS'you'
p1621
aS'go'
p1622
aS'from'
p1623
aS'the'
p1624
aS'garden'
p1625
aS'to'
p1626
aS'the'
p1627
aS'bedroom'
p1628
asI149
(lp1629
S'How'
p1630
aS'do'
p1631
aS'you'
p1632
aS'go'
p1633
aS'from'
p1634
aS'the'
p1635
aS'kitchen'
p1636
aS'to'
p1637
aS'the'
p1638
aS'bathroom'
p1639
asI150
(lp1640
S'How'
p1641
aS'do'
p1642
aS'you'
p1643
aS'go'
p1644
aS'from'
p1645
aS'the'
p1646
aS'bedroom'
p1647
aS'to'
p1648
aS'the'
p1649
aS'garden'
p1650
asI151
(lp1651
S'How'
p1652
aS'do'
p1653
aS'you'
p1654
aS'go'
p1655
aS'from'
p1656
aS'the'
p1657
aS'kitchen'
p1658
aS'to'
p1659
aS'the'
p1660
aS'bathroom'
p1661
asI152
(lp1662
S'How'
p1663
aS'do'
p1664
aS'you'
p1665
aS'go'
p1666
aS'from'
p1667
aS'the'
p1668
aS'garden'
p1669
aS'to'
p1670
aS'the'
p1671
aS'hallway'
p1672
asI153
(lp1673
S'How'
p1674
aS'do'
p1675
aS'you'
p1676
aS'go'
p1677
aS'from'
p1678
aS'the'
p1679
aS'office'
p1680
aS'to'
p1681
aS'the'
p1682
aS'kitchen'
p1683
asI154
(lp1684
S'How'
p1685
aS'do'
p1686
aS'you'
p1687
aS'go'
p1688
aS'from'
p1689
aS'the'
p1690
aS'garden'
p1691
aS'to'
p1692
aS'the'
p1693
aS'bathroom'
p1694
asI155
(lp1695
S'How'
p1696
aS'do'
p1697
aS'you'
p1698
aS'go'
p1699
aS'from'
p1700
aS'the'
p1701
aS'bedroom'
p1702
aS'to'
p1703
aS'the'
p1704
aS'bathroom'
p1705
asI156
(lp1706
S'How'
p1707
aS'do'
p1708
aS'you'
p1709
aS'go'
p1710
aS'from'
p1711
aS'the'
p1712
aS'office'
p1713
aS'to'
p1714
aS'the'
p1715
aS'bathroom'
p1716
asI157
(lp1717
S'How'
p1718
aS'do'
p1719
aS'you'
p1720
aS'go'
p1721
aS'from'
p1722
aS'the'
p1723
aS'kitchen'
p1724
aS'to'
p1725
aS'the'
p1726
aS'bathroom'
p1727
asI158
(lp1728
S'How'
p1729
aS'do'
p1730
aS'you'
p1731
aS'go'
p1732
aS'from'
p1733
aS'the'
p1734
aS'office'
p1735
aS'to'
p1736
aS'the'
p1737
aS'garden'
p1738
asI159
(lp1739
S'How'
p1740
aS'do'
p1741
aS'you'
p1742
aS'go'
p1743
aS'from'
p1744
aS'the'
p1745
aS'hallway'
p1746
aS'to'
p1747
aS'the'
p1748
aS'office'
p1749
asI160
(lp1750
S'How'
p1751
aS'do'
p1752
aS'you'
p1753
aS'go'
p1754
aS'from'
p1755
aS'the'
p1756
aS'office'
p1757
aS'to'
p1758
aS'the'
p1759
aS'bedroom'
p1760
asI161
(lp1761
S'How'
p1762
aS'do'
p1763
aS'you'
p1764
aS'go'
p1765
aS'from'
p1766
aS'the'
p1767
aS'office'
p1768
aS'to'
p1769
aS'the'
p1770
aS'garden'
p1771
asI162
(lp1772
S'How'
p1773
aS'do'
p1774
aS'you'
p1775
aS'go'
p1776
aS'from'
p1777
aS'the'
p1778
aS'hallway'
p1779
aS'to'
p1780
aS'the'
p1781
aS'office'
p1782
asI163
(lp1783
S'How'
p1784
aS'do'
p1785
aS'you'
p1786
aS'go'
p1787
aS'from'
p1788
aS'the'
p1789
aS'bedroom'
p1790
aS'to'
p1791
aS'the'
p1792
aS'kitchen'
p1793
asI164
(lp1794
S'How'
p1795
aS'do'
p1796
aS'you'
p1797
aS'go'
p1798
aS'from'
p1799
aS'the'
p1800
aS'office'
p1801
aS'to'
p1802
aS'the'
p1803
aS'kitchen'
p1804
asI165
(lp1805
S'How'
p1806
aS'do'
p1807
aS'you'
p1808
aS'go'
p1809
aS'from'
p1810
aS'the'
p1811
aS'garden'
p1812
aS'to'
p1813
aS'the'
p1814
aS'kitchen'
p1815
asI166
(lp1816
S'How'
p1817
aS'do'
p1818
aS'you'
p1819
aS'go'
p1820
aS'from'
p1821
aS'the'
p1822
aS'bedroom'
p1823
aS'to'
p1824
aS'the'
p1825
aS'office'
p1826
asI167
(lp1827
S'How'
p1828
aS'do'
p1829
aS'you'
p1830
aS'go'
p1831
aS'from'
p1832
aS'the'
p1833
aS'bathroom'
p1834
aS'to'
p1835
aS'the'
p1836
aS'hallway'
p1837
asI168
(lp1838
S'How'
p1839
aS'do'
p1840
aS'you'
p1841
aS'go'
p1842
aS'from'
p1843
aS'the'
p1844
aS'garden'
p1845
aS'to'
p1846
aS'the'
p1847
aS'bedroom'
p1848
asI169
(lp1849
S'How'
p1850
aS'do'
p1851
aS'you'
p1852
aS'go'
p1853
aS'from'
p1854
aS'the'
p1855
aS'kitchen'
p1856
aS'to'
p1857
aS'the'
p1858
aS'bedroom'
p1859
asI170
(lp1860
S'How'
p1861
aS'do'
p1862
aS'you'
p1863
aS'go'
p1864
aS'from'
p1865
aS'the'
p1866
aS'bathroom'
p1867
aS'to'
p1868
aS'the'
p1869
aS'hallway'
p1870
asI171
(lp1871
S'How'
p1872
aS'do'
p1873
aS'you'
p1874
aS'go'
p1875
aS'from'
p1876
aS'the'
p1877
aS'kitchen'
p1878
aS'to'
p1879
aS'the'
p1880
aS'bathroom'
p1881
asI172
(lp1882
S'How'
p1883
aS'do'
p1884
aS'you'
p1885
aS'go'
p1886
aS'from'
p1887
aS'the'
p1888
aS'bathroom'
p1889
aS'to'
p1890
aS'the'
p1891
aS'kitchen'
p1892
asI173
(lp1893
S'How'
p1894
aS'do'
p1895
aS'you'
p1896
aS'go'
p1897
aS'from'
p1898
aS'the'
p1899
aS'kitchen'
p1900
aS'to'
p1901
aS'the'
p1902
aS'office'
p1903
asI174
(lp1904
S'How'
p1905
aS'do'
p1906
aS'you'
p1907
aS'go'
p1908
aS'from'
p1909
aS'the'
p1910
aS'bedroom'
p1911
aS'to'
p1912
aS'the'
p1913
aS'hallway'
p1914
asI175
(lp1915
S'How'
p1916
aS'do'
p1917
aS'you'
p1918
aS'go'
p1919
aS'from'
p1920
aS'the'
p1921
aS'bathroom'
p1922
aS'to'
p1923
aS'the'
p1924
aS'office'
p1925
asI176
(lp1926
S'How'
p1927
aS'do'
p1928
aS'you'
p1929
aS'go'
p1930
aS'from'
p1931
aS'the'
p1932
aS'bathroom'
p1933
aS'to'
p1934
aS'the'
p1935
aS'bedroom'
p1936
asI177
(lp1937
S'How'
p1938
aS'do'
p1939
aS'you'
p1940
aS'go'
p1941
aS'from'
p1942
aS'the'
p1943
aS'kitchen'
p1944
aS'to'
p1945
aS'the'
p1946
aS'office'
p1947
asI178
(lp1948
S'How'
p1949
aS'do'
p1950
aS'you'
p1951
aS'go'
p1952
aS'from'
p1953
aS'the'
p1954
aS'hallway'
p1955
aS'to'
p1956
aS'the'
p1957
aS'kitchen'
p1958
asI179
(lp1959
S'How'
p1960
aS'do'
p1961
aS'you'
p1962
aS'go'
p1963
aS'from'
p1964
aS'the'
p1965
aS'office'
p1966
aS'to'
p1967
aS'the'
p1968
aS'kitchen'
p1969
asI180
(lp1970
S'How'
p1971
aS'do'
p1972
aS'you'
p1973
aS'go'
p1974
aS'from'
p1975
aS'the'
p1976
aS'office'
p1977
aS'to'
p1978
aS'the'
p1979
aS'kitchen'
p1980
asI181
(lp1981
S'How'
p1982
aS'do'
p1983
aS'you'
p1984
aS'go'
p1985
aS'from'
p1986
aS'the'
p1987
aS'office'
p1988
aS'to'
p1989
aS'the'
p1990
aS'bathroom'
p1991
asI182
(lp1992
S'How'
p1993
aS'do'
p1994
aS'you'
p1995
aS'go'
p1996
aS'from'
p1997
aS'the'
p1998
aS'bedroom'
p1999
aS'to'
p2000
aS'the'
p2001
aS'hallway'
p2002
asI183
(lp2003
S'How'
p2004
aS'do'
p2005
aS'you'
p2006
aS'go'
p2007
aS'from'
p2008
aS'the'
p2009
aS'kitchen'
p2010
aS'to'
p2011
aS'the'
p2012
aS'hallway'
p2013
asI184
(lp2014
S'How'
p2015
aS'do'
p2016
aS'you'
p2017
aS'go'
p2018
aS'from'
p2019
aS'the'
p2020
aS'garden'
p2021
aS'to'
p2022
aS'the'
p2023
aS'bathroom'
p2024
asI185
(lp2025
S'How'
p2026
aS'do'
p2027
aS'you'
p2028
aS'go'
p2029
aS'from'
p2030
aS'the'
p2031
aS'office'
p2032
aS'to'
p2033
aS'the'
p2034
aS'bedroom'
p2035
asI186
(lp2036
S'How'
p2037
aS'do'
p2038
aS'you'
p2039
aS'go'
p2040
aS'from'
p2041
aS'the'
p2042
aS'bathroom'
p2043
aS'to'
p2044
aS'the'
p2045
aS'hallway'
p2046
asI187
(lp2047
S'How'
p2048
aS'do'
p2049
aS'you'
p2050
aS'go'
p2051
aS'from'
p2052
aS'the'
p2053
aS'bathroom'
p2054
aS'to'
p2055
aS'the'
p2056
aS'office'
p2057
asI188
(lp2058
S'How'
p2059
aS'do'
p2060
aS'you'
p2061
aS'go'
p2062
aS'from'
p2063
aS'the'
p2064
aS'bathroom'
p2065
aS'to'
p2066
aS'the'
p2067
aS'garden'
p2068
asI189
(lp2069
S'How'
p2070
aS'do'
p2071
aS'you'
p2072
aS'go'
p2073
aS'from'
p2074
aS'the'
p2075
aS'bathroom'
p2076
aS'to'
p2077
aS'the'
p2078
aS'hallway'
p2079
asI190
(lp2080
S'How'
p2081
aS'do'
p2082
aS'you'
p2083
aS'go'
p2084
aS'from'
p2085
aS'the'
p2086
aS'hallway'
p2087
aS'to'
p2088
aS'the'
p2089
aS'garden'
p2090
asI191
(lp2091
S'How'
p2092
aS'do'
p2093
aS'you'
p2094
aS'go'
p2095
aS'from'
p2096
aS'the'
p2097
aS'bedroom'
p2098
aS'to'
p2099
aS'the'
p2100
aS'hallway'
p2101
asI192
(lp2102
S'How'
p2103
aS'do'
p2104
aS'you'
p2105
aS'go'
p2106
aS'from'
p2107
aS'the'
p2108
aS'kitchen'
p2109
aS'to'
p2110
aS'the'
p2111
aS'hallway'
p2112
asI193
(lp2113
S'How'
p2114
aS'do'
p2115
aS'you'
p2116
aS'go'
p2117
aS'from'
p2118
aS'the'
p2119
aS'garden'
p2120
aS'to'
p2121
aS'the'
p2122
aS'bathroom'
p2123
asI194
(lp2124
S'How'
p2125
aS'do'
p2126
aS'you'
p2127
aS'go'
p2128
aS'from'
p2129
aS'the'
p2130
aS'kitchen'
p2131
aS'to'
p2132
aS'the'
p2133
aS'office'
p2134
asI195
(lp2135
S'How'
p2136
aS'do'
p2137
aS'you'
p2138
aS'go'
p2139
aS'from'
p2140
aS'the'
p2141
aS'hallway'
p2142
aS'to'
p2143
aS'the'
p2144
aS'garden'
p2145
asI196
(lp2146
S'How'
p2147
aS'do'
p2148
aS'you'
p2149
aS'go'
p2150
aS'from'
p2151
aS'the'
p2152
aS'bedroom'
p2153
aS'to'
p2154
aS'the'
p2155
aS'kitchen'
p2156
asI197
(lp2157
S'How'
p2158
aS'do'
p2159
aS'you'
p2160
aS'go'
p2161
aS'from'
p2162
aS'the'
p2163
aS'bathroom'
p2164
aS'to'
p2165
aS'the'
p2166
aS'garden'
p2167
asI198
(lp2168
S'How'
p2169
aS'do'
p2170
aS'you'
p2171
aS'go'
p2172
aS'from'
p2173
aS'the'
p2174
aS'bathroom'
p2175
aS'to'
p2176
aS'the'
p2177
aS'kitchen'
p2178
asI199
(lp2179
S'How'
p2180
aS'do'
p2181
aS'you'
p2182
aS'go'
p2183
aS'from'
p2184
aS'the'
p2185
aS'bathroom'
p2186
aS'to'
p2187
aS'the'
p2188
aS'hallway'
p2189
asI200
(lp2190
S'How'
p2191
aS'do'
p2192
aS'you'
p2193
aS'go'
p2194
aS'from'
p2195
aS'the'
p2196
aS'garden'
p2197
aS'to'
p2198
aS'the'
p2199
aS'kitchen'
p2200
asI201
(lp2201
S'How'
p2202
aS'do'
p2203
aS'you'
p2204
aS'go'
p2205
aS'from'
p2206
aS'the'
p2207
aS'bathroom'
p2208
aS'to'
p2209
aS'the'
p2210
aS'garden'
p2211
asI202
(lp2212
S'How'
p2213
aS'do'
p2214
aS'you'
p2215
aS'go'
p2216
aS'from'
p2217
aS'the'
p2218
aS'bathroom'
p2219
aS'to'
p2220
aS'the'
p2221
aS'kitchen'
p2222
asI203
(lp2223
S'How'
p2224
aS'do'
p2225
aS'you'
p2226
aS'go'
p2227
aS'from'
p2228
aS'the'
p2229
aS'kitchen'
p2230
aS'to'
p2231
aS'the'
p2232
aS'bedroom'
p2233
asI204
(lp2234
S'How'
p2235
aS'do'
p2236
aS'you'
p2237
aS'go'
p2238
aS'from'
p2239
aS'the'
p2240
aS'hallway'
p2241
aS'to'
p2242
aS'the'
p2243
aS'office'
p2244
asI205
(lp2245
S'How'
p2246
aS'do'
p2247
aS'you'
p2248
aS'go'
p2249
aS'from'
p2250
aS'the'
p2251
aS'hallway'
p2252
aS'to'
p2253
aS'the'
p2254
aS'bedroom'
p2255
asI206
(lp2256
S'How'
p2257
aS'do'
p2258
aS'you'
p2259
aS'go'
p2260
aS'from'
p2261
aS'the'
p2262
aS'bedroom'
p2263
aS'to'
p2264
aS'the'
p2265
aS'office'
p2266
asI207
(lp2267
S'How'
p2268
aS'do'
p2269
aS'you'
p2270
aS'go'
p2271
aS'from'
p2272
aS'the'
p2273
aS'garden'
p2274
aS'to'
p2275
aS'the'
p2276
aS'office'
p2277
asI208
(lp2278
S'How'
p2279
aS'do'
p2280
aS'you'
p2281
aS'go'
p2282
aS'from'
p2283
aS'the'
p2284
aS'garden'
p2285
aS'to'
p2286
aS'the'
p2287
aS'bedroom'
p2288
asI209
(lp2289
S'How'
p2290
aS'do'
p2291
aS'you'
p2292
aS'go'
p2293
aS'from'
p2294
aS'the'
p2295
aS'bedroom'
p2296
aS'to'
p2297
aS'the'
p2298
aS'garden'
p2299
asI210
(lp2300
S'How'
p2301
aS'do'
p2302
aS'you'
p2303
aS'go'
p2304
aS'from'
p2305
aS'the'
p2306
aS'kitchen'
p2307
aS'to'
p2308
aS'the'
p2309
aS'hallway'
p2310
asI211
(lp2311
S'How'
p2312
aS'do'
p2313
aS'you'
p2314
aS'go'
p2315
aS'from'
p2316
aS'the'
p2317
aS'bathroom'
p2318
aS'to'
p2319
aS'the'
p2320
aS'hallway'
p2321
asI212
(lp2322
S'How'
p2323
aS'do'
p2324
aS'you'
p2325
aS'go'
p2326
aS'from'
p2327
aS'the'
p2328
aS'bedroom'
p2329
aS'to'
p2330
aS'the'
p2331
aS'hallway'
p2332
asI213
(lp2333
S'How'
p2334
aS'do'
p2335
aS'you'
p2336
aS'go'
p2337
aS'from'
p2338
aS'the'
p2339
aS'office'
p2340
aS'to'
p2341
aS'the'
p2342
aS'bedroom'
p2343
asI214
(lp2344
S'How'
p2345
aS'do'
p2346
aS'you'
p2347
aS'go'
p2348
aS'from'
p2349
aS'the'
p2350
aS'hallway'
p2351
aS'to'
p2352
aS'the'
p2353
aS'bathroom'
p2354
asI215
(lp2355
S'How'
p2356
aS'do'
p2357
aS'you'
p2358
aS'go'
p2359
aS'from'
p2360
aS'the'
p2361
aS'kitchen'
p2362
aS'to'
p2363
aS'the'
p2364
aS'garden'
p2365
asI216
(lp2366
S'How'
p2367
aS'do'
p2368
aS'you'
p2369
aS'go'
p2370
aS'from'
p2371
aS'the'
p2372
aS'office'
p2373
aS'to'
p2374
aS'the'
p2375
aS'bathroom'
p2376
asI217
(lp2377
S'How'
p2378
aS'do'
p2379
aS'you'
p2380
aS'go'
p2381
aS'from'
p2382
aS'the'
p2383
aS'bedroom'
p2384
aS'to'
p2385
aS'the'
p2386
aS'office'
p2387
asI218
(lp2388
S'How'
p2389
aS'do'
p2390
aS'you'
p2391
aS'go'
p2392
aS'from'
p2393
aS'the'
p2394
aS'hallway'
p2395
aS'to'
p2396
aS'the'
p2397
aS'bedroom'
p2398
asI219
(lp2399
S'How'
p2400
aS'do'
p2401
aS'you'
p2402
aS'go'
p2403
aS'from'
p2404
aS'the'
p2405
aS'kitchen'
p2406
aS'to'
p2407
aS'the'
p2408
aS'office'
p2409
asI220
(lp2410
S'How'
p2411
aS'do'
p2412
aS'you'
p2413
aS'go'
p2414
aS'from'
p2415
aS'the'
p2416
aS'hallway'
p2417
aS'to'
p2418
aS'the'
p2419
aS'garden'
p2420
asI221
(lp2421
S'How'
p2422
aS'do'
p2423
aS'you'
p2424
aS'go'
p2425
aS'from'
p2426
aS'the'
p2427
aS'kitchen'
p2428
aS'to'
p2429
aS'the'
p2430
aS'bedroom'
p2431
asI222
(lp2432
S'How'
p2433
aS'do'
p2434
aS'you'
p2435
aS'go'
p2436
aS'from'
p2437
aS'the'
p2438
aS'garden'
p2439
aS'to'
p2440
aS'the'
p2441
aS'hallway'
p2442
asI223
(lp2443
S'How'
p2444
aS'do'
p2445
aS'you'
p2446
aS'go'
p2447
aS'from'
p2448
aS'the'
p2449
aS'garden'
p2450
aS'to'
p2451
aS'the'
p2452
aS'kitchen'
p2453
asI224
(lp2454
S'How'
p2455
aS'do'
p2456
aS'you'
p2457
aS'go'
p2458
aS'from'
p2459
aS'the'
p2460
aS'office'
p2461
aS'to'
p2462
aS'the'
p2463
aS'kitchen'
p2464
asI225
(lp2465
S'How'
p2466
aS'do'
p2467
aS'you'
p2468
aS'go'
p2469
aS'from'
p2470
aS'the'
p2471
aS'hallway'
p2472
aS'to'
p2473
aS'the'
p2474
aS'bathroom'
p2475
asI226
(lp2476
S'How'
p2477
aS'do'
p2478
aS'you'
p2479
aS'go'
p2480
aS'from'
p2481
aS'the'
p2482
aS'garden'
p2483
aS'to'
p2484
aS'the'
p2485
aS'hallway'
p2486
asI227
(lp2487
S'How'
p2488
aS'do'
p2489
aS'you'
p2490
aS'go'
p2491
aS'from'
p2492
aS'the'
p2493
aS'bathroom'
p2494
aS'to'
p2495
aS'the'
p2496
aS'office'
p2497
asI228
(lp2498
S'How'
p2499
aS'do'
p2500
aS'you'
p2501
aS'go'
p2502
aS'from'
p2503
aS'the'
p2504
aS'kitchen'
p2505
aS'to'
p2506
aS'the'
p2507
aS'hallway'
p2508
asI229
(lp2509
S'How'
p2510
aS'do'
p2511
aS'you'
p2512
aS'go'
p2513
aS'from'
p2514
aS'the'
p2515
aS'garden'
p2516
aS'to'
p2517
aS'the'
p2518
aS'office'
p2519
asI230
(lp2520
S'How'
p2521
aS'do'
p2522
aS'you'
p2523
aS'go'
p2524
aS'from'
p2525
aS'the'
p2526
aS'hallway'
p2527
aS'to'
p2528
aS'the'
p2529
aS'bathroom'
p2530
asI231
(lp2531
S'How'
p2532
aS'do'
p2533
aS'you'
p2534
aS'go'
p2535
aS'from'
p2536
aS'the'
p2537
aS'bathroom'
p2538
aS'to'
p2539
aS'the'
p2540
aS'bedroom'
p2541
asI232
(lp2542
S'How'
p2543
aS'do'
p2544
aS'you'
p2545
aS'go'
p2546
aS'from'
p2547
aS'the'
p2548
aS'kitchen'
p2549
aS'to'
p2550
aS'the'
p2551
aS'hallway'
p2552
asI233
(lp2553
S'How'
p2554
aS'do'
p2555
aS'you'
p2556
aS'go'
p2557
aS'from'
p2558
aS'the'
p2559
aS'bathroom'
p2560
aS'to'
p2561
aS'the'
p2562
aS'bedroom'
p2563
asI234
(lp2564
S'How'
p2565
aS'do'
p2566
aS'you'
p2567
aS'go'
p2568
aS'from'
p2569
aS'the'
p2570
aS'kitchen'
p2571
aS'to'
p2572
aS'the'
p2573
aS'office'
p2574
asI235
(lp2575
S'How'
p2576
aS'do'
p2577
aS'you'
p2578
aS'go'
p2579
aS'from'
p2580
aS'the'
p2581
aS'hallway'
p2582
aS'to'
p2583
aS'the'
p2584
aS'kitchen'
p2585
asI236
(lp2586
S'How'
p2587
aS'do'
p2588
aS'you'
p2589
aS'go'
p2590
aS'from'
p2591
aS'the'
p2592
aS'office'
p2593
aS'to'
p2594
aS'the'
p2595
aS'hallway'
p2596
asI237
(lp2597
S'How'
p2598
aS'do'
p2599
aS'you'
p2600
aS'go'
p2601
aS'from'
p2602
aS'the'
p2603
aS'hallway'
p2604
aS'to'
p2605
aS'the'
p2606
aS'office'
p2607
asI238
(lp2608
S'How'
p2609
aS'do'
p2610
aS'you'
p2611
aS'go'
p2612
aS'from'
p2613
aS'the'
p2614
aS'office'
p2615
aS'to'
p2616
aS'the'
p2617
aS'bathroom'
p2618
asI239
(lp2619
S'How'
p2620
aS'do'
p2621
aS'you'
p2622
aS'go'
p2623
aS'from'
p2624
aS'the'
p2625
aS'bathroom'
p2626
aS'to'
p2627
aS'the'
p2628
aS'hallway'
p2629
asI240
(lp2630
S'How'
p2631
aS'do'
p2632
aS'you'
p2633
aS'go'
p2634
aS'from'
p2635
aS'the'
p2636
aS'hallway'
p2637
aS'to'
p2638
aS'the'
p2639
aS'office'
p2640
asI241
(lp2641
S'How'
p2642
aS'do'
p2643
aS'you'
p2644
aS'go'
p2645
aS'from'
p2646
aS'the'
p2647
aS'bedroom'
p2648
aS'to'
p2649
aS'the'
p2650
aS'office'
p2651
asI242
(lp2652
S'How'
p2653
aS'do'
p2654
aS'you'
p2655
aS'go'
p2656
aS'from'
p2657
aS'the'
p2658
aS'garden'
p2659
aS'to'
p2660
aS'the'
p2661
aS'office'
p2662
asI243
(lp2663
S'How'
p2664
aS'do'
p2665
aS'you'
p2666
aS'go'
p2667
aS'from'
p2668
aS'the'
p2669
aS'garden'
p2670
aS'to'
p2671
aS'the'
p2672
aS'bedroom'
p2673
asI244
(lp2674
S'How'
p2675
aS'do'
p2676
aS'you'
p2677
aS'go'
p2678
aS'from'
p2679
aS'the'
p2680
aS'bathroom'
p2681
aS'to'
p2682
aS'the'
p2683
aS'kitchen'
p2684
asI245
(lp2685
S'How'
p2686
aS'do'
p2687
aS'you'
p2688
aS'go'
p2689
aS'from'
p2690
aS'the'
p2691
aS'kitchen'
p2692
aS'to'
p2693
aS'the'
p2694
aS'hallway'
p2695
asI246
(lp2696
S'How'
p2697
aS'do'
p2698
aS'you'
p2699
aS'go'
p2700
aS'from'
p2701
aS'the'
p2702
aS'kitchen'
p2703
aS'to'
p2704
aS'the'
p2705
aS'office'
p2706
asI247
(lp2707
S'How'
p2708
aS'do'
p2709
aS'you'
p2710
aS'go'
p2711
aS'from'
p2712
aS'the'
p2713
aS'office'
p2714
aS'to'
p2715
aS'the'
p2716
aS'kitchen'
p2717
asI248
(lp2718
S'How'
p2719
aS'do'
p2720
aS'you'
p2721
aS'go'
p2722
aS'from'
p2723
aS'the'
p2724
aS'office'
p2725
aS'to'
p2726
aS'the'
p2727
aS'hallway'
p2728
asI249
(lp2729
S'How'
p2730
aS'do'
p2731
aS'you'
p2732
aS'go'
p2733
aS'from'
p2734
aS'the'
p2735
aS'garden'
p2736
aS'to'
p2737
aS'the'
p2738
aS'bathroom'
p2739
asI250
(lp2740
S'How'
p2741
aS'do'
p2742
aS'you'
p2743
aS'go'
p2744
aS'from'
p2745
aS'the'
p2746
aS'hallway'
p2747
aS'to'
p2748
aS'the'
p2749
aS'office'
p2750
asI251
(lp2751
S'How'
p2752
aS'do'
p2753
aS'you'
p2754
aS'go'
p2755
aS'from'
p2756
aS'the'
p2757
aS'kitchen'
p2758
aS'to'
p2759
aS'the'
p2760
aS'bedroom'
p2761
asI252
(lp2762
S'How'
p2763
aS'do'
p2764
aS'you'
p2765
aS'go'
p2766
aS'from'
p2767
aS'the'
p2768
aS'bedroom'
p2769
aS'to'
p2770
aS'the'
p2771
aS'office'
p2772
asI253
(lp2773
S'How'
p2774
aS'do'
p2775
aS'you'
p2776
aS'go'
p2777
aS'from'
p2778
aS'the'
p2779
aS'kitchen'
p2780
aS'to'
p2781
aS'the'
p2782
aS'bathroom'
p2783
asI254
(lp2784
S'How'
p2785
aS'do'
p2786
aS'you'
p2787
aS'go'
p2788
aS'from'
p2789
aS'the'
p2790
aS'kitchen'
p2791
aS'to'
p2792
aS'the'
p2793
aS'office'
p2794
asI255
(lp2795
S'How'
p2796
aS'do'
p2797
aS'you'
p2798
aS'go'
p2799
aS'from'
p2800
aS'the'
p2801
aS'office'
p2802
aS'to'
p2803
aS'the'
p2804
aS'bathroom'
p2805
asI256
(lp2806
S'How'
p2807
aS'do'
p2808
aS'you'
p2809
aS'go'
p2810
aS'from'
p2811
aS'the'
p2812
aS'kitchen'
p2813
aS'to'
p2814
aS'the'
p2815
aS'bathroom'
p2816
asI257
(lp2817
S'How'
p2818
aS'do'
p2819
aS'you'
p2820
aS'go'
p2821
aS'from'
p2822
aS'the'
p2823
aS'office'
p2824
aS'to'
p2825
aS'the'
p2826
aS'kitchen'
p2827
asI258
(lp2828
S'How'
p2829
aS'do'
p2830
aS'you'
p2831
aS'go'
p2832
aS'from'
p2833
aS'the'
p2834
aS'garden'
p2835
aS'to'
p2836
aS'the'
p2837
aS'bathroom'
p2838
asI259
(lp2839
S'How'
p2840
aS'do'
p2841
aS'you'
p2842
aS'go'
p2843
aS'from'
p2844
aS'the'
p2845
aS'kitchen'
p2846
aS'to'
p2847
aS'the'
p2848
aS'bedroom'
p2849
asI260
(lp2850
S'How'
p2851
aS'do'
p2852
aS'you'
p2853
aS'go'
p2854
aS'from'
p2855
aS'the'
p2856
aS'garden'
p2857
aS'to'
p2858
aS'the'
p2859
aS'kitchen'
p2860
asI261
(lp2861
S'How'
p2862
aS'do'
p2863
aS'you'
p2864
aS'go'
p2865
aS'from'
p2866
aS'the'
p2867
aS'bedroom'
p2868
aS'to'
p2869
aS'the'
p2870
aS'bathroom'
p2871
asI262
(lp2872
S'How'
p2873
aS'do'
p2874
aS'you'
p2875
aS'go'
p2876
aS'from'
p2877
aS'the'
p2878
aS'office'
p2879
aS'to'
p2880
aS'the'
p2881
aS'hallway'
p2882
asI263
(lp2883
S'How'
p2884
aS'do'
p2885
aS'you'
p2886
aS'go'
p2887
aS'from'
p2888
aS'the'
p2889
aS'hallway'
p2890
aS'to'
p2891
aS'the'
p2892
aS'garden'
p2893
asI264
(lp2894
S'How'
p2895
aS'do'
p2896
aS'you'
p2897
aS'go'
p2898
aS'from'
p2899
aS'the'
p2900
aS'kitchen'
p2901
aS'to'
p2902
aS'the'
p2903
aS'office'
p2904
asI265
(lp2905
S'How'
p2906
aS'do'
p2907
aS'you'
p2908
aS'go'
p2909
aS'from'
p2910
aS'the'
p2911
aS'office'
p2912
aS'to'
p2913
aS'the'
p2914
aS'bedroom'
p2915
asI266
(lp2916
S'How'
p2917
aS'do'
p2918
aS'you'
p2919
aS'go'
p2920
aS'from'
p2921
aS'the'
p2922
aS'hallway'
p2923
aS'to'
p2924
aS'the'
p2925
aS'bedroom'
p2926
asI267
(lp2927
S'How'
p2928
aS'do'
p2929
aS'you'
p2930
aS'go'
p2931
aS'from'
p2932
aS'the'
p2933
aS'office'
p2934
aS'to'
p2935
aS'the'
p2936
aS'bathroom'
p2937
asI268
(lp2938
S'How'
p2939
aS'do'
p2940
aS'you'
p2941
aS'go'
p2942
aS'from'
p2943
aS'the'
p2944
aS'office'
p2945
aS'to'
p2946
aS'the'
p2947
aS'bedroom'
p2948
asI269
(lp2949
S'How'
p2950
aS'do'
p2951
aS'you'
p2952
aS'go'
p2953
aS'from'
p2954
aS'the'
p2955
aS'kitchen'
p2956
aS'to'
p2957
aS'the'
p2958
aS'bathroom'
p2959
asI270
(lp2960
S'How'
p2961
aS'do'
p2962
aS'you'
p2963
aS'go'
p2964
aS'from'
p2965
aS'the'
p2966
aS'office'
p2967
aS'to'
p2968
aS'the'
p2969
aS'kitchen'
p2970
asI271
(lp2971
S'How'
p2972
aS'do'
p2973
aS'you'
p2974
aS'go'
p2975
aS'from'
p2976
aS'the'
p2977
aS'hallway'
p2978
aS'to'
p2979
aS'the'
p2980
aS'bathroom'
p2981
asI272
(lp2982
S'How'
p2983
aS'do'
p2984
aS'you'
p2985
aS'go'
p2986
aS'from'
p2987
aS'the'
p2988
aS'office'
p2989
aS'to'
p2990
aS'the'
p2991
aS'bathroom'
p2992
asI273
(lp2993
S'How'
p2994
aS'do'
p2995
aS'you'
p2996
aS'go'
p2997
aS'from'
p2998
aS'the'
p2999
aS'office'
p3000
aS'to'
p3001
aS'the'
p3002
aS'kitchen'
p3003
asI274
(lp3004
S'How'
p3005
aS'do'
p3006
aS'you'
p3007
aS'go'
p3008
aS'from'
p3009
aS'the'
p3010
aS'bedroom'
p3011
aS'to'
p3012
aS'the'
p3013
aS'kitchen'
p3014
asI275
(lp3015
S'How'
p3016
aS'do'
p3017
aS'you'
p3018
aS'go'
p3019
aS'from'
p3020
aS'the'
p3021
aS'hallway'
p3022
aS'to'
p3023
aS'the'
p3024
aS'bedroom'
p3025
asI276
(lp3026
S'How'
p3027
aS'do'
p3028
aS'you'
p3029
aS'go'
p3030
aS'from'
p3031
aS'the'
p3032
aS'garden'
p3033
aS'to'
p3034
aS'the'
p3035
aS'kitchen'
p3036
asI277
(lp3037
S'How'
p3038
aS'do'
p3039
aS'you'
p3040
aS'go'
p3041
aS'from'
p3042
aS'the'
p3043
aS'garden'
p3044
aS'to'
p3045
aS'the'
p3046
aS'bathroom'
p3047
asI278
(lp3048
S'How'
p3049
aS'do'
p3050
aS'you'
p3051
aS'go'
p3052
aS'from'
p3053
aS'the'
p3054
aS'bedroom'
p3055
aS'to'
p3056
aS'the'
p3057
aS'kitchen'
p3058
asI279
(lp3059
S'How'
p3060
aS'do'
p3061
aS'you'
p3062
aS'go'
p3063
aS'from'
p3064
aS'the'
p3065
aS'garden'
p3066
aS'to'
p3067
aS'the'
p3068
aS'office'
p3069
asI280
(lp3070
S'How'
p3071
aS'do'
p3072
aS'you'
p3073
aS'go'
p3074
aS'from'
p3075
aS'the'
p3076
aS'hallway'
p3077
aS'to'
p3078
aS'the'
p3079
aS'bathroom'
p3080
asI281
(lp3081
S'How'
p3082
aS'do'
p3083
aS'you'
p3084
aS'go'
p3085
aS'from'
p3086
aS'the'
p3087
aS'bedroom'
p3088
aS'to'
p3089
aS'the'
p3090
aS'kitchen'
p3091
asI282
(lp3092
S'How'
p3093
aS'do'
p3094
aS'you'
p3095
aS'go'
p3096
aS'from'
p3097
aS'the'
p3098
aS'kitchen'
p3099
aS'to'
p3100
aS'the'
p3101
aS'bathroom'
p3102
asI283
(lp3103
S'How'
p3104
aS'do'
p3105
aS'you'
p3106
aS'go'
p3107
aS'from'
p3108
aS'the'
p3109
aS'bathroom'
p3110
aS'to'
p3111
aS'the'
p3112
aS'office'
p3113
asI284
(lp3114
S'How'
p3115
aS'do'
p3116
aS'you'
p3117
aS'go'
p3118
aS'from'
p3119
aS'the'
p3120
aS'office'
p3121
aS'to'
p3122
aS'the'
p3123
aS'kitchen'
p3124
asI285
(lp3125
S'How'
p3126
aS'do'
p3127
aS'you'
p3128
aS'go'
p3129
aS'from'
p3130
aS'the'
p3131
aS'office'
p3132
aS'to'
p3133
aS'the'
p3134
aS'bathroom'
p3135
asI286
(lp3136
S'How'
p3137
aS'do'
p3138
aS'you'
p3139
aS'go'
p3140
aS'from'
p3141
aS'the'
p3142
aS'garden'
p3143
aS'to'
p3144
aS'the'
p3145
aS'hallway'
p3146
asI287
(lp3147
S'How'
p3148
aS'do'
p3149
aS'you'
p3150
aS'go'
p3151
aS'from'
p3152
aS'the'
p3153
aS'bedroom'
p3154
aS'to'
p3155
aS'the'
p3156
aS'garden'
p3157
asI288
(lp3158
S'How'
p3159
aS'do'
p3160
aS'you'
p3161
aS'go'
p3162
aS'from'
p3163
aS'the'
p3164
aS'bathroom'
p3165
aS'to'
p3166
aS'the'
p3167
aS'office'
p3168
asI289
(lp3169
S'How'
p3170
aS'do'
p3171
aS'you'
p3172
aS'go'
p3173
aS'from'
p3174
aS'the'
p3175
aS'kitchen'
p3176
aS'to'
p3177
aS'the'
p3178
aS'garden'
p3179
asI290
(lp3180
S'How'
p3181
aS'do'
p3182
aS'you'
p3183
aS'go'
p3184
aS'from'
p3185
aS'the'
p3186
aS'garden'
p3187
aS'to'
p3188
aS'the'
p3189
aS'bedroom'
p3190
asI291
(lp3191
S'How'
p3192
aS'do'
p3193
aS'you'
p3194
aS'go'
p3195
aS'from'
p3196
aS'the'
p3197
aS'hallway'
p3198
aS'to'
p3199
aS'the'
p3200
aS'bathroom'
p3201
asI292
(lp3202
S'How'
p3203
aS'do'
p3204
aS'you'
p3205
aS'go'
p3206
aS'from'
p3207
aS'the'
p3208
aS'bathroom'
p3209
aS'to'
p3210
aS'the'
p3211
aS'office'
p3212
asI293
(lp3213
S'How'
p3214
aS'do'
p3215
aS'you'
p3216
aS'go'
p3217
aS'from'
p3218
aS'the'
p3219
aS'hallway'
p3220
aS'to'
p3221
aS'the'
p3222
aS'garden'
p3223
asI294
(lp3224
S'How'
p3225
aS'do'
p3226
aS'you'
p3227
aS'go'
p3228
aS'from'
p3229
aS'the'
p3230
aS'office'
p3231
aS'to'
p3232
aS'the'
p3233
aS'kitchen'
p3234
asI295
(lp3235
S'How'
p3236
aS'do'
p3237
aS'you'
p3238
aS'go'
p3239
aS'from'
p3240
aS'the'
p3241
aS'hallway'
p3242
aS'to'
p3243
aS'the'
p3244
aS'office'
p3245
asI296
(lp3246
S'How'
p3247
aS'do'
p3248
aS'you'
p3249
aS'go'
p3250
aS'from'
p3251
aS'the'
p3252
aS'bedroom'
p3253
aS'to'
p3254
aS'the'
p3255
aS'garden'
p3256
asI297
(lp3257
S'How'
p3258
aS'do'
p3259
aS'you'
p3260
aS'go'
p3261
aS'from'
p3262
aS'the'
p3263
aS'hallway'
p3264
aS'to'
p3265
aS'the'
p3266
aS'bathroom'
p3267
asI298
(lp3268
S'How'
p3269
aS'do'
p3270
aS'you'
p3271
aS'go'
p3272
aS'from'
p3273
aS'the'
p3274
aS'garden'
p3275
aS'to'
p3276
aS'the'
p3277
aS'office'
p3278
asI299
(lp3279
S'How'
p3280
aS'do'
p3281
aS'you'
p3282
aS'go'
p3283
aS'from'
p3284
aS'the'
p3285
aS'bathroom'
p3286
aS'to'
p3287
aS'the'
p3288
aS'office'
p3289
asI300
(lp3290
S'How'
p3291
aS'do'
p3292
aS'you'
p3293
aS'go'
p3294
aS'from'
p3295
aS'the'
p3296
aS'kitchen'
p3297
aS'to'
p3298
aS'the'
p3299
aS'garden'
p3300
asI301
(lp3301
S'How'
p3302
aS'do'
p3303
aS'you'
p3304
aS'go'
p3305
aS'from'
p3306
aS'the'
p3307
aS'bathroom'
p3308
aS'to'
p3309
aS'the'
p3310
aS'kitchen'
p3311
asI302
(lp3312
S'How'
p3313
aS'do'
p3314
aS'you'
p3315
aS'go'
p3316
aS'from'
p3317
aS'the'
p3318
aS'bathroom'
p3319
aS'to'
p3320
aS'the'
p3321
aS'bedroom'
p3322
asI303
(lp3323
S'How'
p3324
aS'do'
p3325
aS'you'
p3326
aS'go'
p3327
aS'from'
p3328
aS'the'
p3329
aS'garden'
p3330
aS'to'
p3331
aS'the'
p3332
aS'bedroom'
p3333
asI304
(lp3334
S'How'
p3335
aS'do'
p3336
aS'you'
p3337
aS'go'
p3338
aS'from'
p3339
aS'the'
p3340
aS'garden'
p3341
aS'to'
p3342
aS'the'
p3343
aS'kitchen'
p3344
asI305
(lp3345
S'How'
p3346
aS'do'
p3347
aS'you'
p3348
aS'go'
p3349
aS'from'
p3350
aS'the'
p3351
aS'garden'
p3352
aS'to'
p3353
aS'the'
p3354
aS'bathroom'
p3355
asI306
(lp3356
S'How'
p3357
aS'do'
p3358
aS'you'
p3359
aS'go'
p3360
aS'from'
p3361
aS'the'
p3362
aS'bedroom'
p3363
aS'to'
p3364
aS'the'
p3365
aS'hallway'
p3366
asI307
(lp3367
S'How'
p3368
aS'do'
p3369
aS'you'
p3370
aS'go'
p3371
aS'from'
p3372
aS'the'
p3373
aS'kitchen'
p3374
aS'to'
p3375
aS'the'
p3376
aS'garden'
p3377
asI308
(lp3378
S'How'
p3379
aS'do'
p3380
aS'you'
p3381
aS'go'
p3382
aS'from'
p3383
aS'the'
p3384
aS'bedroom'
p3385
aS'to'
p3386
aS'the'
p3387
aS'kitchen'
p3388
asI309
(lp3389
S'How'
p3390
aS'do'
p3391
aS'you'
p3392
aS'go'
p3393
aS'from'
p3394
aS'the'
p3395
aS'office'
p3396
aS'to'
p3397
aS'the'
p3398
aS'kitchen'
p3399
asI310
(lp3400
S'How'
p3401
aS'do'
p3402
aS'you'
p3403
aS'go'
p3404
aS'from'
p3405
aS'the'
p3406
aS'garden'
p3407
aS'to'
p3408
aS'the'
p3409
aS'bathroom'
p3410
asI311
(lp3411
S'How'
p3412
aS'do'
p3413
aS'you'
p3414
aS'go'
p3415
aS'from'
p3416
aS'the'
p3417
aS'office'
p3418
aS'to'
p3419
aS'the'
p3420
aS'bathroom'
p3421
asI312
(lp3422
S'How'
p3423
aS'do'
p3424
aS'you'
p3425
aS'go'
p3426
aS'from'
p3427
aS'the'
p3428
aS'garden'
p3429
aS'to'
p3430
aS'the'
p3431
aS'kitchen'
p3432
asI313
(lp3433
S'How'
p3434
aS'do'
p3435
aS'you'
p3436
aS'go'
p3437
aS'from'
p3438
aS'the'
p3439
aS'bathroom'
p3440
aS'to'
p3441
aS'the'
p3442
aS'kitchen'
p3443
asI314
(lp3444
S'How'
p3445
aS'do'
p3446
aS'you'
p3447
aS'go'
p3448
aS'from'
p3449
aS'the'
p3450
aS'bedroom'
p3451
aS'to'
p3452
aS'the'
p3453
aS'hallway'
p3454
asI315
(lp3455
S'How'
p3456
aS'do'
p3457
aS'you'
p3458
aS'go'
p3459
aS'from'
p3460
aS'the'
p3461
aS'kitchen'
p3462
aS'to'
p3463
aS'the'
p3464
aS'bedroom'
p3465
asI316
(lp3466
S'How'
p3467
aS'do'
p3468
aS'you'
p3469
aS'go'
p3470
aS'from'
p3471
aS'the'
p3472
aS'hallway'
p3473
aS'to'
p3474
aS'the'
p3475
aS'garden'
p3476
asI317
(lp3477
S'How'
p3478
aS'do'
p3479
aS'you'
p3480
aS'go'
p3481
aS'from'
p3482
aS'the'
p3483
aS'office'
p3484
aS'to'
p3485
aS'the'
p3486
aS'garden'
p3487
asI318
(lp3488
S'How'
p3489
aS'do'
p3490
aS'you'
p3491
aS'go'
p3492
aS'from'
p3493
aS'the'
p3494
aS'bedroom'
p3495
aS'to'
p3496
aS'the'
p3497
aS'bathroom'
p3498
asI319
(lp3499
S'How'
p3500
aS'do'
p3501
aS'you'
p3502
aS'go'
p3503
aS'from'
p3504
aS'the'
p3505
aS'hallway'
p3506
aS'to'
p3507
aS'the'
p3508
aS'office'
p3509
asI320
(lp3510
S'How'
p3511
aS'do'
p3512
aS'you'
p3513
aS'go'
p3514
aS'from'
p3515
aS'the'
p3516
aS'bathroom'
p3517
aS'to'
p3518
aS'the'
p3519
aS'office'
p3520
asI321
(lp3521
S'How'
p3522
aS'do'
p3523
aS'you'
p3524
aS'go'
p3525
aS'from'
p3526
aS'the'
p3527
aS'kitchen'
p3528
aS'to'
p3529
aS'the'
p3530
aS'office'
p3531
asI322
(lp3532
S'How'
p3533
aS'do'
p3534
aS'you'
p3535
aS'go'
p3536
aS'from'
p3537
aS'the'
p3538
aS'garden'
p3539
aS'to'
p3540
aS'the'
p3541
aS'kitchen'
p3542
asI323
(lp3543
S'How'
p3544
aS'do'
p3545
aS'you'
p3546
aS'go'
p3547
aS'from'
p3548
aS'the'
p3549
aS'hallway'
p3550
aS'to'
p3551
aS'the'
p3552
aS'bedroom'
p3553
asI324
(lp3554
S'How'
p3555
aS'do'
p3556
aS'you'
p3557
aS'go'
p3558
aS'from'
p3559
aS'the'
p3560
aS'garden'
p3561
aS'to'
p3562
aS'the'
p3563
aS'hallway'
p3564
asI325
(lp3565
S'How'
p3566
aS'do'
p3567
aS'you'
p3568
aS'go'
p3569
aS'from'
p3570
aS'the'
p3571
aS'bathroom'
p3572
aS'to'
p3573
aS'the'
p3574
aS'kitchen'
p3575
asI326
(lp3576
S'How'
p3577
aS'do'
p3578
aS'you'
p3579
aS'go'
p3580
aS'from'
p3581
aS'the'
p3582
aS'kitchen'
p3583
aS'to'
p3584
aS'the'
p3585
aS'bathroom'
p3586
asI327
(lp3587
S'How'
p3588
aS'do'
p3589
aS'you'
p3590
aS'go'
p3591
aS'from'
p3592
aS'the'
p3593
aS'hallway'
p3594
aS'to'
p3595
aS'the'
p3596
aS'garden'
p3597
asI328
(lp3598
S'How'
p3599
aS'do'
p3600
aS'you'
p3601
aS'go'
p3602
aS'from'
p3603
aS'the'
p3604
aS'hallway'
p3605
aS'to'
p3606
aS'the'
p3607
aS'bathroom'
p3608
asI329
(lp3609
S'How'
p3610
aS'do'
p3611
aS'you'
p3612
aS'go'
p3613
aS'from'
p3614
aS'the'
p3615
aS'garden'
p3616
aS'to'
p3617
aS'the'
p3618
aS'hallway'
p3619
asI330
(lp3620
S'How'
p3621
aS'do'
p3622
aS'you'
p3623
aS'go'
p3624
aS'from'
p3625
aS'the'
p3626
aS'hallway'
p3627
aS'to'
p3628
aS'the'
p3629
aS'bedroom'
p3630
asI331
(lp3631
S'How'
p3632
aS'do'
p3633
aS'you'
p3634
aS'go'
p3635
aS'from'
p3636
aS'the'
p3637
aS'kitchen'
p3638
aS'to'
p3639
aS'the'
p3640
aS'garden'
p3641
asI332
(lp3642
S'How'
p3643
aS'do'
p3644
aS'you'
p3645
aS'go'
p3646
aS'from'
p3647
aS'the'
p3648
aS'office'
p3649
aS'to'
p3650
aS'the'
p3651
aS'bathroom'
p3652
asI333
(lp3653
S'How'
p3654
aS'do'
p3655
aS'you'
p3656
aS'go'
p3657
aS'from'
p3658
aS'the'
p3659
aS'hallway'
p3660
aS'to'
p3661
aS'the'
p3662
aS'office'
p3663
asI334
(lp3664
S'How'
p3665
aS'do'
p3666
aS'you'
p3667
aS'go'
p3668
aS'from'
p3669
aS'the'
p3670
aS'hallway'
p3671
aS'to'
p3672
aS'the'
p3673
aS'bathroom'
p3674
asI335
(lp3675
S'How'
p3676
aS'do'
p3677
aS'you'
p3678
aS'go'
p3679
aS'from'
p3680
aS'the'
p3681
aS'kitchen'
p3682
aS'to'
p3683
aS'the'
p3684
aS'hallway'
p3685
asI336
(lp3686
S'How'
p3687
aS'do'
p3688
aS'you'
p3689
aS'go'
p3690
aS'from'
p3691
aS'the'
p3692
aS'garden'
p3693
aS'to'
p3694
aS'the'
p3695
aS'bathroom'
p3696
asI337
(lp3697
S'How'
p3698
aS'do'
p3699
aS'you'
p3700
aS'go'
p3701
aS'from'
p3702
aS'the'
p3703
aS'garden'
p3704
aS'to'
p3705
aS'the'
p3706
aS'office'
p3707
asI338
(lp3708
S'How'
p3709
aS'do'
p3710
aS'you'
p3711
aS'go'
p3712
aS'from'
p3713
aS'the'
p3714
aS'hallway'
p3715
aS'to'
p3716
aS'the'
p3717
aS'bathroom'
p3718
asI339
(lp3719
S'How'
p3720
aS'do'
p3721
aS'you'
p3722
aS'go'
p3723
aS'from'
p3724
aS'the'
p3725
aS'bathroom'
p3726
aS'to'
p3727
aS'the'
p3728
aS'bedroom'
p3729
asI340
(lp3730
S'How'
p3731
aS'do'
p3732
aS'you'
p3733
aS'go'
p3734
aS'from'
p3735
aS'the'
p3736
aS'office'
p3737
aS'to'
p3738
aS'the'
p3739
aS'kitchen'
p3740
asI341
(lp3741
S'How'
p3742
aS'do'
p3743
aS'you'
p3744
aS'go'
p3745
aS'from'
p3746
aS'the'
p3747
aS'garden'
p3748
aS'to'
p3749
aS'the'
p3750
aS'bathroom'
p3751
asI342
(lp3752
S'How'
p3753
aS'do'
p3754
aS'you'
p3755
aS'go'
p3756
aS'from'
p3757
aS'the'
p3758
aS'hallway'
p3759
aS'to'
p3760
aS'the'
p3761
aS'bathroom'
p3762
asI343
(lp3763
S'How'
p3764
aS'do'
p3765
aS'you'
p3766
aS'go'
p3767
aS'from'
p3768
aS'the'
p3769
aS'bedroom'
p3770
aS'to'
p3771
aS'the'
p3772
aS'office'
p3773
asI344
(lp3774
S'How'
p3775
aS'do'
p3776
aS'you'
p3777
aS'go'
p3778
aS'from'
p3779
aS'the'
p3780
aS'bathroom'
p3781
aS'to'
p3782
aS'the'
p3783
aS'office'
p3784
asI345
(lp3785
S'How'
p3786
aS'do'
p3787
aS'you'
p3788
aS'go'
p3789
aS'from'
p3790
aS'the'
p3791
aS'bedroom'
p3792
aS'to'
p3793
aS'the'
p3794
aS'garden'
p3795
asI346
(lp3796
S'How'
p3797
aS'do'
p3798
aS'you'
p3799
aS'go'
p3800
aS'from'
p3801
aS'the'
p3802
aS'garden'
p3803
aS'to'
p3804
aS'the'
p3805
aS'bathroom'
p3806
asI347
(lp3807
S'How'
p3808
aS'do'
p3809
aS'you'
p3810
aS'go'
p3811
aS'from'
p3812
aS'the'
p3813
aS'bathroom'
p3814
aS'to'
p3815
aS'the'
p3816
aS'kitchen'
p3817
asI348
(lp3818
S'How'
p3819
aS'do'
p3820
aS'you'
p3821
aS'go'
p3822
aS'from'
p3823
aS'the'
p3824
aS'bathroom'
p3825
aS'to'
p3826
aS'the'
p3827
aS'garden'
p3828
asI349
(lp3829
S'How'
p3830
aS'do'
p3831
aS'you'
p3832
aS'go'
p3833
aS'from'
p3834
aS'the'
p3835
aS'kitchen'
p3836
aS'to'
p3837
aS'the'
p3838
aS'bathroom'
p3839
asI350
(lp3840
S'How'
p3841
aS'do'
p3842
aS'you'
p3843
aS'go'
p3844
aS'from'
p3845
aS'the'
p3846
aS'garden'
p3847
aS'to'
p3848
aS'the'
p3849
aS'kitchen'
p3850
asI351
(lp3851
S'How'
p3852
aS'do'
p3853
aS'you'
p3854
aS'go'
p3855
aS'from'
p3856
aS'the'
p3857
aS'kitchen'
p3858
aS'to'
p3859
aS'the'
p3860
aS'hallway'
p3861
asI352
(lp3862
S'How'
p3863
aS'do'
p3864
aS'you'
p3865
aS'go'
p3866
aS'from'
p3867
aS'the'
p3868
aS'bathroom'
p3869
aS'to'
p3870
aS'the'
p3871
aS'garden'
p3872
asI353
(lp3873
S'How'
p3874
aS'do'
p3875
aS'you'
p3876
aS'go'
p3877
aS'from'
p3878
aS'the'
p3879
aS'kitchen'
p3880
aS'to'
p3881
aS'the'
p3882
aS'hallway'
p3883
asI354
(lp3884
S'How'
p3885
aS'do'
p3886
aS'you'
p3887
aS'go'
p3888
aS'from'
p3889
aS'the'
p3890
aS'garden'
p3891
aS'to'
p3892
aS'the'
p3893
aS'bathroom'
p3894
asI355
(lp3895
S'How'
p3896
aS'do'
p3897
aS'you'
p3898
aS'go'
p3899
aS'from'
p3900
aS'the'
p3901
aS'office'
p3902
aS'to'
p3903
aS'the'
p3904
aS'hallway'
p3905
asI356
(lp3906
S'How'
p3907
aS'do'
p3908
aS'you'
p3909
aS'go'
p3910
aS'from'
p3911
aS'the'
p3912
aS'office'
p3913
aS'to'
p3914
aS'the'
p3915
aS'bathroom'
p3916
asI357
(lp3917
S'How'
p3918
aS'do'
p3919
aS'you'
p3920
aS'go'
p3921
aS'from'
p3922
aS'the'
p3923
aS'hallway'
p3924
aS'to'
p3925
aS'the'
p3926
aS'office'
p3927
asI358
(lp3928
S'How'
p3929
aS'do'
p3930
aS'you'
p3931
aS'go'
p3932
aS'from'
p3933
aS'the'
p3934
aS'bedroom'
p3935
aS'to'
p3936
aS'the'
p3937
aS'bathroom'
p3938
asI359
(lp3939
S'How'
p3940
aS'do'
p3941
aS'you'
p3942
aS'go'
p3943
aS'from'
p3944
aS'the'
p3945
aS'bedroom'
p3946
aS'to'
p3947
aS'the'
p3948
aS'kitchen'
p3949
asI360
(lp3950
S'How'
p3951
aS'do'
p3952
aS'you'
p3953
aS'go'
p3954
aS'from'
p3955
aS'the'
p3956
aS'hallway'
p3957
aS'to'
p3958
aS'the'
p3959
aS'office'
p3960
asI361
(lp3961
S'How'
p3962
aS'do'
p3963
aS'you'
p3964
aS'go'
p3965
aS'from'
p3966
aS'the'
p3967
aS'bathroom'
p3968
aS'to'
p3969
aS'the'
p3970
aS'hallway'
p3971
asI362
(lp3972
S'How'
p3973
aS'do'
p3974
aS'you'
p3975
aS'go'
p3976
aS'from'
p3977
aS'the'
p3978
aS'kitchen'
p3979
aS'to'
p3980
aS'the'
p3981
aS'bedroom'
p3982
asI363
(lp3983
S'How'
p3984
aS'do'
p3985
aS'you'
p3986
aS'go'
p3987
aS'from'
p3988
aS'the'
p3989
aS'garden'
p3990
aS'to'
p3991
aS'the'
p3992
aS'bedroom'
p3993
asI364
(lp3994
S'How'
p3995
aS'do'
p3996
aS'you'
p3997
aS'go'
p3998
aS'from'
p3999
aS'the'
p4000
aS'office'
p4001
aS'to'
p4002
aS'the'
p4003
aS'kitchen'
p4004
asI365
(lp4005
S'How'
p4006
aS'do'
p4007
aS'you'
p4008
aS'go'
p4009
aS'from'
p4010
aS'the'
p4011
aS'bedroom'
p4012
aS'to'
p4013
aS'the'
p4014
aS'kitchen'
p4015
asI366
(lp4016
S'How'
p4017
aS'do'
p4018
aS'you'
p4019
aS'go'
p4020
aS'from'
p4021
aS'the'
p4022
aS'garden'
p4023
aS'to'
p4024
aS'the'
p4025
aS'kitchen'
p4026
asI367
(lp4027
S'How'
p4028
aS'do'
p4029
aS'you'
p4030
aS'go'
p4031
aS'from'
p4032
aS'the'
p4033
aS'kitchen'
p4034
aS'to'
p4035
aS'the'
p4036
aS'bedroom'
p4037
asI368
(lp4038
S'How'
p4039
aS'do'
p4040
aS'you'
p4041
aS'go'
p4042
aS'from'
p4043
aS'the'
p4044
aS'bathroom'
p4045
aS'to'
p4046
aS'the'
p4047
aS'bedroom'
p4048
asI369
(lp4049
S'How'
p4050
aS'do'
p4051
aS'you'
p4052
aS'go'
p4053
aS'from'
p4054
aS'the'
p4055
aS'office'
p4056
aS'to'
p4057
aS'the'
p4058
aS'bedroom'
p4059
asI370
(lp4060
S'How'
p4061
aS'do'
p4062
aS'you'
p4063
aS'go'
p4064
aS'from'
p4065
aS'the'
p4066
aS'bathroom'
p4067
aS'to'
p4068
aS'the'
p4069
aS'office'
p4070
asI371
(lp4071
S'How'
p4072
aS'do'
p4073
aS'you'
p4074
aS'go'
p4075
aS'from'
p4076
aS'the'
p4077
aS'kitchen'
p4078
aS'to'
p4079
aS'the'
p4080
aS'bedroom'
p4081
asI372
(lp4082
S'How'
p4083
aS'do'
p4084
aS'you'
p4085
aS'go'
p4086
aS'from'
p4087
aS'the'
p4088
aS'garden'
p4089
aS'to'
p4090
aS'the'
p4091
aS'office'
p4092
asI373
(lp4093
S'How'
p4094
aS'do'
p4095
aS'you'
p4096
aS'go'
p4097
aS'from'
p4098
aS'the'
p4099
aS'office'
p4100
aS'to'
p4101
aS'the'
p4102
aS'bedroom'
p4103
asI374
(lp4104
S'How'
p4105
aS'do'
p4106
aS'you'
p4107
aS'go'
p4108
aS'from'
p4109
aS'the'
p4110
aS'hallway'
p4111
aS'to'
p4112
aS'the'
p4113
aS'office'
p4114
asI375
(lp4115
S'How'
p4116
aS'do'
p4117
aS'you'
p4118
aS'go'
p4119
aS'from'
p4120
aS'the'
p4121
aS'bedroom'
p4122
aS'to'
p4123
aS'the'
p4124
aS'bathroom'
p4125
asI376
(lp4126
S'How'
p4127
aS'do'
p4128
aS'you'
p4129
aS'go'
p4130
aS'from'
p4131
aS'the'
p4132
aS'bedroom'
p4133
aS'to'
p4134
aS'the'
p4135
aS'office'
p4136
asI377
(lp4137
S'How'
p4138
aS'do'
p4139
aS'you'
p4140
aS'go'
p4141
aS'from'
p4142
aS'the'
p4143
aS'hallway'
p4144
aS'to'
p4145
aS'the'
p4146
aS'bathroom'
p4147
asI378
(lp4148
S'How'
p4149
aS'do'
p4150
aS'you'
p4151
aS'go'
p4152
aS'from'
p4153
aS'the'
p4154
aS'office'
p4155
aS'to'
p4156
aS'the'
p4157
aS'kitchen'
p4158
asI379
(lp4159
S'How'
p4160
aS'do'
p4161
aS'you'
p4162
aS'go'
p4163
aS'from'
p4164
aS'the'
p4165
aS'garden'
p4166
aS'to'
p4167
aS'the'
p4168
aS'bathroom'
p4169
asI380
(lp4170
S'How'
p4171
aS'do'
p4172
aS'you'
p4173
aS'go'
p4174
aS'from'
p4175
aS'the'
p4176
aS'bathroom'
p4177
aS'to'
p4178
aS'the'
p4179
aS'kitchen'
p4180
asI381
(lp4181
S'How'
p4182
aS'do'
p4183
aS'you'
p4184
aS'go'
p4185
aS'from'
p4186
aS'the'
p4187
aS'kitchen'
p4188
aS'to'
p4189
aS'the'
p4190
aS'bathroom'
p4191
asI382
(lp4192
S'How'
p4193
aS'do'
p4194
aS'you'
p4195
aS'go'
p4196
aS'from'
p4197
aS'the'
p4198
aS'garden'
p4199
aS'to'
p4200
aS'the'
p4201
aS'hallway'
p4202
asI383
(lp4203
S'How'
p4204
aS'do'
p4205
aS'you'
p4206
aS'go'
p4207
aS'from'
p4208
aS'the'
p4209
aS'garden'
p4210
aS'to'
p4211
aS'the'
p4212
aS'hallway'
p4213
asI384
(lp4214
S'How'
p4215
aS'do'
p4216
aS'you'
p4217
aS'go'
p4218
aS'from'
p4219
aS'the'
p4220
aS'bedroom'
p4221
aS'to'
p4222
aS'the'
p4223
aS'garden'
p4224
asI385
(lp4225
S'How'
p4226
aS'do'
p4227
aS'you'
p4228
aS'go'
p4229
aS'from'
p4230
aS'the'
p4231
aS'bathroom'
p4232
aS'to'
p4233
aS'the'
p4234
aS'kitchen'
p4235
asI386
(lp4236
S'How'
p4237
aS'do'
p4238
aS'you'
p4239
aS'go'
p4240
aS'from'
p4241
aS'the'
p4242
aS'hallway'
p4243
aS'to'
p4244
aS'the'
p4245
aS'garden'
p4246
asI387
(lp4247
S'How'
p4248
aS'do'
p4249
aS'you'
p4250
aS'go'
p4251
aS'from'
p4252
aS'the'
p4253
aS'bathroom'
p4254
aS'to'
p4255
aS'the'
p4256
aS'hallway'
p4257
asI388
(lp4258
S'How'
p4259
aS'do'
p4260
aS'you'
p4261
aS'go'
p4262
aS'from'
p4263
aS'the'
p4264
aS'garden'
p4265
aS'to'
p4266
aS'the'
p4267
aS'bedroom'
p4268
asI389
(lp4269
S'How'
p4270
aS'do'
p4271
aS'you'
p4272
aS'go'
p4273
aS'from'
p4274
aS'the'
p4275
aS'kitchen'
p4276
aS'to'
p4277
aS'the'
p4278
aS'office'
p4279
asI390
(lp4280
S'How'
p4281
aS'do'
p4282
aS'you'
p4283
aS'go'
p4284
aS'from'
p4285
aS'the'
p4286
aS'office'
p4287
aS'to'
p4288
aS'the'
p4289
aS'kitchen'
p4290
asI391
(lp4291
S'How'
p4292
aS'do'
p4293
aS'you'
p4294
aS'go'
p4295
aS'from'
p4296
aS'the'
p4297
aS'bedroom'
p4298
aS'to'
p4299
aS'the'
p4300
aS'office'
p4301
asI392
(lp4302
S'How'
p4303
aS'do'
p4304
aS'you'
p4305
aS'go'
p4306
aS'from'
p4307
aS'the'
p4308
aS'kitchen'
p4309
aS'to'
p4310
aS'the'
p4311
aS'bathroom'
p4312
asI393
(lp4313
S'How'
p4314
aS'do'
p4315
aS'you'
p4316
aS'go'
p4317
aS'from'
p4318
aS'the'
p4319
aS'bathroom'
p4320
aS'to'
p4321
aS'the'
p4322
aS'office'
p4323
asI394
(lp4324
S'How'
p4325
aS'do'
p4326
aS'you'
p4327
aS'go'
p4328
aS'from'
p4329
aS'the'
p4330
aS'office'
p4331
aS'to'
p4332
aS'the'
p4333
aS'bedroom'
p4334
asI395
(lp4335
S'How'
p4336
aS'do'
p4337
aS'you'
p4338
aS'go'
p4339
aS'from'
p4340
aS'the'
p4341
aS'hallway'
p4342
aS'to'
p4343
aS'the'
p4344
aS'bedroom'
p4345
asI396
(lp4346
S'How'
p4347
aS'do'
p4348
aS'you'
p4349
aS'go'
p4350
aS'from'
p4351
aS'the'
p4352
aS'kitchen'
p4353
aS'to'
p4354
aS'the'
p4355
aS'garden'
p4356
asI397
(lp4357
S'How'
p4358
aS'do'
p4359
aS'you'
p4360
aS'go'
p4361
aS'from'
p4362
aS'the'
p4363
aS'kitchen'
p4364
aS'to'
p4365
aS'the'
p4366
aS'bedroom'
p4367
asI398
(lp4368
S'How'
p4369
aS'do'
p4370
aS'you'
p4371
aS'go'
p4372
aS'from'
p4373
aS'the'
p4374
aS'bathroom'
p4375
aS'to'
p4376
aS'the'
p4377
aS'kitchen'
p4378
asI399
(lp4379
S'How'
p4380
aS'do'
p4381
aS'you'
p4382
aS'go'
p4383
aS'from'
p4384
aS'the'
p4385
aS'garden'
p4386
aS'to'
p4387
aS'the'
p4388
aS'office'
p4389
asI400
(lp4390
S'How'
p4391
aS'do'
p4392
aS'you'
p4393
aS'go'
p4394
aS'from'
p4395
aS'the'
p4396
aS'bedroom'
p4397
aS'to'
p4398
aS'the'
p4399
aS'bathroom'
p4400
asI401
(lp4401
S'How'
p4402
aS'do'
p4403
aS'you'
p4404
aS'go'
p4405
aS'from'
p4406
aS'the'
p4407
aS'office'
p4408
aS'to'
p4409
aS'the'
p4410
aS'bathroom'
p4411
asI402
(lp4412
S'How'
p4413
aS'do'
p4414
aS'you'
p4415
aS'go'
p4416
aS'from'
p4417
aS'the'
p4418
aS'bathroom'
p4419
aS'to'
p4420
aS'the'
p4421
aS'garden'
p4422
asI403
(lp4423
S'How'
p4424
aS'do'
p4425
aS'you'
p4426
aS'go'
p4427
aS'from'
p4428
aS'the'
p4429
aS'hallway'
p4430
aS'to'
p4431
aS'the'
p4432
aS'kitchen'
p4433
asI404
(lp4434
S'How'
p4435
aS'do'
p4436
aS'you'
p4437
aS'go'
p4438
aS'from'
p4439
aS'the'
p4440
aS'kitchen'
p4441
aS'to'
p4442
aS'the'
p4443
aS'garden'
p4444
asI405
(lp4445
S'How'
p4446
aS'do'
p4447
aS'you'
p4448
aS'go'
p4449
aS'from'
p4450
aS'the'
p4451
aS'hallway'
p4452
aS'to'
p4453
aS'the'
p4454
aS'kitchen'
p4455
asI406
(lp4456
S'How'
p4457
aS'do'
p4458
aS'you'
p4459
aS'go'
p4460
aS'from'
p4461
aS'the'
p4462
aS'kitchen'
p4463
aS'to'
p4464
aS'the'
p4465
aS'garden'
p4466
asI407
(lp4467
S'How'
p4468
aS'do'
p4469
aS'you'
p4470
aS'go'
p4471
aS'from'
p4472
aS'the'
p4473
aS'garden'
p4474
aS'to'
p4475
aS'the'
p4476
aS'bedroom'
p4477
asI408
(lp4478
S'How'
p4479
aS'do'
p4480
aS'you'
p4481
aS'go'
p4482
aS'from'
p4483
aS'the'
p4484
aS'garden'
p4485
aS'to'
p4486
aS'the'
p4487
aS'bathroom'
p4488
asI409
(lp4489
S'How'
p4490
aS'do'
p4491
aS'you'
p4492
aS'go'
p4493
aS'from'
p4494
aS'the'
p4495
aS'bathroom'
p4496
aS'to'
p4497
aS'the'
p4498
aS'garden'
p4499
asI410
(lp4500
S'How'
p4501
aS'do'
p4502
aS'you'
p4503
aS'go'
p4504
aS'from'
p4505
aS'the'
p4506
aS'bedroom'
p4507
aS'to'
p4508
aS'the'
p4509
aS'office'
p4510
asI411
(lp4511
S'How'
p4512
aS'do'
p4513
aS'you'
p4514
aS'go'
p4515
aS'from'
p4516
aS'the'
p4517
aS'office'
p4518
aS'to'
p4519
aS'the'
p4520
aS'kitchen'
p4521
asI412
(lp4522
S'How'
p4523
aS'do'
p4524
aS'you'
p4525
aS'go'
p4526
aS'from'
p4527
aS'the'
p4528
aS'kitchen'
p4529
aS'to'
p4530
aS'the'
p4531
aS'garden'
p4532
asI413
(lp4533
S'How'
p4534
aS'do'
p4535
aS'you'
p4536
aS'go'
p4537
aS'from'
p4538
aS'the'
p4539
aS'hallway'
p4540
aS'to'
p4541
aS'the'
p4542
aS'kitchen'
p4543
asI414
(lp4544
S'How'
p4545
aS'do'
p4546
aS'you'
p4547
aS'go'
p4548
aS'from'
p4549
aS'the'
p4550
aS'hallway'
p4551
aS'to'
p4552
aS'the'
p4553
aS'office'
p4554
asI415
(lp4555
S'How'
p4556
aS'do'
p4557
aS'you'
p4558
aS'go'
p4559
aS'from'
p4560
aS'the'
p4561
aS'kitchen'
p4562
aS'to'
p4563
aS'the'
p4564
aS'office'
p4565
asI416
(lp4566
S'How'
p4567
aS'do'
p4568
aS'you'
p4569
aS'go'
p4570
aS'from'
p4571
aS'the'
p4572
aS'hallway'
p4573
aS'to'
p4574
aS'the'
p4575
aS'office'
p4576
asI417
(lp4577
S'How'
p4578
aS'do'
p4579
aS'you'
p4580
aS'go'
p4581
aS'from'
p4582
aS'the'
p4583
aS'bathroom'
p4584
aS'to'
p4585
aS'the'
p4586
aS'garden'
p4587
asI418
(lp4588
S'How'
p4589
aS'do'
p4590
aS'you'
p4591
aS'go'
p4592
aS'from'
p4593
aS'the'
p4594
aS'kitchen'
p4595
aS'to'
p4596
aS'the'
p4597
aS'office'
p4598
asI419
(lp4599
S'How'
p4600
aS'do'
p4601
aS'you'
p4602
aS'go'
p4603
aS'from'
p4604
aS'the'
p4605
aS'garden'
p4606
aS'to'
p4607
aS'the'
p4608
aS'bedroom'
p4609
asI420
(lp4610
S'How'
p4611
aS'do'
p4612
aS'you'
p4613
aS'go'
p4614
aS'from'
p4615
aS'the'
p4616
aS'bathroom'
p4617
aS'to'
p4618
aS'the'
p4619
aS'bedroom'
p4620
asI421
(lp4621
S'How'
p4622
aS'do'
p4623
aS'you'
p4624
aS'go'
p4625
aS'from'
p4626
aS'the'
p4627
aS'hallway'
p4628
aS'to'
p4629
aS'the'
p4630
aS'garden'
p4631
asI422
(lp4632
S'How'
p4633
aS'do'
p4634
aS'you'
p4635
aS'go'
p4636
aS'from'
p4637
aS'the'
p4638
aS'office'
p4639
aS'to'
p4640
aS'the'
p4641
aS'bathroom'
p4642
asI423
(lp4643
S'How'
p4644
aS'do'
p4645
aS'you'
p4646
aS'go'
p4647
aS'from'
p4648
aS'the'
p4649
aS'hallway'
p4650
aS'to'
p4651
aS'the'
p4652
aS'bedroom'
p4653
asI424
(lp4654
S'How'
p4655
aS'do'
p4656
aS'you'
p4657
aS'go'
p4658
aS'from'
p4659
aS'the'
p4660
aS'office'
p4661
aS'to'
p4662
aS'the'
p4663
aS'hallway'
p4664
asI425
(lp4665
S'How'
p4666
aS'do'
p4667
aS'you'
p4668
aS'go'
p4669
aS'from'
p4670
aS'the'
p4671
aS'garden'
p4672
aS'to'
p4673
aS'the'
p4674
aS'hallway'
p4675
asI426
(lp4676
S'How'
p4677
aS'do'
p4678
aS'you'
p4679
aS'go'
p4680
aS'from'
p4681
aS'the'
p4682
aS'bathroom'
p4683
aS'to'
p4684
aS'the'
p4685
aS'kitchen'
p4686
asI427
(lp4687
S'How'
p4688
aS'do'
p4689
aS'you'
p4690
aS'go'
p4691
aS'from'
p4692
aS'the'
p4693
aS'garden'
p4694
aS'to'
p4695
aS'the'
p4696
aS'bathroom'
p4697
asI428
(lp4698
S'How'
p4699
aS'do'
p4700
aS'you'
p4701
aS'go'
p4702
aS'from'
p4703
aS'the'
p4704
aS'garden'
p4705
aS'to'
p4706
aS'the'
p4707
aS'bedroom'
p4708
asI429
(lp4709
S'How'
p4710
aS'do'
p4711
aS'you'
p4712
aS'go'
p4713
aS'from'
p4714
aS'the'
p4715
aS'kitchen'
p4716
aS'to'
p4717
aS'the'
p4718
aS'garden'
p4719
asI430
(lp4720
S'How'
p4721
aS'do'
p4722
aS'you'
p4723
aS'go'
p4724
aS'from'
p4725
aS'the'
p4726
aS'bedroom'
p4727
aS'to'
p4728
aS'the'
p4729
aS'office'
p4730
asI431
(lp4731
S'How'
p4732
aS'do'
p4733
aS'you'
p4734
aS'go'
p4735
aS'from'
p4736
aS'the'
p4737
aS'hallway'
p4738
aS'to'
p4739
aS'the'
p4740
aS'bedroom'
p4741
asI432
(lp4742
S'How'
p4743
aS'do'
p4744
aS'you'
p4745
aS'go'
p4746
aS'from'
p4747
aS'the'
p4748
aS'hallway'
p4749
aS'to'
p4750
aS'the'
p4751
aS'kitchen'
p4752
asI433
(lp4753
S'How'
p4754
aS'do'
p4755
aS'you'
p4756
aS'go'
p4757
aS'from'
p4758
aS'the'
p4759
aS'kitchen'
p4760
aS'to'
p4761
aS'the'
p4762
aS'bathroom'
p4763
asI434
(lp4764
S'How'
p4765
aS'do'
p4766
aS'you'
p4767
aS'go'
p4768
aS'from'
p4769
aS'the'
p4770
aS'bathroom'
p4771
aS'to'
p4772
aS'the'
p4773
aS'hallway'
p4774
asI435
(lp4775
S'How'
p4776
aS'do'
p4777
aS'you'
p4778
aS'go'
p4779
aS'from'
p4780
aS'the'
p4781
aS'kitchen'
p4782
aS'to'
p4783
aS'the'
p4784
aS'garden'
p4785
asI436
(lp4786
S'How'
p4787
aS'do'
p4788
aS'you'
p4789
aS'go'
p4790
aS'from'
p4791
aS'the'
p4792
aS'kitchen'
p4793
aS'to'
p4794
aS'the'
p4795
aS'office'
p4796
asI437
(lp4797
S'How'
p4798
aS'do'
p4799
aS'you'
p4800
aS'go'
p4801
aS'from'
p4802
aS'the'
p4803
aS'kitchen'
p4804
aS'to'
p4805
aS'the'
p4806
aS'garden'
p4807
asI438
(lp4808
S'How'
p4809
aS'do'
p4810
aS'you'
p4811
aS'go'
p4812
aS'from'
p4813
aS'the'
p4814
aS'bathroom'
p4815
aS'to'
p4816
aS'the'
p4817
aS'garden'
p4818
asI439
(lp4819
S'How'
p4820
aS'do'
p4821
aS'you'
p4822
aS'go'
p4823
aS'from'
p4824
aS'the'
p4825
aS'garden'
p4826
aS'to'
p4827
aS'the'
p4828
aS'office'
p4829
asI440
(lp4830
S'How'
p4831
aS'do'
p4832
aS'you'
p4833
aS'go'
p4834
aS'from'
p4835
aS'the'
p4836
aS'garden'
p4837
aS'to'
p4838
aS'the'
p4839
aS'bathroom'
p4840
asI441
(lp4841
S'How'
p4842
aS'do'
p4843
aS'you'
p4844
aS'go'
p4845
aS'from'
p4846
aS'the'
p4847
aS'garden'
p4848
aS'to'
p4849
aS'the'
p4850
aS'bedroom'
p4851
asI442
(lp4852
S'How'
p4853
aS'do'
p4854
aS'you'
p4855
aS'go'
p4856
aS'from'
p4857
aS'the'
p4858
aS'garden'
p4859
aS'to'
p4860
aS'the'
p4861
aS'bedroom'
p4862
asI443
(lp4863
S'How'
p4864
aS'do'
p4865
aS'you'
p4866
aS'go'
p4867
aS'from'
p4868
aS'the'
p4869
aS'kitchen'
p4870
aS'to'
p4871
aS'the'
p4872
aS'garden'
p4873
asI444
(lp4874
S'How'
p4875
aS'do'
p4876
aS'you'
p4877
aS'go'
p4878
aS'from'
p4879
aS'the'
p4880
aS'garden'
p4881
aS'to'
p4882
aS'the'
p4883
aS'office'
p4884
asI445
(lp4885
S'How'
p4886
aS'do'
p4887
aS'you'
p4888
aS'go'
p4889
aS'from'
p4890
aS'the'
p4891
aS'hallway'
p4892
aS'to'
p4893
aS'the'
p4894
aS'bathroom'
p4895
asI446
(lp4896
S'How'
p4897
aS'do'
p4898
aS'you'
p4899
aS'go'
p4900
aS'from'
p4901
aS'the'
p4902
aS'office'
p4903
aS'to'
p4904
aS'the'
p4905
aS'kitchen'
p4906
asI447
(lp4907
S'How'
p4908
aS'do'
p4909
aS'you'
p4910
aS'go'
p4911
aS'from'
p4912
aS'the'
p4913
aS'office'
p4914
aS'to'
p4915
aS'the'
p4916
aS'kitchen'
p4917
asI448
(lp4918
S'How'
p4919
aS'do'
p4920
aS'you'
p4921
aS'go'
p4922
aS'from'
p4923
aS'the'
p4924
aS'kitchen'
p4925
aS'to'
p4926
aS'the'
p4927
aS'hallway'
p4928
asI449
(lp4929
S'How'
p4930
aS'do'
p4931
aS'you'
p4932
aS'go'
p4933
aS'from'
p4934
aS'the'
p4935
aS'office'
p4936
aS'to'
p4937
aS'the'
p4938
aS'bedroom'
p4939
asI450
(lp4940
S'How'
p4941
aS'do'
p4942
aS'you'
p4943
aS'go'
p4944
aS'from'
p4945
aS'the'
p4946
aS'kitchen'
p4947
aS'to'
p4948
aS'the'
p4949
aS'hallway'
p4950
asI451
(lp4951
S'How'
p4952
aS'do'
p4953
aS'you'
p4954
aS'go'
p4955
aS'from'
p4956
aS'the'
p4957
aS'office'
p4958
aS'to'
p4959
aS'the'
p4960
aS'garden'
p4961
asI452
(lp4962
S'How'
p4963
aS'do'
p4964
aS'you'
p4965
aS'go'
p4966
aS'from'
p4967
aS'the'
p4968
aS'garden'
p4969
aS'to'
p4970
aS'the'
p4971
aS'bathroom'
p4972
asI453
(lp4973
S'How'
p4974
aS'do'
p4975
aS'you'
p4976
aS'go'
p4977
aS'from'
p4978
aS'the'
p4979
aS'garden'
p4980
aS'to'
p4981
aS'the'
p4982
aS'hallway'
p4983
asI454
(lp4984
S'How'
p4985
aS'do'
p4986
aS'you'
p4987
aS'go'
p4988
aS'from'
p4989
aS'the'
p4990
aS'hallway'
p4991
aS'to'
p4992
aS'the'
p4993
aS'office'
p4994
asI455
(lp4995
S'How'
p4996
aS'do'
p4997
aS'you'
p4998
aS'go'
p4999
aS'from'
p5000
aS'the'
p5001
aS'office'
p5002
aS'to'
p5003
aS'the'
p5004
aS'bathroom'
p5005
asI456
(lp5006
S'How'
p5007
aS'do'
p5008
aS'you'
p5009
aS'go'
p5010
aS'from'
p5011
aS'the'
p5012
aS'bathroom'
p5013
aS'to'
p5014
aS'the'
p5015
aS'bedroom'
p5016
asI457
(lp5017
S'How'
p5018
aS'do'
p5019
aS'you'
p5020
aS'go'
p5021
aS'from'
p5022
aS'the'
p5023
aS'hallway'
p5024
aS'to'
p5025
aS'the'
p5026
aS'office'
p5027
asI458
(lp5028
S'How'
p5029
aS'do'
p5030
aS'you'
p5031
aS'go'
p5032
aS'from'
p5033
aS'the'
p5034
aS'office'
p5035
aS'to'
p5036
aS'the'
p5037
aS'kitchen'
p5038
asI459
(lp5039
S'How'
p5040
aS'do'
p5041
aS'you'
p5042
aS'go'
p5043
aS'from'
p5044
aS'the'
p5045
aS'bedroom'
p5046
aS'to'
p5047
aS'the'
p5048
aS'kitchen'
p5049
asI460
(lp5050
S'How'
p5051
aS'do'
p5052
aS'you'
p5053
aS'go'
p5054
aS'from'
p5055
aS'the'
p5056
aS'bedroom'
p5057
aS'to'
p5058
aS'the'
p5059
aS'kitchen'
p5060
asI461
(lp5061
S'How'
p5062
aS'do'
p5063
aS'you'
p5064
aS'go'
p5065
aS'from'
p5066
aS'the'
p5067
aS'bathroom'
p5068
aS'to'
p5069
aS'the'
p5070
aS'bedroom'
p5071
asI462
(lp5072
S'How'
p5073
aS'do'
p5074
aS'you'
p5075
aS'go'
p5076
aS'from'
p5077
aS'the'
p5078
aS'office'
p5079
aS'to'
p5080
aS'the'
p5081
aS'garden'
p5082
asI463
(lp5083
S'How'
p5084
aS'do'
p5085
aS'you'
p5086
aS'go'
p5087
aS'from'
p5088
aS'the'
p5089
aS'kitchen'
p5090
aS'to'
p5091
aS'the'
p5092
aS'office'
p5093
asI464
(lp5094
S'How'
p5095
aS'do'
p5096
aS'you'
p5097
aS'go'
p5098
aS'from'
p5099
aS'the'
p5100
aS'bathroom'
p5101
aS'to'
p5102
aS'the'
p5103
aS'bedroom'
p5104
asI465
(lp5105
S'How'
p5106
aS'do'
p5107
aS'you'
p5108
aS'go'
p5109
aS'from'
p5110
aS'the'
p5111
aS'kitchen'
p5112
aS'to'
p5113
aS'the'
p5114
aS'hallway'
p5115
asI466
(lp5116
S'How'
p5117
aS'do'
p5118
aS'you'
p5119
aS'go'
p5120
aS'from'
p5121
aS'the'
p5122
aS'garden'
p5123
aS'to'
p5124
aS'the'
p5125
aS'office'
p5126
asI467
(lp5127
S'How'
p5128
aS'do'
p5129
aS'you'
p5130
aS'go'
p5131
aS'from'
p5132
aS'the'
p5133
aS'office'
p5134
aS'to'
p5135
aS'the'
p5136
aS'kitchen'
p5137
asI468
(lp5138
S'How'
p5139
aS'do'
p5140
aS'you'
p5141
aS'go'
p5142
aS'from'
p5143
aS'the'
p5144
aS'kitchen'
p5145
aS'to'
p5146
aS'the'
p5147
aS'garden'
p5148
asI469
(lp5149
S'How'
p5150
aS'do'
p5151
aS'you'
p5152
aS'go'
p5153
aS'from'
p5154
aS'the'
p5155
aS'bathroom'
p5156
aS'to'
p5157
aS'the'
p5158
aS'kitchen'
p5159
asI470
(lp5160
S'How'
p5161
aS'do'
p5162
aS'you'
p5163
aS'go'
p5164
aS'from'
p5165
aS'the'
p5166
aS'hallway'
p5167
aS'to'
p5168
aS'the'
p5169
aS'bedroom'
p5170
asI471
(lp5171
S'How'
p5172
aS'do'
p5173
aS'you'
p5174
aS'go'
p5175
aS'from'
p5176
aS'the'
p5177
aS'office'
p5178
aS'to'
p5179
aS'the'
p5180
aS'bathroom'
p5181
asI472
(lp5182
S'How'
p5183
aS'do'
p5184
aS'you'
p5185
aS'go'
p5186
aS'from'
p5187
aS'the'
p5188
aS'office'
p5189
aS'to'
p5190
aS'the'
p5191
aS'kitchen'
p5192
asI473
(lp5193
S'How'
p5194
aS'do'
p5195
aS'you'
p5196
aS'go'
p5197
aS'from'
p5198
aS'the'
p5199
aS'hallway'
p5200
aS'to'
p5201
aS'the'
p5202
aS'kitchen'
p5203
asI474
(lp5204
S'How'
p5205
aS'do'
p5206
aS'you'
p5207
aS'go'
p5208
aS'from'
p5209
aS'the'
p5210
aS'garden'
p5211
aS'to'
p5212
aS'the'
p5213
aS'bedroom'
p5214
asI475
(lp5215
S'How'
p5216
aS'do'
p5217
aS'you'
p5218
aS'go'
p5219
aS'from'
p5220
aS'the'
p5221
aS'bedroom'
p5222
aS'to'
p5223
aS'the'
p5224
aS'kitchen'
p5225
asI476
(lp5226
S'How'
p5227
aS'do'
p5228
aS'you'
p5229
aS'go'
p5230
aS'from'
p5231
aS'the'
p5232
aS'bathroom'
p5233
aS'to'
p5234
aS'the'
p5235
aS'bedroom'
p5236
asI477
(lp5237
S'How'
p5238
aS'do'
p5239
aS'you'
p5240
aS'go'
p5241
aS'from'
p5242
aS'the'
p5243
aS'hallway'
p5244
aS'to'
p5245
aS'the'
p5246
aS'kitchen'
p5247
asI478
(lp5248
S'How'
p5249
aS'do'
p5250
aS'you'
p5251
aS'go'
p5252
aS'from'
p5253
aS'the'
p5254
aS'bedroom'
p5255
aS'to'
p5256
aS'the'
p5257
aS'office'
p5258
asI479
(lp5259
S'How'
p5260
aS'do'
p5261
aS'you'
p5262
aS'go'
p5263
aS'from'
p5264
aS'the'
p5265
aS'bedroom'
p5266
aS'to'
p5267
aS'the'
p5268
aS'garden'
p5269
asI480
(lp5270
S'How'
p5271
aS'do'
p5272
aS'you'
p5273
aS'go'
p5274
aS'from'
p5275
aS'the'
p5276
aS'hallway'
p5277
aS'to'
p5278
aS'the'
p5279
aS'bathroom'
p5280
asI481
(lp5281
S'How'
p5282
aS'do'
p5283
aS'you'
p5284
aS'go'
p5285
aS'from'
p5286
aS'the'
p5287
aS'garden'
p5288
aS'to'
p5289
aS'the'
p5290
aS'bathroom'
p5291
asI482
(lp5292
S'How'
p5293
aS'do'
p5294
aS'you'
p5295
aS'go'
p5296
aS'from'
p5297
aS'the'
p5298
aS'office'
p5299
aS'to'
p5300
aS'the'
p5301
aS'kitchen'
p5302
asI483
(lp5303
S'How'
p5304
aS'do'
p5305
aS'you'
p5306
aS'go'
p5307
aS'from'
p5308
aS'the'
p5309
aS'kitchen'
p5310
aS'to'
p5311
aS'the'
p5312
aS'bedroom'
p5313
asI484
(lp5314
S'How'
p5315
aS'do'
p5316
aS'you'
p5317
aS'go'
p5318
aS'from'
p5319
aS'the'
p5320
aS'office'
p5321
aS'to'
p5322
aS'the'
p5323
aS'hallway'
p5324
asI485
(lp5325
S'How'
p5326
aS'do'
p5327
aS'you'
p5328
aS'go'
p5329
aS'from'
p5330
aS'the'
p5331
aS'hallway'
p5332
aS'to'
p5333
aS'the'
p5334
aS'garden'
p5335
asI486
(lp5336
S'How'
p5337
aS'do'
p5338
aS'you'
p5339
aS'go'
p5340
aS'from'
p5341
aS'the'
p5342
aS'bedroom'
p5343
aS'to'
p5344
aS'the'
p5345
aS'kitchen'
p5346
asI487
(lp5347
S'How'
p5348
aS'do'
p5349
aS'you'
p5350
aS'go'
p5351
aS'from'
p5352
aS'the'
p5353
aS'office'
p5354
aS'to'
p5355
aS'the'
p5356
aS'garden'
p5357
asI488
(lp5358
S'How'
p5359
aS'do'
p5360
aS'you'
p5361
aS'go'
p5362
aS'from'
p5363
aS'the'
p5364
aS'bathroom'
p5365
aS'to'
p5366
aS'the'
p5367
aS'garden'
p5368
asI489
(lp5369
S'How'
p5370
aS'do'
p5371
aS'you'
p5372
aS'go'
p5373
aS'from'
p5374
aS'the'
p5375
aS'bathroom'
p5376
aS'to'
p5377
aS'the'
p5378
aS'hallway'
p5379
asI490
(lp5380
S'How'
p5381
aS'do'
p5382
aS'you'
p5383
aS'go'
p5384
aS'from'
p5385
aS'the'
p5386
aS'garden'
p5387
aS'to'
p5388
aS'the'
p5389
aS'bedroom'
p5390
asI491
(lp5391
S'How'
p5392
aS'do'
p5393
aS'you'
p5394
aS'go'
p5395
aS'from'
p5396
aS'the'
p5397
aS'office'
p5398
aS'to'
p5399
aS'the'
p5400
aS'garden'
p5401
asI492
(lp5402
S'How'
p5403
aS'do'
p5404
aS'you'
p5405
aS'go'
p5406
aS'from'
p5407
aS'the'
p5408
aS'hallway'
p5409
aS'to'
p5410
aS'the'
p5411
aS'garden'
p5412
asI493
(lp5413
S'How'
p5414
aS'do'
p5415
aS'you'
p5416
aS'go'
p5417
aS'from'
p5418
aS'the'
p5419
aS'bathroom'
p5420
aS'to'
p5421
aS'the'
p5422
aS'garden'
p5423
asI494
(lp5424
S'How'
p5425
aS'do'
p5426
aS'you'
p5427
aS'go'
p5428
aS'from'
p5429
aS'the'
p5430
aS'garden'
p5431
aS'to'
p5432
aS'the'
p5433
aS'bathroom'
p5434
asI495
(lp5435
S'How'
p5436
aS'do'
p5437
aS'you'
p5438
aS'go'
p5439
aS'from'
p5440
aS'the'
p5441
aS'bedroom'
p5442
aS'to'
p5443
aS'the'
p5444
aS'hallway'
p5445
asI496
(lp5446
S'How'
p5447
aS'do'
p5448
aS'you'
p5449
aS'go'
p5450
aS'from'
p5451
aS'the'
p5452
aS'bathroom'
p5453
aS'to'
p5454
aS'the'
p5455
aS'bedroom'
p5456
asI497
(lp5457
S'How'
p5458
aS'do'
p5459
aS'you'
p5460
aS'go'
p5461
aS'from'
p5462
aS'the'
p5463
aS'kitchen'
p5464
aS'to'
p5465
aS'the'
p5466
aS'office'
p5467
asI498
(lp5468
S'How'
p5469
aS'do'
p5470
aS'you'
p5471
aS'go'
p5472
aS'from'
p5473
aS'the'
p5474
aS'kitchen'
p5475
aS'to'
p5476
aS'the'
p5477
aS'bathroom'
p5478
asI499
(lp5479
S'How'
p5480
aS'do'
p5481
aS'you'
p5482
aS'go'
p5483
aS'from'
p5484
aS'the'
p5485
aS'bedroom'
p5486
aS'to'
p5487
aS'the'
p5488
aS'hallway'
p5489
asI500
(lp5490
S'How'
p5491
aS'do'
p5492
aS'you'
p5493
aS'go'
p5494
aS'from'
p5495
aS'the'
p5496
aS'hallway'
p5497
aS'to'
p5498
aS'the'
p5499
aS'bathroom'
p5500
asI501
(lp5501
S'How'
p5502
aS'do'
p5503
aS'you'
p5504
aS'go'
p5505
aS'from'
p5506
aS'the'
p5507
aS'bathroom'
p5508
aS'to'
p5509
aS'the'
p5510
aS'office'
p5511
asI502
(lp5512
S'How'
p5513
aS'do'
p5514
aS'you'
p5515
aS'go'
p5516
aS'from'
p5517
aS'the'
p5518
aS'garden'
p5519
aS'to'
p5520
aS'the'
p5521
aS'kitchen'
p5522
asI503
(lp5523
S'How'
p5524
aS'do'
p5525
aS'you'
p5526
aS'go'
p5527
aS'from'
p5528
aS'the'
p5529
aS'office'
p5530
aS'to'
p5531
aS'the'
p5532
aS'hallway'
p5533
asI504
(lp5534
S'How'
p5535
aS'do'
p5536
aS'you'
p5537
aS'go'
p5538
aS'from'
p5539
aS'the'
p5540
aS'garden'
p5541
aS'to'
p5542
aS'the'
p5543
aS'bedroom'
p5544
asI505
(lp5545
S'How'
p5546
aS'do'
p5547
aS'you'
p5548
aS'go'
p5549
aS'from'
p5550
aS'the'
p5551
aS'bathroom'
p5552
aS'to'
p5553
aS'the'
p5554
aS'garden'
p5555
asI506
(lp5556
S'How'
p5557
aS'do'
p5558
aS'you'
p5559
aS'go'
p5560
aS'from'
p5561
aS'the'
p5562
aS'kitchen'
p5563
aS'to'
p5564
aS'the'
p5565
aS'bathroom'
p5566
asI507
(lp5567
S'How'
p5568
aS'do'
p5569
aS'you'
p5570
aS'go'
p5571
aS'from'
p5572
aS'the'
p5573
aS'hallway'
p5574
aS'to'
p5575
aS'the'
p5576
aS'kitchen'
p5577
asI508
(lp5578
S'How'
p5579
aS'do'
p5580
aS'you'
p5581
aS'go'
p5582
aS'from'
p5583
aS'the'
p5584
aS'garden'
p5585
aS'to'
p5586
aS'the'
p5587
aS'kitchen'
p5588
asI509
(lp5589
S'How'
p5590
aS'do'
p5591
aS'you'
p5592
aS'go'
p5593
aS'from'
p5594
aS'the'
p5595
aS'bedroom'
p5596
aS'to'
p5597
aS'the'
p5598
aS'kitchen'
p5599
asI510
(lp5600
S'How'
p5601
aS'do'
p5602
aS'you'
p5603
aS'go'
p5604
aS'from'
p5605
aS'the'
p5606
aS'kitchen'
p5607
aS'to'
p5608
aS'the'
p5609
aS'hallway'
p5610
asI511
(lp5611
S'How'
p5612
aS'do'
p5613
aS'you'
p5614
aS'go'
p5615
aS'from'
p5616
aS'the'
p5617
aS'office'
p5618
aS'to'
p5619
aS'the'
p5620
aS'hallway'
p5621
asI512
(lp5622
S'How'
p5623
aS'do'
p5624
aS'you'
p5625
aS'go'
p5626
aS'from'
p5627
aS'the'
p5628
aS'kitchen'
p5629
aS'to'
p5630
aS'the'
p5631
aS'office'
p5632
asI513
(lp5633
S'How'
p5634
aS'do'
p5635
aS'you'
p5636
aS'go'
p5637
aS'from'
p5638
aS'the'
p5639
aS'office'
p5640
aS'to'
p5641
aS'the'
p5642
aS'garden'
p5643
asI514
(lp5644
S'How'
p5645
aS'do'
p5646
aS'you'
p5647
aS'go'
p5648
aS'from'
p5649
aS'the'
p5650
aS'kitchen'
p5651
aS'to'
p5652
aS'the'
p5653
aS'bathroom'
p5654
asI515
(lp5655
S'How'
p5656
aS'do'
p5657
aS'you'
p5658
aS'go'
p5659
aS'from'
p5660
aS'the'
p5661
aS'hallway'
p5662
aS'to'
p5663
aS'the'
p5664
aS'kitchen'
p5665
asI516
(lp5666
S'How'
p5667
aS'do'
p5668
aS'you'
p5669
aS'go'
p5670
aS'from'
p5671
aS'the'
p5672
aS'garden'
p5673
aS'to'
p5674
aS'the'
p5675
aS'bathroom'
p5676
asI517
(lp5677
S'How'
p5678
aS'do'
p5679
aS'you'
p5680
aS'go'
p5681
aS'from'
p5682
aS'the'
p5683
aS'kitchen'
p5684
aS'to'
p5685
aS'the'
p5686
aS'office'
p5687
asI518
(lp5688
S'How'
p5689
aS'do'
p5690
aS'you'
p5691
aS'go'
p5692
aS'from'
p5693
aS'the'
p5694
aS'kitchen'
p5695
aS'to'
p5696
aS'the'
p5697
aS'bathroom'
p5698
asI519
(lp5699
S'How'
p5700
aS'do'
p5701
aS'you'
p5702
aS'go'
p5703
aS'from'
p5704
aS'the'
p5705
aS'hallway'
p5706
aS'to'
p5707
aS'the'
p5708
aS'bathroom'
p5709
asI520
(lp5710
S'How'
p5711
aS'do'
p5712
aS'you'
p5713
aS'go'
p5714
aS'from'
p5715
aS'the'
p5716
aS'bathroom'
p5717
aS'to'
p5718
aS'the'
p5719
aS'office'
p5720
asI521
(lp5721
S'How'
p5722
aS'do'
p5723
aS'you'
p5724
aS'go'
p5725
aS'from'
p5726
aS'the'
p5727
aS'bedroom'
p5728
aS'to'
p5729
aS'the'
p5730
aS'bathroom'
p5731
asI522
(lp5732
S'How'
p5733
aS'do'
p5734
aS'you'
p5735
aS'go'
p5736
aS'from'
p5737
aS'the'
p5738
aS'hallway'
p5739
aS'to'
p5740
aS'the'
p5741
aS'bedroom'
p5742
asI523
(lp5743
S'How'
p5744
aS'do'
p5745
aS'you'
p5746
aS'go'
p5747
aS'from'
p5748
aS'the'
p5749
aS'bedroom'
p5750
aS'to'
p5751
aS'the'
p5752
aS'garden'
p5753
asI524
(lp5754
S'How'
p5755
aS'do'
p5756
aS'you'
p5757
aS'go'
p5758
aS'from'
p5759
aS'the'
p5760
aS'garden'
p5761
aS'to'
p5762
aS'the'
p5763
aS'hallway'
p5764
asI525
(lp5765
S'How'
p5766
aS'do'
p5767
aS'you'
p5768
aS'go'
p5769
aS'from'
p5770
aS'the'
p5771
aS'hallway'
p5772
aS'to'
p5773
aS'the'
p5774
aS'bathroom'
p5775
asI526
(lp5776
S'How'
p5777
aS'do'
p5778
aS'you'
p5779
aS'go'
p5780
aS'from'
p5781
aS'the'
p5782
aS'hallway'
p5783
aS'to'
p5784
aS'the'
p5785
aS'garden'
p5786
asI527
(lp5787
S'How'
p5788
aS'do'
p5789
aS'you'
p5790
aS'go'
p5791
aS'from'
p5792
aS'the'
p5793
aS'kitchen'
p5794
aS'to'
p5795
aS'the'
p5796
aS'hallway'
p5797
asI528
(lp5798
S'How'
p5799
aS'do'
p5800
aS'you'
p5801
aS'go'
p5802
aS'from'
p5803
aS'the'
p5804
aS'hallway'
p5805
aS'to'
p5806
aS'the'
p5807
aS'bedroom'
p5808
asI529
(lp5809
S'How'
p5810
aS'do'
p5811
aS'you'
p5812
aS'go'
p5813
aS'from'
p5814
aS'the'
p5815
aS'garden'
p5816
aS'to'
p5817
aS'the'
p5818
aS'hallway'
p5819
asI530
(lp5820
S'How'
p5821
aS'do'
p5822
aS'you'
p5823
aS'go'
p5824
aS'from'
p5825
aS'the'
p5826
aS'bathroom'
p5827
aS'to'
p5828
aS'the'
p5829
aS'office'
p5830
asI531
(lp5831
S'How'
p5832
aS'do'
p5833
aS'you'
p5834
aS'go'
p5835
aS'from'
p5836
aS'the'
p5837
aS'bedroom'
p5838
aS'to'
p5839
aS'the'
p5840
aS'garden'
p5841
asI532
(lp5842
S'How'
p5843
aS'do'
p5844
aS'you'
p5845
aS'go'
p5846
aS'from'
p5847
aS'the'
p5848
aS'bedroom'
p5849
aS'to'
p5850
aS'the'
p5851
aS'bathroom'
p5852
asI533
(lp5853
S'How'
p5854
aS'do'
p5855
aS'you'
p5856
aS'go'
p5857
aS'from'
p5858
aS'the'
p5859
aS'garden'
p5860
aS'to'
p5861
aS'the'
p5862
aS'kitchen'
p5863
asI534
(lp5864
S'How'
p5865
aS'do'
p5866
aS'you'
p5867
aS'go'
p5868
aS'from'
p5869
aS'the'
p5870
aS'garden'
p5871
aS'to'
p5872
aS'the'
p5873
aS'bedroom'
p5874
asI535
(lp5875
S'How'
p5876
aS'do'
p5877
aS'you'
p5878
aS'go'
p5879
aS'from'
p5880
aS'the'
p5881
aS'office'
p5882
aS'to'
p5883
aS'the'
p5884
aS'bathroom'
p5885
asI536
(lp5886
S'How'
p5887
aS'do'
p5888
aS'you'
p5889
aS'go'
p5890
aS'from'
p5891
aS'the'
p5892
aS'bathroom'
p5893
aS'to'
p5894
aS'the'
p5895
aS'kitchen'
p5896
asI537
(lp5897
S'How'
p5898
aS'do'
p5899
aS'you'
p5900
aS'go'
p5901
aS'from'
p5902
aS'the'
p5903
aS'office'
p5904
aS'to'
p5905
aS'the'
p5906
aS'bedroom'
p5907
asI538
(lp5908
S'How'
p5909
aS'do'
p5910
aS'you'
p5911
aS'go'
p5912
aS'from'
p5913
aS'the'
p5914
aS'garden'
p5915
aS'to'
p5916
aS'the'
p5917
aS'office'
p5918
asI539
(lp5919
S'How'
p5920
aS'do'
p5921
aS'you'
p5922
aS'go'
p5923
aS'from'
p5924
aS'the'
p5925
aS'garden'
p5926
aS'to'
p5927
aS'the'
p5928
aS'bathroom'
p5929
asI540
(lp5930
S'How'
p5931
aS'do'
p5932
aS'you'
p5933
aS'go'
p5934
aS'from'
p5935
aS'the'
p5936
aS'bathroom'
p5937
aS'to'
p5938
aS'the'
p5939
aS'hallway'
p5940
asI541
(lp5941
S'How'
p5942
aS'do'
p5943
aS'you'
p5944
aS'go'
p5945
aS'from'
p5946
aS'the'
p5947
aS'office'
p5948
aS'to'
p5949
aS'the'
p5950
aS'garden'
p5951
asI542
(lp5952
S'How'
p5953
aS'do'
p5954
aS'you'
p5955
aS'go'
p5956
aS'from'
p5957
aS'the'
p5958
aS'garden'
p5959
aS'to'
p5960
aS'the'
p5961
aS'hallway'
p5962
asI543
(lp5963
S'How'
p5964
aS'do'
p5965
aS'you'
p5966
aS'go'
p5967
aS'from'
p5968
aS'the'
p5969
aS'kitchen'
p5970
aS'to'
p5971
aS'the'
p5972
aS'hallway'
p5973
asI544
(lp5974
S'How'
p5975
aS'do'
p5976
aS'you'
p5977
aS'go'
p5978
aS'from'
p5979
aS'the'
p5980
aS'bedroom'
p5981
aS'to'
p5982
aS'the'
p5983
aS'kitchen'
p5984
asI545
(lp5985
S'How'
p5986
aS'do'
p5987
aS'you'
p5988
aS'go'
p5989
aS'from'
p5990
aS'the'
p5991
aS'bedroom'
p5992
aS'to'
p5993
aS'the'
p5994
aS'hallway'
p5995
asI546
(lp5996
S'How'
p5997
aS'do'
p5998
aS'you'
p5999
aS'go'
p6000
aS'from'
p6001
aS'the'
p6002
aS'hallway'
p6003
aS'to'
p6004
aS'the'
p6005
aS'bedroom'
p6006
asI547
(lp6007
S'How'
p6008
aS'do'
p6009
aS'you'
p6010
aS'go'
p6011
aS'from'
p6012
aS'the'
p6013
aS'bathroom'
p6014
aS'to'
p6015
aS'the'
p6016
aS'garden'
p6017
asI548
(lp6018
S'How'
p6019
aS'do'
p6020
aS'you'
p6021
aS'go'
p6022
aS'from'
p6023
aS'the'
p6024
aS'office'
p6025
aS'to'
p6026
aS'the'
p6027
aS'bedroom'
p6028
asI549
(lp6029
S'How'
p6030
aS'do'
p6031
aS'you'
p6032
aS'go'
p6033
aS'from'
p6034
aS'the'
p6035
aS'bathroom'
p6036
aS'to'
p6037
aS'the'
p6038
aS'kitchen'
p6039
asI550
(lp6040
S'How'
p6041
aS'do'
p6042
aS'you'
p6043
aS'go'
p6044
aS'from'
p6045
aS'the'
p6046
aS'kitchen'
p6047
aS'to'
p6048
aS'the'
p6049
aS'bathroom'
p6050
asI551
(lp6051
S'How'
p6052
aS'do'
p6053
aS'you'
p6054
aS'go'
p6055
aS'from'
p6056
aS'the'
p6057
aS'garden'
p6058
aS'to'
p6059
aS'the'
p6060
aS'bedroom'
p6061
asI552
(lp6062
S'How'
p6063
aS'do'
p6064
aS'you'
p6065
aS'go'
p6066
aS'from'
p6067
aS'the'
p6068
aS'bedroom'
p6069
aS'to'
p6070
aS'the'
p6071
aS'office'
p6072
asI553
(lp6073
S'How'
p6074
aS'do'
p6075
aS'you'
p6076
aS'go'
p6077
aS'from'
p6078
aS'the'
p6079
aS'bedroom'
p6080
aS'to'
p6081
aS'the'
p6082
aS'hallway'
p6083
asI554
(lp6084
S'How'
p6085
aS'do'
p6086
aS'you'
p6087
aS'go'
p6088
aS'from'
p6089
aS'the'
p6090
aS'hallway'
p6091
aS'to'
p6092
aS'the'
p6093
aS'bedroom'
p6094
asI555
(lp6095
S'How'
p6096
aS'do'
p6097
aS'you'
p6098
aS'go'
p6099
aS'from'
p6100
aS'the'
p6101
aS'office'
p6102
aS'to'
p6103
aS'the'
p6104
aS'garden'
p6105
asI556
(lp6106
S'How'
p6107
aS'do'
p6108
aS'you'
p6109
aS'go'
p6110
aS'from'
p6111
aS'the'
p6112
aS'garden'
p6113
aS'to'
p6114
aS'the'
p6115
aS'office'
p6116
asI557
(lp6117
S'How'
p6118
aS'do'
p6119
aS'you'
p6120
aS'go'
p6121
aS'from'
p6122
aS'the'
p6123
aS'office'
p6124
aS'to'
p6125
aS'the'
p6126
aS'hallway'
p6127
asI558
(lp6128
S'How'
p6129
aS'do'
p6130
aS'you'
p6131
aS'go'
p6132
aS'from'
p6133
aS'the'
p6134
aS'bathroom'
p6135
aS'to'
p6136
aS'the'
p6137
aS'office'
p6138
asI559
(lp6139
S'How'
p6140
aS'do'
p6141
aS'you'
p6142
aS'go'
p6143
aS'from'
p6144
aS'the'
p6145
aS'bathroom'
p6146
aS'to'
p6147
aS'the'
p6148
aS'garden'
p6149
asI560
(lp6150
S'How'
p6151
aS'do'
p6152
aS'you'
p6153
aS'go'
p6154
aS'from'
p6155
aS'the'
p6156
aS'bathroom'
p6157
aS'to'
p6158
aS'the'
p6159
aS'garden'
p6160
asI561
(lp6161
S'How'
p6162
aS'do'
p6163
aS'you'
p6164
aS'go'
p6165
aS'from'
p6166
aS'the'
p6167
aS'garden'
p6168
aS'to'
p6169
aS'the'
p6170
aS'kitchen'
p6171
asI562
(lp6172
S'How'
p6173
aS'do'
p6174
aS'you'
p6175
aS'go'
p6176
aS'from'
p6177
aS'the'
p6178
aS'kitchen'
p6179
aS'to'
p6180
aS'the'
p6181
aS'garden'
p6182
asI563
(lp6183
S'How'
p6184
aS'do'
p6185
aS'you'
p6186
aS'go'
p6187
aS'from'
p6188
aS'the'
p6189
aS'bedroom'
p6190
aS'to'
p6191
aS'the'
p6192
aS'bathroom'
p6193
asI564
(lp6194
S'How'
p6195
aS'do'
p6196
aS'you'
p6197
aS'go'
p6198
aS'from'
p6199
aS'the'
p6200
aS'bedroom'
p6201
aS'to'
p6202
aS'the'
p6203
aS'kitchen'
p6204
asI565
(lp6205
S'How'
p6206
aS'do'
p6207
aS'you'
p6208
aS'go'
p6209
aS'from'
p6210
aS'the'
p6211
aS'bedroom'
p6212
aS'to'
p6213
aS'the'
p6214
aS'bathroom'
p6215
asI566
(lp6216
S'How'
p6217
aS'do'
p6218
aS'you'
p6219
aS'go'
p6220
aS'from'
p6221
aS'the'
p6222
aS'bathroom'
p6223
aS'to'
p6224
aS'the'
p6225
aS'office'
p6226
asI567
(lp6227
S'How'
p6228
aS'do'
p6229
aS'you'
p6230
aS'go'
p6231
aS'from'
p6232
aS'the'
p6233
aS'hallway'
p6234
aS'to'
p6235
aS'the'
p6236
aS'garden'
p6237
asI568
(lp6238
S'How'
p6239
aS'do'
p6240
aS'you'
p6241
aS'go'
p6242
aS'from'
p6243
aS'the'
p6244
aS'bedroom'
p6245
aS'to'
p6246
aS'the'
p6247
aS'hallway'
p6248
asI569
(lp6249
S'How'
p6250
aS'do'
p6251
aS'you'
p6252
aS'go'
p6253
aS'from'
p6254
aS'the'
p6255
aS'hallway'
p6256
aS'to'
p6257
aS'the'
p6258
aS'office'
p6259
asI570
(lp6260
S'How'
p6261
aS'do'
p6262
aS'you'
p6263
aS'go'
p6264
aS'from'
p6265
aS'the'
p6266
aS'kitchen'
p6267
aS'to'
p6268
aS'the'
p6269
aS'hallway'
p6270
asI571
(lp6271
S'How'
p6272
aS'do'
p6273
aS'you'
p6274
aS'go'
p6275
aS'from'
p6276
aS'the'
p6277
aS'kitchen'
p6278
aS'to'
p6279
aS'the'
p6280
aS'garden'
p6281
asI572
(lp6282
S'How'
p6283
aS'do'
p6284
aS'you'
p6285
aS'go'
p6286
aS'from'
p6287
aS'the'
p6288
aS'bathroom'
p6289
aS'to'
p6290
aS'the'
p6291
aS'hallway'
p6292
asI573
(lp6293
S'How'
p6294
aS'do'
p6295
aS'you'
p6296
aS'go'
p6297
aS'from'
p6298
aS'the'
p6299
aS'bedroom'
p6300
aS'to'
p6301
aS'the'
p6302
aS'garden'
p6303
asI574
(lp6304
S'How'
p6305
aS'do'
p6306
aS'you'
p6307
aS'go'
p6308
aS'from'
p6309
aS'the'
p6310
aS'garden'
p6311
aS'to'
p6312
aS'the'
p6313
aS'hallway'
p6314
asI575
(lp6315
S'How'
p6316
aS'do'
p6317
aS'you'
p6318
aS'go'
p6319
aS'from'
p6320
aS'the'
p6321
aS'hallway'
p6322
aS'to'
p6323
aS'the'
p6324
aS'bathroom'
p6325
asI576
(lp6326
S'How'
p6327
aS'do'
p6328
aS'you'
p6329
aS'go'
p6330
aS'from'
p6331
aS'the'
p6332
aS'hallway'
p6333
aS'to'
p6334
aS'the'
p6335
aS'garden'
p6336
asI577
(lp6337
S'How'
p6338
aS'do'
p6339
aS'you'
p6340
aS'go'
p6341
aS'from'
p6342
aS'the'
p6343
aS'bedroom'
p6344
aS'to'
p6345
aS'the'
p6346
aS'kitchen'
p6347
asI578
(lp6348
S'How'
p6349
aS'do'
p6350
aS'you'
p6351
aS'go'
p6352
aS'from'
p6353
aS'the'
p6354
aS'bathroom'
p6355
aS'to'
p6356
aS'the'
p6357
aS'bedroom'
p6358
asI579
(lp6359
S'How'
p6360
aS'do'
p6361
aS'you'
p6362
aS'go'
p6363
aS'from'
p6364
aS'the'
p6365
aS'hallway'
p6366
aS'to'
p6367
aS'the'
p6368
aS'bathroom'
p6369
asI580
(lp6370
S'How'
p6371
aS'do'
p6372
aS'you'
p6373
aS'go'
p6374
aS'from'
p6375
aS'the'
p6376
aS'bedroom'
p6377
aS'to'
p6378
aS'the'
p6379
aS'kitchen'
p6380
asI581
(lp6381
S'How'
p6382
aS'do'
p6383
aS'you'
p6384
aS'go'
p6385
aS'from'
p6386
aS'the'
p6387
aS'office'
p6388
aS'to'
p6389
aS'the'
p6390
aS'bedroom'
p6391
asI582
(lp6392
S'How'
p6393
aS'do'
p6394
aS'you'
p6395
aS'go'
p6396
aS'from'
p6397
aS'the'
p6398
aS'office'
p6399
aS'to'
p6400
aS'the'
p6401
aS'garden'
p6402
asI583
(lp6403
S'How'
p6404
aS'do'
p6405
aS'you'
p6406
aS'go'
p6407
aS'from'
p6408
aS'the'
p6409
aS'office'
p6410
aS'to'
p6411
aS'the'
p6412
aS'kitchen'
p6413
asI584
(lp6414
S'How'
p6415
aS'do'
p6416
aS'you'
p6417
aS'go'
p6418
aS'from'
p6419
aS'the'
p6420
aS'hallway'
p6421
aS'to'
p6422
aS'the'
p6423
aS'garden'
p6424
asI585
(lp6425
S'How'
p6426
aS'do'
p6427
aS'you'
p6428
aS'go'
p6429
aS'from'
p6430
aS'the'
p6431
aS'bathroom'
p6432
aS'to'
p6433
aS'the'
p6434
aS'hallway'
p6435
asI586
(lp6436
S'How'
p6437
aS'do'
p6438
aS'you'
p6439
aS'go'
p6440
aS'from'
p6441
aS'the'
p6442
aS'garden'
p6443
aS'to'
p6444
aS'the'
p6445
aS'hallway'
p6446
asI587
(lp6447
S'How'
p6448
aS'do'
p6449
aS'you'
p6450
aS'go'
p6451
aS'from'
p6452
aS'the'
p6453
aS'hallway'
p6454
aS'to'
p6455
aS'the'
p6456
aS'office'
p6457
asI588
(lp6458
S'How'
p6459
aS'do'
p6460
aS'you'
p6461
aS'go'
p6462
aS'from'
p6463
aS'the'
p6464
aS'office'
p6465
aS'to'
p6466
aS'the'
p6467
aS'bathroom'
p6468
asI589
(lp6469
S'How'
p6470
aS'do'
p6471
aS'you'
p6472
aS'go'
p6473
aS'from'
p6474
aS'the'
p6475
aS'office'
p6476
aS'to'
p6477
aS'the'
p6478
aS'bathroom'
p6479
asI590
(lp6480
S'How'
p6481
aS'do'
p6482
aS'you'
p6483
aS'go'
p6484
aS'from'
p6485
aS'the'
p6486
aS'office'
p6487
aS'to'
p6488
aS'the'
p6489
aS'kitchen'
p6490
asI591
(lp6491
S'How'
p6492
aS'do'
p6493
aS'you'
p6494
aS'go'
p6495
aS'from'
p6496
aS'the'
p6497
aS'bathroom'
p6498
aS'to'
p6499
aS'the'
p6500
aS'kitchen'
p6501
asI592
(lp6502
S'How'
p6503
aS'do'
p6504
aS'you'
p6505
aS'go'
p6506
aS'from'
p6507
aS'the'
p6508
aS'garden'
p6509
aS'to'
p6510
aS'the'
p6511
aS'hallway'
p6512
asI593
(lp6513
S'How'
p6514
aS'do'
p6515
aS'you'
p6516
aS'go'
p6517
aS'from'
p6518
aS'the'
p6519
aS'kitchen'
p6520
aS'to'
p6521
aS'the'
p6522
aS'bedroom'
p6523
asI594
(lp6524
S'How'
p6525
aS'do'
p6526
aS'you'
p6527
aS'go'
p6528
aS'from'
p6529
aS'the'
p6530
aS'office'
p6531
aS'to'
p6532
aS'the'
p6533
aS'bedroom'
p6534
asI595
(lp6535
S'How'
p6536
aS'do'
p6537
aS'you'
p6538
aS'go'
p6539
aS'from'
p6540
aS'the'
p6541
aS'bedroom'
p6542
aS'to'
p6543
aS'the'
p6544
aS'hallway'
p6545
asI596
(lp6546
S'How'
p6547
aS'do'
p6548
aS'you'
p6549
aS'go'
p6550
aS'from'
p6551
aS'the'
p6552
aS'bathroom'
p6553
aS'to'
p6554
aS'the'
p6555
aS'kitchen'
p6556
asI597
(lp6557
S'How'
p6558
aS'do'
p6559
aS'you'
p6560
aS'go'
p6561
aS'from'
p6562
aS'the'
p6563
aS'garden'
p6564
aS'to'
p6565
aS'the'
p6566
aS'bathroom'
p6567
asI598
(lp6568
S'How'
p6569
aS'do'
p6570
aS'you'
p6571
aS'go'
p6572
aS'from'
p6573
aS'the'
p6574
aS'garden'
p6575
aS'to'
p6576
aS'the'
p6577
aS'bathroom'
p6578
asI599
(lp6579
S'How'
p6580
aS'do'
p6581
aS'you'
p6582
aS'go'
p6583
aS'from'
p6584
aS'the'
p6585
aS'garden'
p6586
aS'to'
p6587
aS'the'
p6588
aS'office'
p6589
asI600
(lp6590
S'How'
p6591
aS'do'
p6592
aS'you'
p6593
aS'go'
p6594
aS'from'
p6595
aS'the'
p6596
aS'garden'
p6597
aS'to'
p6598
aS'the'
p6599
aS'bathroom'
p6600
asI601
(lp6601
S'How'
p6602
aS'do'
p6603
aS'you'
p6604
aS'go'
p6605
aS'from'
p6606
aS'the'
p6607
aS'kitchen'
p6608
aS'to'
p6609
aS'the'
p6610
aS'garden'
p6611
asI602
(lp6612
S'How'
p6613
aS'do'
p6614
aS'you'
p6615
aS'go'
p6616
aS'from'
p6617
aS'the'
p6618
aS'garden'
p6619
aS'to'
p6620
aS'the'
p6621
aS'bedroom'
p6622
asI603
(lp6623
S'How'
p6624
aS'do'
p6625
aS'you'
p6626
aS'go'
p6627
aS'from'
p6628
aS'the'
p6629
aS'bathroom'
p6630
aS'to'
p6631
aS'the'
p6632
aS'kitchen'
p6633
asI604
(lp6634
S'How'
p6635
aS'do'
p6636
aS'you'
p6637
aS'go'
p6638
aS'from'
p6639
aS'the'
p6640
aS'bedroom'
p6641
aS'to'
p6642
aS'the'
p6643
aS'hallway'
p6644
asI605
(lp6645
S'How'
p6646
aS'do'
p6647
aS'you'
p6648
aS'go'
p6649
aS'from'
p6650
aS'the'
p6651
aS'bedroom'
p6652
aS'to'
p6653
aS'the'
p6654
aS'hallway'
p6655
asI606
(lp6656
S'How'
p6657
aS'do'
p6658
aS'you'
p6659
aS'go'
p6660
aS'from'
p6661
aS'the'
p6662
aS'office'
p6663
aS'to'
p6664
aS'the'
p6665
aS'kitchen'
p6666
asI607
(lp6667
S'How'
p6668
aS'do'
p6669
aS'you'
p6670
aS'go'
p6671
aS'from'
p6672
aS'the'
p6673
aS'bedroom'
p6674
aS'to'
p6675
aS'the'
p6676
aS'bathroom'
p6677
asI608
(lp6678
S'How'
p6679
aS'do'
p6680
aS'you'
p6681
aS'go'
p6682
aS'from'
p6683
aS'the'
p6684
aS'kitchen'
p6685
aS'to'
p6686
aS'the'
p6687
aS'garden'
p6688
asI609
(lp6689
S'How'
p6690
aS'do'
p6691
aS'you'
p6692
aS'go'
p6693
aS'from'
p6694
aS'the'
p6695
aS'bathroom'
p6696
aS'to'
p6697
aS'the'
p6698
aS'garden'
p6699
asI610
(lp6700
S'How'
p6701
aS'do'
p6702
aS'you'
p6703
aS'go'
p6704
aS'from'
p6705
aS'the'
p6706
aS'garden'
p6707
aS'to'
p6708
aS'the'
p6709
aS'bedroom'
p6710
asI611
(lp6711
S'How'
p6712
aS'do'
p6713
aS'you'
p6714
aS'go'
p6715
aS'from'
p6716
aS'the'
p6717
aS'kitchen'
p6718
aS'to'
p6719
aS'the'
p6720
aS'office'
p6721
asI612
(lp6722
S'How'
p6723
aS'do'
p6724
aS'you'
p6725
aS'go'
p6726
aS'from'
p6727
aS'the'
p6728
aS'office'
p6729
aS'to'
p6730
aS'the'
p6731
aS'kitchen'
p6732
asI613
(lp6733
S'How'
p6734
aS'do'
p6735
aS'you'
p6736
aS'go'
p6737
aS'from'
p6738
aS'the'
p6739
aS'garden'
p6740
aS'to'
p6741
aS'the'
p6742
aS'office'
p6743
asI614
(lp6744
S'How'
p6745
aS'do'
p6746
aS'you'
p6747
aS'go'
p6748
aS'from'
p6749
aS'the'
p6750
aS'hallway'
p6751
aS'to'
p6752
aS'the'
p6753
aS'garden'
p6754
asI615
(lp6755
S'How'
p6756
aS'do'
p6757
aS'you'
p6758
aS'go'
p6759
aS'from'
p6760
aS'the'
p6761
aS'bathroom'
p6762
aS'to'
p6763
aS'the'
p6764
aS'office'
p6765
asI616
(lp6766
S'How'
p6767
aS'do'
p6768
aS'you'
p6769
aS'go'
p6770
aS'from'
p6771
aS'the'
p6772
aS'bathroom'
p6773
aS'to'
p6774
aS'the'
p6775
aS'kitchen'
p6776
asI617
(lp6777
S'How'
p6778
aS'do'
p6779
aS'you'
p6780
aS'go'
p6781
aS'from'
p6782
aS'the'
p6783
aS'bathroom'
p6784
aS'to'
p6785
aS'the'
p6786
aS'office'
p6787
asI618
(lp6788
S'How'
p6789
aS'do'
p6790
aS'you'
p6791
aS'go'
p6792
aS'from'
p6793
aS'the'
p6794
aS'hallway'
p6795
aS'to'
p6796
aS'the'
p6797
aS'garden'
p6798
asI619
(lp6799
S'How'
p6800
aS'do'
p6801
aS'you'
p6802
aS'go'
p6803
aS'from'
p6804
aS'the'
p6805
aS'bedroom'
p6806
aS'to'
p6807
aS'the'
p6808
aS'hallway'
p6809
asI620
(lp6810
S'How'
p6811
aS'do'
p6812
aS'you'
p6813
aS'go'
p6814
aS'from'
p6815
aS'the'
p6816
aS'bathroom'
p6817
aS'to'
p6818
aS'the'
p6819
aS'bedroom'
p6820
asI621
(lp6821
S'How'
p6822
aS'do'
p6823
aS'you'
p6824
aS'go'
p6825
aS'from'
p6826
aS'the'
p6827
aS'bathroom'
p6828
aS'to'
p6829
aS'the'
p6830
aS'bedroom'
p6831
asI622
(lp6832
S'How'
p6833
aS'do'
p6834
aS'you'
p6835
aS'go'
p6836
aS'from'
p6837
aS'the'
p6838
aS'garden'
p6839
aS'to'
p6840
aS'the'
p6841
aS'bathroom'
p6842
asI623
(lp6843
S'How'
p6844
aS'do'
p6845
aS'you'
p6846
aS'go'
p6847
aS'from'
p6848
aS'the'
p6849
aS'bedroom'
p6850
aS'to'
p6851
aS'the'
p6852
aS'garden'
p6853
asI624
(lp6854
S'How'
p6855
aS'do'
p6856
aS'you'
p6857
aS'go'
p6858
aS'from'
p6859
aS'the'
p6860
aS'office'
p6861
aS'to'
p6862
aS'the'
p6863
aS'bathroom'
p6864
asI625
(lp6865
S'How'
p6866
aS'do'
p6867
aS'you'
p6868
aS'go'
p6869
aS'from'
p6870
aS'the'
p6871
aS'office'
p6872
aS'to'
p6873
aS'the'
p6874
aS'bathroom'
p6875
asI626
(lp6876
S'How'
p6877
aS'do'
p6878
aS'you'
p6879
aS'go'
p6880
aS'from'
p6881
aS'the'
p6882
aS'kitchen'
p6883
aS'to'
p6884
aS'the'
p6885
aS'garden'
p6886
asI627
(lp6887
S'How'
p6888
aS'do'
p6889
aS'you'
p6890
aS'go'
p6891
aS'from'
p6892
aS'the'
p6893
aS'kitchen'
p6894
aS'to'
p6895
aS'the'
p6896
aS'garden'
p6897
asI628
(lp6898
S'How'
p6899
aS'do'
p6900
aS'you'
p6901
aS'go'
p6902
aS'from'
p6903
aS'the'
p6904
aS'garden'
p6905
aS'to'
p6906
aS'the'
p6907
aS'hallway'
p6908
asI629
(lp6909
S'How'
p6910
aS'do'
p6911
aS'you'
p6912
aS'go'
p6913
aS'from'
p6914
aS'the'
p6915
aS'bathroom'
p6916
aS'to'
p6917
aS'the'
p6918
aS'kitchen'
p6919
asI630
(lp6920
S'How'
p6921
aS'do'
p6922
aS'you'
p6923
aS'go'
p6924
aS'from'
p6925
aS'the'
p6926
aS'bedroom'
p6927
aS'to'
p6928
aS'the'
p6929
aS'garden'
p6930
asI631
(lp6931
S'How'
p6932
aS'do'
p6933
aS'you'
p6934
aS'go'
p6935
aS'from'
p6936
aS'the'
p6937
aS'kitchen'
p6938
aS'to'
p6939
aS'the'
p6940
aS'bedroom'
p6941
asI632
(lp6942
S'How'
p6943
aS'do'
p6944
aS'you'
p6945
aS'go'
p6946
aS'from'
p6947
aS'the'
p6948
aS'garden'
p6949
aS'to'
p6950
aS'the'
p6951
aS'kitchen'
p6952
asI633
(lp6953
S'How'
p6954
aS'do'
p6955
aS'you'
p6956
aS'go'
p6957
aS'from'
p6958
aS'the'
p6959
aS'garden'
p6960
aS'to'
p6961
aS'the'
p6962
aS'hallway'
p6963
asI634
(lp6964
S'How'
p6965
aS'do'
p6966
aS'you'
p6967
aS'go'
p6968
aS'from'
p6969
aS'the'
p6970
aS'bedroom'
p6971
aS'to'
p6972
aS'the'
p6973
aS'garden'
p6974
asI635
(lp6975
S'How'
p6976
aS'do'
p6977
aS'you'
p6978
aS'go'
p6979
aS'from'
p6980
aS'the'
p6981
aS'bathroom'
p6982
aS'to'
p6983
aS'the'
p6984
aS'bedroom'
p6985
asI636
(lp6986
S'How'
p6987
aS'do'
p6988
aS'you'
p6989
aS'go'
p6990
aS'from'
p6991
aS'the'
p6992
aS'office'
p6993
aS'to'
p6994
aS'the'
p6995
aS'bedroom'
p6996
asI637
(lp6997
S'How'
p6998
aS'do'
p6999
aS'you'
p7000
aS'go'
p7001
aS'from'
p7002
aS'the'
p7003
aS'bedroom'
p7004
aS'to'
p7005
aS'the'
p7006
aS'kitchen'
p7007
asI638
(lp7008
S'How'
p7009
aS'do'
p7010
aS'you'
p7011
aS'go'
p7012
aS'from'
p7013
aS'the'
p7014
aS'office'
p7015
aS'to'
p7016
aS'the'
p7017
aS'bedroom'
p7018
asI639
(lp7019
S'How'
p7020
aS'do'
p7021
aS'you'
p7022
aS'go'
p7023
aS'from'
p7024
aS'the'
p7025
aS'office'
p7026
aS'to'
p7027
aS'the'
p7028
aS'kitchen'
p7029
asI640
(lp7030
S'How'
p7031
aS'do'
p7032
aS'you'
p7033
aS'go'
p7034
aS'from'
p7035
aS'the'
p7036
aS'kitchen'
p7037
aS'to'
p7038
aS'the'
p7039
aS'bathroom'
p7040
asI641
(lp7041
S'How'
p7042
aS'do'
p7043
aS'you'
p7044
aS'go'
p7045
aS'from'
p7046
aS'the'
p7047
aS'garden'
p7048
aS'to'
p7049
aS'the'
p7050
aS'office'
p7051
asI642
(lp7052
S'How'
p7053
aS'do'
p7054
aS'you'
p7055
aS'go'
p7056
aS'from'
p7057
aS'the'
p7058
aS'garden'
p7059
aS'to'
p7060
aS'the'
p7061
aS'kitchen'
p7062
asI643
(lp7063
S'How'
p7064
aS'do'
p7065
aS'you'
p7066
aS'go'
p7067
aS'from'
p7068
aS'the'
p7069
aS'garden'
p7070
aS'to'
p7071
aS'the'
p7072
aS'office'
p7073
asI644
(lp7074
S'How'
p7075
aS'do'
p7076
aS'you'
p7077
aS'go'
p7078
aS'from'
p7079
aS'the'
p7080
aS'kitchen'
p7081
aS'to'
p7082
aS'the'
p7083
aS'bathroom'
p7084
asI645
(lp7085
S'How'
p7086
aS'do'
p7087
aS'you'
p7088
aS'go'
p7089
aS'from'
p7090
aS'the'
p7091
aS'bedroom'
p7092
aS'to'
p7093
aS'the'
p7094
aS'hallway'
p7095
asI646
(lp7096
S'How'
p7097
aS'do'
p7098
aS'you'
p7099
aS'go'
p7100
aS'from'
p7101
aS'the'
p7102
aS'hallway'
p7103
aS'to'
p7104
aS'the'
p7105
aS'bathroom'
p7106
asI647
(lp7107
S'How'
p7108
aS'do'
p7109
aS'you'
p7110
aS'go'
p7111
aS'from'
p7112
aS'the'
p7113
aS'bathroom'
p7114
aS'to'
p7115
aS'the'
p7116
aS'bedroom'
p7117
asI648
(lp7118
S'How'
p7119
aS'do'
p7120
aS'you'
p7121
aS'go'
p7122
aS'from'
p7123
aS'the'
p7124
aS'bathroom'
p7125
aS'to'
p7126
aS'the'
p7127
aS'hallway'
p7128
asI649
(lp7129
S'How'
p7130
aS'do'
p7131
aS'you'
p7132
aS'go'
p7133
aS'from'
p7134
aS'the'
p7135
aS'bathroom'
p7136
aS'to'
p7137
aS'the'
p7138
aS'garden'
p7139
asI650
(lp7140
S'How'
p7141
aS'do'
p7142
aS'you'
p7143
aS'go'
p7144
aS'from'
p7145
aS'the'
p7146
aS'bedroom'
p7147
aS'to'
p7148
aS'the'
p7149
aS'office'
p7150
asI651
(lp7151
S'How'
p7152
aS'do'
p7153
aS'you'
p7154
aS'go'
p7155
aS'from'
p7156
aS'the'
p7157
aS'bathroom'
p7158
aS'to'
p7159
aS'the'
p7160
aS'garden'
p7161
asI652
(lp7162
S'How'
p7163
aS'do'
p7164
aS'you'
p7165
aS'go'
p7166
aS'from'
p7167
aS'the'
p7168
aS'bedroom'
p7169
aS'to'
p7170
aS'the'
p7171
aS'office'
p7172
asI653
(lp7173
S'How'
p7174
aS'do'
p7175
aS'you'
p7176
aS'go'
p7177
aS'from'
p7178
aS'the'
p7179
aS'bathroom'
p7180
aS'to'
p7181
aS'the'
p7182
aS'office'
p7183
asI654
(lp7184
S'How'
p7185
aS'do'
p7186
aS'you'
p7187
aS'go'
p7188
aS'from'
p7189
aS'the'
p7190
aS'kitchen'
p7191
aS'to'
p7192
aS'the'
p7193
aS'bathroom'
p7194
asI655
(lp7195
S'How'
p7196
aS'do'
p7197
aS'you'
p7198
aS'go'
p7199
aS'from'
p7200
aS'the'
p7201
aS'hallway'
p7202
aS'to'
p7203
aS'the'
p7204
aS'bedroom'
p7205
asI656
(lp7206
S'How'
p7207
aS'do'
p7208
aS'you'
p7209
aS'go'
p7210
aS'from'
p7211
aS'the'
p7212
aS'bathroom'
p7213
aS'to'
p7214
aS'the'
p7215
aS'hallway'
p7216
asI657
(lp7217
S'How'
p7218
aS'do'
p7219
aS'you'
p7220
aS'go'
p7221
aS'from'
p7222
aS'the'
p7223
aS'bedroom'
p7224
aS'to'
p7225
aS'the'
p7226
aS'bathroom'
p7227
asI658
(lp7228
S'How'
p7229
aS'do'
p7230
aS'you'
p7231
aS'go'
p7232
aS'from'
p7233
aS'the'
p7234
aS'bathroom'
p7235
aS'to'
p7236
aS'the'
p7237
aS'garden'
p7238
asI659
(lp7239
S'How'
p7240
aS'do'
p7241
aS'you'
p7242
aS'go'
p7243
aS'from'
p7244
aS'the'
p7245
aS'hallway'
p7246
aS'to'
p7247
aS'the'
p7248
aS'bathroom'
p7249
asI660
(lp7250
S'How'
p7251
aS'do'
p7252
aS'you'
p7253
aS'go'
p7254
aS'from'
p7255
aS'the'
p7256
aS'office'
p7257
aS'to'
p7258
aS'the'
p7259
aS'garden'
p7260
asI661
(lp7261
S'How'
p7262
aS'do'
p7263
aS'you'
p7264
aS'go'
p7265
aS'from'
p7266
aS'the'
p7267
aS'bathroom'
p7268
aS'to'
p7269
aS'the'
p7270
aS'bedroom'
p7271
asI662
(lp7272
S'How'
p7273
aS'do'
p7274
aS'you'
p7275
aS'go'
p7276
aS'from'
p7277
aS'the'
p7278
aS'bedroom'
p7279
aS'to'
p7280
aS'the'
p7281
aS'office'
p7282
asI663
(lp7283
S'How'
p7284
aS'do'
p7285
aS'you'
p7286
aS'go'
p7287
aS'from'
p7288
aS'the'
p7289
aS'bedroom'
p7290
aS'to'
p7291
aS'the'
p7292
aS'kitchen'
p7293
asI664
(lp7294
S'How'
p7295
aS'do'
p7296
aS'you'
p7297
aS'go'
p7298
aS'from'
p7299
aS'the'
p7300
aS'kitchen'
p7301
aS'to'
p7302
aS'the'
p7303
aS'hallway'
p7304
asI665
(lp7305
S'How'
p7306
aS'do'
p7307
aS'you'
p7308
aS'go'
p7309
aS'from'
p7310
aS'the'
p7311
aS'hallway'
p7312
aS'to'
p7313
aS'the'
p7314
aS'bedroom'
p7315
asI666
(lp7316
S'How'
p7317
aS'do'
p7318
aS'you'
p7319
aS'go'
p7320
aS'from'
p7321
aS'the'
p7322
aS'kitchen'
p7323
aS'to'
p7324
aS'the'
p7325
aS'hallway'
p7326
asI667
(lp7327
S'How'
p7328
aS'do'
p7329
aS'you'
p7330
aS'go'
p7331
aS'from'
p7332
aS'the'
p7333
aS'bathroom'
p7334
aS'to'
p7335
aS'the'
p7336
aS'hallway'
p7337
asI668
(lp7338
S'How'
p7339
aS'do'
p7340
aS'you'
p7341
aS'go'
p7342
aS'from'
p7343
aS'the'
p7344
aS'bathroom'
p7345
aS'to'
p7346
aS'the'
p7347
aS'kitchen'
p7348
asI669
(lp7349
S'How'
p7350
aS'do'
p7351
aS'you'
p7352
aS'go'
p7353
aS'from'
p7354
aS'the'
p7355
aS'bathroom'
p7356
aS'to'
p7357
aS'the'
p7358
aS'hallway'
p7359
asI670
(lp7360
S'How'
p7361
aS'do'
p7362
aS'you'
p7363
aS'go'
p7364
aS'from'
p7365
aS'the'
p7366
aS'bedroom'
p7367
aS'to'
p7368
aS'the'
p7369
aS'hallway'
p7370
asI671
(lp7371
S'How'
p7372
aS'do'
p7373
aS'you'
p7374
aS'go'
p7375
aS'from'
p7376
aS'the'
p7377
aS'bathroom'
p7378
aS'to'
p7379
aS'the'
p7380
aS'office'
p7381
asI672
(lp7382
S'How'
p7383
aS'do'
p7384
aS'you'
p7385
aS'go'
p7386
aS'from'
p7387
aS'the'
p7388
aS'bathroom'
p7389
aS'to'
p7390
aS'the'
p7391
aS'kitchen'
p7392
asI673
(lp7393
S'How'
p7394
aS'do'
p7395
aS'you'
p7396
aS'go'
p7397
aS'from'
p7398
aS'the'
p7399
aS'bathroom'
p7400
aS'to'
p7401
aS'the'
p7402
aS'garden'
p7403
asI674
(lp7404
S'How'
p7405
aS'do'
p7406
aS'you'
p7407
aS'go'
p7408
aS'from'
p7409
aS'the'
p7410
aS'office'
p7411
aS'to'
p7412
aS'the'
p7413
aS'hallway'
p7414
asI675
(lp7415
S'How'
p7416
aS'do'
p7417
aS'you'
p7418
aS'go'
p7419
aS'from'
p7420
aS'the'
p7421
aS'garden'
p7422
aS'to'
p7423
aS'the'
p7424
aS'hallway'
p7425
asI676
(lp7426
S'How'
p7427
aS'do'
p7428
aS'you'
p7429
aS'go'
p7430
aS'from'
p7431
aS'the'
p7432
aS'office'
p7433
aS'to'
p7434
aS'the'
p7435
aS'bedroom'
p7436
asI677
(lp7437
S'How'
p7438
aS'do'
p7439
aS'you'
p7440
aS'go'
p7441
aS'from'
p7442
aS'the'
p7443
aS'hallway'
p7444
aS'to'
p7445
aS'the'
p7446
aS'garden'
p7447
asI678
(lp7448
S'How'
p7449
aS'do'
p7450
aS'you'
p7451
aS'go'
p7452
aS'from'
p7453
aS'the'
p7454
aS'bathroom'
p7455
aS'to'
p7456
aS'the'
p7457
aS'garden'
p7458
asI679
(lp7459
S'How'
p7460
aS'do'
p7461
aS'you'
p7462
aS'go'
p7463
aS'from'
p7464
aS'the'
p7465
aS'office'
p7466
aS'to'
p7467
aS'the'
p7468
aS'garden'
p7469
asI680
(lp7470
S'How'
p7471
aS'do'
p7472
aS'you'
p7473
aS'go'
p7474
aS'from'
p7475
aS'the'
p7476
aS'office'
p7477
aS'to'
p7478
aS'the'
p7479
aS'bathroom'
p7480
asI681
(lp7481
S'How'
p7482
aS'do'
p7483
aS'you'
p7484
aS'go'
p7485
aS'from'
p7486
aS'the'
p7487
aS'hallway'
p7488
aS'to'
p7489
aS'the'
p7490
aS'garden'
p7491
asI682
(lp7492
S'How'
p7493
aS'do'
p7494
aS'you'
p7495
aS'go'
p7496
aS'from'
p7497
aS'the'
p7498
aS'office'
p7499
aS'to'
p7500
aS'the'
p7501
aS'hallway'
p7502
asI683
(lp7503
S'How'
p7504
aS'do'
p7505
aS'you'
p7506
aS'go'
p7507
aS'from'
p7508
aS'the'
p7509
aS'office'
p7510
aS'to'
p7511
aS'the'
p7512
aS'bedroom'
p7513
asI684
(lp7514
S'How'
p7515
aS'do'
p7516
aS'you'
p7517
aS'go'
p7518
aS'from'
p7519
aS'the'
p7520
aS'bedroom'
p7521
aS'to'
p7522
aS'the'
p7523
aS'office'
p7524
asI685
(lp7525
S'How'
p7526
aS'do'
p7527
aS'you'
p7528
aS'go'
p7529
aS'from'
p7530
aS'the'
p7531
aS'bedroom'
p7532
aS'to'
p7533
aS'the'
p7534
aS'office'
p7535
asI686
(lp7536
S'How'
p7537
aS'do'
p7538
aS'you'
p7539
aS'go'
p7540
aS'from'
p7541
aS'the'
p7542
aS'office'
p7543
aS'to'
p7544
aS'the'
p7545
aS'bathroom'
p7546
asI687
(lp7547
S'How'
p7548
aS'do'
p7549
aS'you'
p7550
aS'go'
p7551
aS'from'
p7552
aS'the'
p7553
aS'hallway'
p7554
aS'to'
p7555
aS'the'
p7556
aS'kitchen'
p7557
asI688
(lp7558
S'How'
p7559
aS'do'
p7560
aS'you'
p7561
aS'go'
p7562
aS'from'
p7563
aS'the'
p7564
aS'bathroom'
p7565
aS'to'
p7566
aS'the'
p7567
aS'bedroom'
p7568
asI689
(lp7569
S'How'
p7570
aS'do'
p7571
aS'you'
p7572
aS'go'
p7573
aS'from'
p7574
aS'the'
p7575
aS'garden'
p7576
aS'to'
p7577
aS'the'
p7578
aS'office'
p7579
asI690
(lp7580
S'How'
p7581
aS'do'
p7582
aS'you'
p7583
aS'go'
p7584
aS'from'
p7585
aS'the'
p7586
aS'office'
p7587
aS'to'
p7588
aS'the'
p7589
aS'bathroom'
p7590
asI691
(lp7591
S'How'
p7592
aS'do'
p7593
aS'you'
p7594
aS'go'
p7595
aS'from'
p7596
aS'the'
p7597
aS'bathroom'
p7598
aS'to'
p7599
aS'the'
p7600
aS'garden'
p7601
asI692
(lp7602
S'How'
p7603
aS'do'
p7604
aS'you'
p7605
aS'go'
p7606
aS'from'
p7607
aS'the'
p7608
aS'bathroom'
p7609
aS'to'
p7610
aS'the'
p7611
aS'garden'
p7612
asI693
(lp7613
S'How'
p7614
aS'do'
p7615
aS'you'
p7616
aS'go'
p7617
aS'from'
p7618
aS'the'
p7619
aS'kitchen'
p7620
aS'to'
p7621
aS'the'
p7622
aS'hallway'
p7623
asI694
(lp7624
S'How'
p7625
aS'do'
p7626
aS'you'
p7627
aS'go'
p7628
aS'from'
p7629
aS'the'
p7630
aS'kitchen'
p7631
aS'to'
p7632
aS'the'
p7633
aS'garden'
p7634
asI695
(lp7635
S'How'
p7636
aS'do'
p7637
aS'you'
p7638
aS'go'
p7639
aS'from'
p7640
aS'the'
p7641
aS'kitchen'
p7642
aS'to'
p7643
aS'the'
p7644
aS'bedroom'
p7645
asI696
(lp7646
S'How'
p7647
aS'do'
p7648
aS'you'
p7649
aS'go'
p7650
aS'from'
p7651
aS'the'
p7652
aS'bathroom'
p7653
aS'to'
p7654
aS'the'
p7655
aS'office'
p7656
asI697
(lp7657
S'How'
p7658
aS'do'
p7659
aS'you'
p7660
aS'go'
p7661
aS'from'
p7662
aS'the'
p7663
aS'hallway'
p7664
aS'to'
p7665
aS'the'
p7666
aS'bathroom'
p7667
asI698
(lp7668
S'How'
p7669
aS'do'
p7670
aS'you'
p7671
aS'go'
p7672
aS'from'
p7673
aS'the'
p7674
aS'bathroom'
p7675
aS'to'
p7676
aS'the'
p7677
aS'hallway'
p7678
asI699
(lp7679
S'How'
p7680
aS'do'
p7681
aS'you'
p7682
aS'go'
p7683
aS'from'
p7684
aS'the'
p7685
aS'kitchen'
p7686
aS'to'
p7687
aS'the'
p7688
aS'office'
p7689
asI700
(lp7690
S'How'
p7691
aS'do'
p7692
aS'you'
p7693
aS'go'
p7694
aS'from'
p7695
aS'the'
p7696
aS'garden'
p7697
aS'to'
p7698
aS'the'
p7699
aS'bathroom'
p7700
asI701
(lp7701
S'How'
p7702
aS'do'
p7703
aS'you'
p7704
aS'go'
p7705
aS'from'
p7706
aS'the'
p7707
aS'bedroom'
p7708
aS'to'
p7709
aS'the'
p7710
aS'office'
p7711
asI702
(lp7712
S'How'
p7713
aS'do'
p7714
aS'you'
p7715
aS'go'
p7716
aS'from'
p7717
aS'the'
p7718
aS'hallway'
p7719
aS'to'
p7720
aS'the'
p7721
aS'bedroom'
p7722
asI703
(lp7723
S'How'
p7724
aS'do'
p7725
aS'you'
p7726
aS'go'
p7727
aS'from'
p7728
aS'the'
p7729
aS'bathroom'
p7730
aS'to'
p7731
aS'the'
p7732
aS'hallway'
p7733
asI704
(lp7734
S'How'
p7735
aS'do'
p7736
aS'you'
p7737
aS'go'
p7738
aS'from'
p7739
aS'the'
p7740
aS'hallway'
p7741
aS'to'
p7742
aS'the'
p7743
aS'office'
p7744
asI705
(lp7745
S'How'
p7746
aS'do'
p7747
aS'you'
p7748
aS'go'
p7749
aS'from'
p7750
aS'the'
p7751
aS'garden'
p7752
aS'to'
p7753
aS'the'
p7754
aS'office'
p7755
asI706
(lp7756
S'How'
p7757
aS'do'
p7758
aS'you'
p7759
aS'go'
p7760
aS'from'
p7761
aS'the'
p7762
aS'kitchen'
p7763
aS'to'
p7764
aS'the'
p7765
aS'garden'
p7766
asI707
(lp7767
S'How'
p7768
aS'do'
p7769
aS'you'
p7770
aS'go'
p7771
aS'from'
p7772
aS'the'
p7773
aS'bathroom'
p7774
aS'to'
p7775
aS'the'
p7776
aS'bedroom'
p7777
asI708
(lp7778
S'How'
p7779
aS'do'
p7780
aS'you'
p7781
aS'go'
p7782
aS'from'
p7783
aS'the'
p7784
aS'garden'
p7785
aS'to'
p7786
aS'the'
p7787
aS'bedroom'
p7788
asI709
(lp7789
S'How'
p7790
aS'do'
p7791
aS'you'
p7792
aS'go'
p7793
aS'from'
p7794
aS'the'
p7795
aS'office'
p7796
aS'to'
p7797
aS'the'
p7798
aS'bedroom'
p7799
asI710
(lp7800
S'How'
p7801
aS'do'
p7802
aS'you'
p7803
aS'go'
p7804
aS'from'
p7805
aS'the'
p7806
aS'hallway'
p7807
aS'to'
p7808
aS'the'
p7809
aS'kitchen'
p7810
asI711
(lp7811
S'How'
p7812
aS'do'
p7813
aS'you'
p7814
aS'go'
p7815
aS'from'
p7816
aS'the'
p7817
aS'kitchen'
p7818
aS'to'
p7819
aS'the'
p7820
aS'hallway'
p7821
asI712
(lp7822
S'How'
p7823
aS'do'
p7824
aS'you'
p7825
aS'go'
p7826
aS'from'
p7827
aS'the'
p7828
aS'kitchen'
p7829
aS'to'
p7830
aS'the'
p7831
aS'garden'
p7832
asI713
(lp7833
S'How'
p7834
aS'do'
p7835
aS'you'
p7836
aS'go'
p7837
aS'from'
p7838
aS'the'
p7839
aS'office'
p7840
aS'to'
p7841
aS'the'
p7842
aS'bedroom'
p7843
asI714
(lp7844
S'How'
p7845
aS'do'
p7846
aS'you'
p7847
aS'go'
p7848
aS'from'
p7849
aS'the'
p7850
aS'bedroom'
p7851
aS'to'
p7852
aS'the'
p7853
aS'kitchen'
p7854
asI715
(lp7855
S'How'
p7856
aS'do'
p7857
aS'you'
p7858
aS'go'
p7859
aS'from'
p7860
aS'the'
p7861
aS'bathroom'
p7862
aS'to'
p7863
aS'the'
p7864
aS'bedroom'
p7865
asI716
(lp7866
S'How'
p7867
aS'do'
p7868
aS'you'
p7869
aS'go'
p7870
aS'from'
p7871
aS'the'
p7872
aS'bathroom'
p7873
aS'to'
p7874
aS'the'
p7875
aS'hallway'
p7876
asI717
(lp7877
S'How'
p7878
aS'do'
p7879
aS'you'
p7880
aS'go'
p7881
aS'from'
p7882
aS'the'
p7883
aS'hallway'
p7884
aS'to'
p7885
aS'the'
p7886
aS'kitchen'
p7887
asI718
(lp7888
S'How'
p7889
aS'do'
p7890
aS'you'
p7891
aS'go'
p7892
aS'from'
p7893
aS'the'
p7894
aS'hallway'
p7895
aS'to'
p7896
aS'the'
p7897
aS'bedroom'
p7898
asI719
(lp7899
S'How'
p7900
aS'do'
p7901
aS'you'
p7902
aS'go'
p7903
aS'from'
p7904
aS'the'
p7905
aS'garden'
p7906
aS'to'
p7907
aS'the'
p7908
aS'bathroom'
p7909
asI720
(lp7910
S'How'
p7911
aS'do'
p7912
aS'you'
p7913
aS'go'
p7914
aS'from'
p7915
aS'the'
p7916
aS'hallway'
p7917
aS'to'
p7918
aS'the'
p7919
aS'bedroom'
p7920
asI721
(lp7921
S'How'
p7922
aS'do'
p7923
aS'you'
p7924
aS'go'
p7925
aS'from'
p7926
aS'the'
p7927
aS'bedroom'
p7928
aS'to'
p7929
aS'the'
p7930
aS'office'
p7931
asI722
(lp7932
S'How'
p7933
aS'do'
p7934
aS'you'
p7935
aS'go'
p7936
aS'from'
p7937
aS'the'
p7938
aS'hallway'
p7939
aS'to'
p7940
aS'the'
p7941
aS'kitchen'
p7942
asI723
(lp7943
S'How'
p7944
aS'do'
p7945
aS'you'
p7946
aS'go'
p7947
aS'from'
p7948
aS'the'
p7949
aS'office'
p7950
aS'to'
p7951
aS'the'
p7952
aS'bedroom'
p7953
asI724
(lp7954
S'How'
p7955
aS'do'
p7956
aS'you'
p7957
aS'go'
p7958
aS'from'
p7959
aS'the'
p7960
aS'kitchen'
p7961
aS'to'
p7962
aS'the'
p7963
aS'garden'
p7964
asI725
(lp7965
S'How'
p7966
aS'do'
p7967
aS'you'
p7968
aS'go'
p7969
aS'from'
p7970
aS'the'
p7971
aS'garden'
p7972
aS'to'
p7973
aS'the'
p7974
aS'office'
p7975
asI726
(lp7976
S'How'
p7977
aS'do'
p7978
aS'you'
p7979
aS'go'
p7980
aS'from'
p7981
aS'the'
p7982
aS'hallway'
p7983
aS'to'
p7984
aS'the'
p7985
aS'bedroom'
p7986
asI727
(lp7987
S'How'
p7988
aS'do'
p7989
aS'you'
p7990
aS'go'
p7991
aS'from'
p7992
aS'the'
p7993
aS'bathroom'
p7994
aS'to'
p7995
aS'the'
p7996
aS'hallway'
p7997
asI728
(lp7998
S'How'
p7999
aS'do'
p8000
aS'you'
p8001
aS'go'
p8002
aS'from'
p8003
aS'the'
p8004
aS'office'
p8005
aS'to'
p8006
aS'the'
p8007
aS'garden'
p8008
asI729
(lp8009
S'How'
p8010
aS'do'
p8011
aS'you'
p8012
aS'go'
p8013
aS'from'
p8014
aS'the'
p8015
aS'hallway'
p8016
aS'to'
p8017
aS'the'
p8018
aS'office'
p8019
asI730
(lp8020
S'How'
p8021
aS'do'
p8022
aS'you'
p8023
aS'go'
p8024
aS'from'
p8025
aS'the'
p8026
aS'kitchen'
p8027
aS'to'
p8028
aS'the'
p8029
aS'bathroom'
p8030
asI731
(lp8031
S'How'
p8032
aS'do'
p8033
aS'you'
p8034
aS'go'
p8035
aS'from'
p8036
aS'the'
p8037
aS'office'
p8038
aS'to'
p8039
aS'the'
p8040
aS'hallway'
p8041
asI732
(lp8042
S'How'
p8043
aS'do'
p8044
aS'you'
p8045
aS'go'
p8046
aS'from'
p8047
aS'the'
p8048
aS'office'
p8049
aS'to'
p8050
aS'the'
p8051
aS'hallway'
p8052
asI733
(lp8053
S'How'
p8054
aS'do'
p8055
aS'you'
p8056
aS'go'
p8057
aS'from'
p8058
aS'the'
p8059
aS'bathroom'
p8060
aS'to'
p8061
aS'the'
p8062
aS'hallway'
p8063
asI734
(lp8064
S'How'
p8065
aS'do'
p8066
aS'you'
p8067
aS'go'
p8068
aS'from'
p8069
aS'the'
p8070
aS'garden'
p8071
aS'to'
p8072
aS'the'
p8073
aS'kitchen'
p8074
asI735
(lp8075
S'How'
p8076
aS'do'
p8077
aS'you'
p8078
aS'go'
p8079
aS'from'
p8080
aS'the'
p8081
aS'kitchen'
p8082
aS'to'
p8083
aS'the'
p8084
aS'bedroom'
p8085
asI736
(lp8086
S'How'
p8087
aS'do'
p8088
aS'you'
p8089
aS'go'
p8090
aS'from'
p8091
aS'the'
p8092
aS'kitchen'
p8093
aS'to'
p8094
aS'the'
p8095
aS'bathroom'
p8096
asI737
(lp8097
S'How'
p8098
aS'do'
p8099
aS'you'
p8100
aS'go'
p8101
aS'from'
p8102
aS'the'
p8103
aS'bathroom'
p8104
aS'to'
p8105
aS'the'
p8106
aS'garden'
p8107
asI738
(lp8108
S'How'
p8109
aS'do'
p8110
aS'you'
p8111
aS'go'
p8112
aS'from'
p8113
aS'the'
p8114
aS'bedroom'
p8115
aS'to'
p8116
aS'the'
p8117
aS'bathroom'
p8118
asI739
(lp8119
S'How'
p8120
aS'do'
p8121
aS'you'
p8122
aS'go'
p8123
aS'from'
p8124
aS'the'
p8125
aS'hallway'
p8126
aS'to'
p8127
aS'the'
p8128
aS'office'
p8129
asI740
(lp8130
S'How'
p8131
aS'do'
p8132
aS'you'
p8133
aS'go'
p8134
aS'from'
p8135
aS'the'
p8136
aS'bathroom'
p8137
aS'to'
p8138
aS'the'
p8139
aS'bedroom'
p8140
asI741
(lp8141
S'How'
p8142
aS'do'
p8143
aS'you'
p8144
aS'go'
p8145
aS'from'
p8146
aS'the'
p8147
aS'bathroom'
p8148
aS'to'
p8149
aS'the'
p8150
aS'office'
p8151
asI742
(lp8152
S'How'
p8153
aS'do'
p8154
aS'you'
p8155
aS'go'
p8156
aS'from'
p8157
aS'the'
p8158
aS'bathroom'
p8159
aS'to'
p8160
aS'the'
p8161
aS'hallway'
p8162
asI743
(lp8163
S'How'
p8164
aS'do'
p8165
aS'you'
p8166
aS'go'
p8167
aS'from'
p8168
aS'the'
p8169
aS'hallway'
p8170
aS'to'
p8171
aS'the'
p8172
aS'garden'
p8173
asI744
(lp8174
S'How'
p8175
aS'do'
p8176
aS'you'
p8177
aS'go'
p8178
aS'from'
p8179
aS'the'
p8180
aS'kitchen'
p8181
aS'to'
p8182
aS'the'
p8183
aS'garden'
p8184
asI745
(lp8185
S'How'
p8186
aS'do'
p8187
aS'you'
p8188
aS'go'
p8189
aS'from'
p8190
aS'the'
p8191
aS'office'
p8192
aS'to'
p8193
aS'the'
p8194
aS'bathroom'
p8195
asI746
(lp8196
S'How'
p8197
aS'do'
p8198
aS'you'
p8199
aS'go'
p8200
aS'from'
p8201
aS'the'
p8202
aS'garden'
p8203
aS'to'
p8204
aS'the'
p8205
aS'bedroom'
p8206
asI747
(lp8207
S'How'
p8208
aS'do'
p8209
aS'you'
p8210
aS'go'
p8211
aS'from'
p8212
aS'the'
p8213
aS'office'
p8214
aS'to'
p8215
aS'the'
p8216
aS'kitchen'
p8217
asI748
(lp8218
S'How'
p8219
aS'do'
p8220
aS'you'
p8221
aS'go'
p8222
aS'from'
p8223
aS'the'
p8224
aS'garden'
p8225
aS'to'
p8226
aS'the'
p8227
aS'bedroom'
p8228
asI749
(lp8229
S'How'
p8230
aS'do'
p8231
aS'you'
p8232
aS'go'
p8233
aS'from'
p8234
aS'the'
p8235
aS'office'
p8236
aS'to'
p8237
aS'the'
p8238
aS'garden'
p8239
asI750
(lp8240
S'How'
p8241
aS'do'
p8242
aS'you'
p8243
aS'go'
p8244
aS'from'
p8245
aS'the'
p8246
aS'hallway'
p8247
aS'to'
p8248
aS'the'
p8249
aS'bathroom'
p8250
asI751
(lp8251
S'How'
p8252
aS'do'
p8253
aS'you'
p8254
aS'go'
p8255
aS'from'
p8256
aS'the'
p8257
aS'office'
p8258
aS'to'
p8259
aS'the'
p8260
aS'bedroom'
p8261
asI752
(lp8262
S'How'
p8263
aS'do'
p8264
aS'you'
p8265
aS'go'
p8266
aS'from'
p8267
aS'the'
p8268
aS'bedroom'
p8269
aS'to'
p8270
aS'the'
p8271
aS'office'
p8272
asI753
(lp8273
S'How'
p8274
aS'do'
p8275
aS'you'
p8276
aS'go'
p8277
aS'from'
p8278
aS'the'
p8279
aS'bedroom'
p8280
aS'to'
p8281
aS'the'
p8282
aS'office'
p8283
asI754
(lp8284
S'How'
p8285
aS'do'
p8286
aS'you'
p8287
aS'go'
p8288
aS'from'
p8289
aS'the'
p8290
aS'bathroom'
p8291
aS'to'
p8292
aS'the'
p8293
aS'garden'
p8294
asI755
(lp8295
S'How'
p8296
aS'do'
p8297
aS'you'
p8298
aS'go'
p8299
aS'from'
p8300
aS'the'
p8301
aS'bedroom'
p8302
aS'to'
p8303
aS'the'
p8304
aS'garden'
p8305
asI756
(lp8306
S'How'
p8307
aS'do'
p8308
aS'you'
p8309
aS'go'
p8310
aS'from'
p8311
aS'the'
p8312
aS'garden'
p8313
aS'to'
p8314
aS'the'
p8315
aS'hallway'
p8316
asI757
(lp8317
S'How'
p8318
aS'do'
p8319
aS'you'
p8320
aS'go'
p8321
aS'from'
p8322
aS'the'
p8323
aS'hallway'
p8324
aS'to'
p8325
aS'the'
p8326
aS'bedroom'
p8327
asI758
(lp8328
S'How'
p8329
aS'do'
p8330
aS'you'
p8331
aS'go'
p8332
aS'from'
p8333
aS'the'
p8334
aS'bedroom'
p8335
aS'to'
p8336
aS'the'
p8337
aS'office'
p8338
asI759
(lp8339
S'How'
p8340
aS'do'
p8341
aS'you'
p8342
aS'go'
p8343
aS'from'
p8344
aS'the'
p8345
aS'office'
p8346
aS'to'
p8347
aS'the'
p8348
aS'bathroom'
p8349
asI760
(lp8350
S'How'
p8351
aS'do'
p8352
aS'you'
p8353
aS'go'
p8354
aS'from'
p8355
aS'the'
p8356
aS'hallway'
p8357
aS'to'
p8358
aS'the'
p8359
aS'bedroom'
p8360
asI761
(lp8361
S'How'
p8362
aS'do'
p8363
aS'you'
p8364
aS'go'
p8365
aS'from'
p8366
aS'the'
p8367
aS'kitchen'
p8368
aS'to'
p8369
aS'the'
p8370
aS'bedroom'
p8371
asI762
(lp8372
S'How'
p8373
aS'do'
p8374
aS'you'
p8375
aS'go'
p8376
aS'from'
p8377
aS'the'
p8378
aS'kitchen'
p8379
aS'to'
p8380
aS'the'
p8381
aS'bathroom'
p8382
asI763
(lp8383
S'How'
p8384
aS'do'
p8385
aS'you'
p8386
aS'go'
p8387
aS'from'
p8388
aS'the'
p8389
aS'hallway'
p8390
aS'to'
p8391
aS'the'
p8392
aS'bedroom'
p8393
asI764
(lp8394
S'How'
p8395
aS'do'
p8396
aS'you'
p8397
aS'go'
p8398
aS'from'
p8399
aS'the'
p8400
aS'hallway'
p8401
aS'to'
p8402
aS'the'
p8403
aS'kitchen'
p8404
asI765
(lp8405
S'How'
p8406
aS'do'
p8407
aS'you'
p8408
aS'go'
p8409
aS'from'
p8410
aS'the'
p8411
aS'bedroom'
p8412
aS'to'
p8413
aS'the'
p8414
aS'bathroom'
p8415
asI766
(lp8416
S'How'
p8417
aS'do'
p8418
aS'you'
p8419
aS'go'
p8420
aS'from'
p8421
aS'the'
p8422
aS'bedroom'
p8423
aS'to'
p8424
aS'the'
p8425
aS'office'
p8426
asI767
(lp8427
S'How'
p8428
aS'do'
p8429
aS'you'
p8430
aS'go'
p8431
aS'from'
p8432
aS'the'
p8433
aS'hallway'
p8434
aS'to'
p8435
aS'the'
p8436
aS'bedroom'
p8437
asI768
(lp8438
S'How'
p8439
aS'do'
p8440
aS'you'
p8441
aS'go'
p8442
aS'from'
p8443
aS'the'
p8444
aS'bedroom'
p8445
aS'to'
p8446
aS'the'
p8447
aS'garden'
p8448
asI769
(lp8449
S'How'
p8450
aS'do'
p8451
aS'you'
p8452
aS'go'
p8453
aS'from'
p8454
aS'the'
p8455
aS'kitchen'
p8456
aS'to'
p8457
aS'the'
p8458
aS'bathroom'
p8459
asI770
(lp8460
S'How'
p8461
aS'do'
p8462
aS'you'
p8463
aS'go'
p8464
aS'from'
p8465
aS'the'
p8466
aS'bedroom'
p8467
aS'to'
p8468
aS'the'
p8469
aS'bathroom'
p8470
asI771
(lp8471
S'How'
p8472
aS'do'
p8473
aS'you'
p8474
aS'go'
p8475
aS'from'
p8476
aS'the'
p8477
aS'garden'
p8478
aS'to'
p8479
aS'the'
p8480
aS'bathroom'
p8481
asI772
(lp8482
S'How'
p8483
aS'do'
p8484
aS'you'
p8485
aS'go'
p8486
aS'from'
p8487
aS'the'
p8488
aS'kitchen'
p8489
aS'to'
p8490
aS'the'
p8491
aS'hallway'
p8492
asI773
(lp8493
S'How'
p8494
aS'do'
p8495
aS'you'
p8496
aS'go'
p8497
aS'from'
p8498
aS'the'
p8499
aS'office'
p8500
aS'to'
p8501
aS'the'
p8502
aS'hallway'
p8503
asI774
(lp8504
S'How'
p8505
aS'do'
p8506
aS'you'
p8507
aS'go'
p8508
aS'from'
p8509
aS'the'
p8510
aS'office'
p8511
aS'to'
p8512
aS'the'
p8513
aS'garden'
p8514
asI775
(lp8515
S'How'
p8516
aS'do'
p8517
aS'you'
p8518
aS'go'
p8519
aS'from'
p8520
aS'the'
p8521
aS'office'
p8522
aS'to'
p8523
aS'the'
p8524
aS'garden'
p8525
asI776
(lp8526
S'How'
p8527
aS'do'
p8528
aS'you'
p8529
aS'go'
p8530
aS'from'
p8531
aS'the'
p8532
aS'hallway'
p8533
aS'to'
p8534
aS'the'
p8535
aS'bedroom'
p8536
asI777
(lp8537
S'How'
p8538
aS'do'
p8539
aS'you'
p8540
aS'go'
p8541
aS'from'
p8542
aS'the'
p8543
aS'bathroom'
p8544
aS'to'
p8545
aS'the'
p8546
aS'garden'
p8547
asI778
(lp8548
S'How'
p8549
aS'do'
p8550
aS'you'
p8551
aS'go'
p8552
aS'from'
p8553
aS'the'
p8554
aS'kitchen'
p8555
aS'to'
p8556
aS'the'
p8557
aS'hallway'
p8558
asI779
(lp8559
S'How'
p8560
aS'do'
p8561
aS'you'
p8562
aS'go'
p8563
aS'from'
p8564
aS'the'
p8565
aS'garden'
p8566
aS'to'
p8567
aS'the'
p8568
aS'bathroom'
p8569
asI780
(lp8570
S'How'
p8571
aS'do'
p8572
aS'you'
p8573
aS'go'
p8574
aS'from'
p8575
aS'the'
p8576
aS'garden'
p8577
aS'to'
p8578
aS'the'
p8579
aS'office'
p8580
asI781
(lp8581
S'How'
p8582
aS'do'
p8583
aS'you'
p8584
aS'go'
p8585
aS'from'
p8586
aS'the'
p8587
aS'hallway'
p8588
aS'to'
p8589
aS'the'
p8590
aS'office'
p8591
asI782
(lp8592
S'How'
p8593
aS'do'
p8594
aS'you'
p8595
aS'go'
p8596
aS'from'
p8597
aS'the'
p8598
aS'bedroom'
p8599
aS'to'
p8600
aS'the'
p8601
aS'office'
p8602
asI783
(lp8603
S'How'
p8604
aS'do'
p8605
aS'you'
p8606
aS'go'
p8607
aS'from'
p8608
aS'the'
p8609
aS'garden'
p8610
aS'to'
p8611
aS'the'
p8612
aS'office'
p8613
asI784
(lp8614
S'How'
p8615
aS'do'
p8616
aS'you'
p8617
aS'go'
p8618
aS'from'
p8619
aS'the'
p8620
aS'office'
p8621
aS'to'
p8622
aS'the'
p8623
aS'garden'
p8624
asI785
(lp8625
S'How'
p8626
aS'do'
p8627
aS'you'
p8628
aS'go'
p8629
aS'from'
p8630
aS'the'
p8631
aS'garden'
p8632
aS'to'
p8633
aS'the'
p8634
aS'kitchen'
p8635
asI786
(lp8636
S'How'
p8637
aS'do'
p8638
aS'you'
p8639
aS'go'
p8640
aS'from'
p8641
aS'the'
p8642
aS'hallway'
p8643
aS'to'
p8644
aS'the'
p8645
aS'office'
p8646
asI787
(lp8647
S'How'
p8648
aS'do'
p8649
aS'you'
p8650
aS'go'
p8651
aS'from'
p8652
aS'the'
p8653
aS'hallway'
p8654
aS'to'
p8655
aS'the'
p8656
aS'bathroom'
p8657
asI788
(lp8658
S'How'
p8659
aS'do'
p8660
aS'you'
p8661
aS'go'
p8662
aS'from'
p8663
aS'the'
p8664
aS'bathroom'
p8665
aS'to'
p8666
aS'the'
p8667
aS'kitchen'
p8668
asI789
(lp8669
S'How'
p8670
aS'do'
p8671
aS'you'
p8672
aS'go'
p8673
aS'from'
p8674
aS'the'
p8675
aS'garden'
p8676
aS'to'
p8677
aS'the'
p8678
aS'bedroom'
p8679
asI790
(lp8680
S'How'
p8681
aS'do'
p8682
aS'you'
p8683
aS'go'
p8684
aS'from'
p8685
aS'the'
p8686
aS'garden'
p8687
aS'to'
p8688
aS'the'
p8689
aS'office'
p8690
asI791
(lp8691
S'How'
p8692
aS'do'
p8693
aS'you'
p8694
aS'go'
p8695
aS'from'
p8696
aS'the'
p8697
aS'kitchen'
p8698
aS'to'
p8699
aS'the'
p8700
aS'bedroom'
p8701
asI792
(lp8702
S'How'
p8703
aS'do'
p8704
aS'you'
p8705
aS'go'
p8706
aS'from'
p8707
aS'the'
p8708
aS'office'
p8709
aS'to'
p8710
aS'the'
p8711
aS'bedroom'
p8712
asI793
(lp8713
S'How'
p8714
aS'do'
p8715
aS'you'
p8716
aS'go'
p8717
aS'from'
p8718
aS'the'
p8719
aS'bathroom'
p8720
aS'to'
p8721
aS'the'
p8722
aS'bedroom'
p8723
asI794
(lp8724
S'How'
p8725
aS'do'
p8726
aS'you'
p8727
aS'go'
p8728
aS'from'
p8729
aS'the'
p8730
aS'bathroom'
p8731
aS'to'
p8732
aS'the'
p8733
aS'garden'
p8734
asI795
(lp8735
S'How'
p8736
aS'do'
p8737
aS'you'
p8738
aS'go'
p8739
aS'from'
p8740
aS'the'
p8741
aS'kitchen'
p8742
aS'to'
p8743
aS'the'
p8744
aS'bedroom'
p8745
asI796
(lp8746
S'How'
p8747
aS'do'
p8748
aS'you'
p8749
aS'go'
p8750
aS'from'
p8751
aS'the'
p8752
aS'hallway'
p8753
aS'to'
p8754
aS'the'
p8755
aS'bedroom'
p8756
asI797
(lp8757
S'How'
p8758
aS'do'
p8759
aS'you'
p8760
aS'go'
p8761
aS'from'
p8762
aS'the'
p8763
aS'bedroom'
p8764
aS'to'
p8765
aS'the'
p8766
aS'garden'
p8767
asI798
(lp8768
S'How'
p8769
aS'do'
p8770
aS'you'
p8771
aS'go'
p8772
aS'from'
p8773
aS'the'
p8774
aS'kitchen'
p8775
aS'to'
p8776
aS'the'
p8777
aS'office'
p8778
asI799
(lp8779
S'How'
p8780
aS'do'
p8781
aS'you'
p8782
aS'go'
p8783
aS'from'
p8784
aS'the'
p8785
aS'bedroom'
p8786
aS'to'
p8787
aS'the'
p8788
aS'bathroom'
p8789
asI800
(lp8790
S'How'
p8791
aS'do'
p8792
aS'you'
p8793
aS'go'
p8794
aS'from'
p8795
aS'the'
p8796
aS'hallway'
p8797
aS'to'
p8798
aS'the'
p8799
aS'office'
p8800
asI801
(lp8801
S'How'
p8802
aS'do'
p8803
aS'you'
p8804
aS'go'
p8805
aS'from'
p8806
aS'the'
p8807
aS'hallway'
p8808
aS'to'
p8809
aS'the'
p8810
aS'bedroom'
p8811
asI802
(lp8812
S'How'
p8813
aS'do'
p8814
aS'you'
p8815
aS'go'
p8816
aS'from'
p8817
aS'the'
p8818
aS'bathroom'
p8819
aS'to'
p8820
aS'the'
p8821
aS'office'
p8822
asI803
(lp8823
S'How'
p8824
aS'do'
p8825
aS'you'
p8826
aS'go'
p8827
aS'from'
p8828
aS'the'
p8829
aS'office'
p8830
aS'to'
p8831
aS'the'
p8832
aS'bedroom'
p8833
asI804
(lp8834
S'How'
p8835
aS'do'
p8836
aS'you'
p8837
aS'go'
p8838
aS'from'
p8839
aS'the'
p8840
aS'bedroom'
p8841
aS'to'
p8842
aS'the'
p8843
aS'garden'
p8844
asI805
(lp8845
S'How'
p8846
aS'do'
p8847
aS'you'
p8848
aS'go'
p8849
aS'from'
p8850
aS'the'
p8851
aS'garden'
p8852
aS'to'
p8853
aS'the'
p8854
aS'bedroom'
p8855
asI806
(lp8856
S'How'
p8857
aS'do'
p8858
aS'you'
p8859
aS'go'
p8860
aS'from'
p8861
aS'the'
p8862
aS'kitchen'
p8863
aS'to'
p8864
aS'the'
p8865
aS'bathroom'
p8866
asI807
(lp8867
S'How'
p8868
aS'do'
p8869
aS'you'
p8870
aS'go'
p8871
aS'from'
p8872
aS'the'
p8873
aS'hallway'
p8874
aS'to'
p8875
aS'the'
p8876
aS'office'
p8877
asI808
(lp8878
S'How'
p8879
aS'do'
p8880
aS'you'
p8881
aS'go'
p8882
aS'from'
p8883
aS'the'
p8884
aS'bedroom'
p8885
aS'to'
p8886
aS'the'
p8887
aS'garden'
p8888
asI809
(lp8889
S'How'
p8890
aS'do'
p8891
aS'you'
p8892
aS'go'
p8893
aS'from'
p8894
aS'the'
p8895
aS'garden'
p8896
aS'to'
p8897
aS'the'
p8898
aS'kitchen'
p8899
asI810
(lp8900
S'How'
p8901
aS'do'
p8902
aS'you'
p8903
aS'go'
p8904
aS'from'
p8905
aS'the'
p8906
aS'office'
p8907
aS'to'
p8908
aS'the'
p8909
aS'bedroom'
p8910
asI811
(lp8911
S'How'
p8912
aS'do'
p8913
aS'you'
p8914
aS'go'
p8915
aS'from'
p8916
aS'the'
p8917
aS'garden'
p8918
aS'to'
p8919
aS'the'
p8920
aS'bedroom'
p8921
asI812
(lp8922
S'How'
p8923
aS'do'
p8924
aS'you'
p8925
aS'go'
p8926
aS'from'
p8927
aS'the'
p8928
aS'bathroom'
p8929
aS'to'
p8930
aS'the'
p8931
aS'office'
p8932
asI813
(lp8933
S'How'
p8934
aS'do'
p8935
aS'you'
p8936
aS'go'
p8937
aS'from'
p8938
aS'the'
p8939
aS'office'
p8940
aS'to'
p8941
aS'the'
p8942
aS'kitchen'
p8943
asI814
(lp8944
S'How'
p8945
aS'do'
p8946
aS'you'
p8947
aS'go'
p8948
aS'from'
p8949
aS'the'
p8950
aS'bathroom'
p8951
aS'to'
p8952
aS'the'
p8953
aS'kitchen'
p8954
asI815
(lp8955
S'How'
p8956
aS'do'
p8957
aS'you'
p8958
aS'go'
p8959
aS'from'
p8960
aS'the'
p8961
aS'office'
p8962
aS'to'
p8963
aS'the'
p8964
aS'bathroom'
p8965
asI816
(lp8966
S'How'
p8967
aS'do'
p8968
aS'you'
p8969
aS'go'
p8970
aS'from'
p8971
aS'the'
p8972
aS'hallway'
p8973
aS'to'
p8974
aS'the'
p8975
aS'garden'
p8976
asI817
(lp8977
S'How'
p8978
aS'do'
p8979
aS'you'
p8980
aS'go'
p8981
aS'from'
p8982
aS'the'
p8983
aS'hallway'
p8984
aS'to'
p8985
aS'the'
p8986
aS'office'
p8987
asI818
(lp8988
S'How'
p8989
aS'do'
p8990
aS'you'
p8991
aS'go'
p8992
aS'from'
p8993
aS'the'
p8994
aS'garden'
p8995
aS'to'
p8996
aS'the'
p8997
aS'office'
p8998
asI819
(lp8999
S'How'
p9000
aS'do'
p9001
aS'you'
p9002
aS'go'
p9003
aS'from'
p9004
aS'the'
p9005
aS'bedroom'
p9006
aS'to'
p9007
aS'the'
p9008
aS'office'
p9009
asI820
(lp9010
S'How'
p9011
aS'do'
p9012
aS'you'
p9013
aS'go'
p9014
aS'from'
p9015
aS'the'
p9016
aS'garden'
p9017
aS'to'
p9018
aS'the'
p9019
aS'hallway'
p9020
asI821
(lp9021
S'How'
p9022
aS'do'
p9023
aS'you'
p9024
aS'go'
p9025
aS'from'
p9026
aS'the'
p9027
aS'bedroom'
p9028
aS'to'
p9029
aS'the'
p9030
aS'hallway'
p9031
asI822
(lp9032
S'How'
p9033
aS'do'
p9034
aS'you'
p9035
aS'go'
p9036
aS'from'
p9037
aS'the'
p9038
aS'kitchen'
p9039
aS'to'
p9040
aS'the'
p9041
aS'garden'
p9042
asI823
(lp9043
S'How'
p9044
aS'do'
p9045
aS'you'
p9046
aS'go'
p9047
aS'from'
p9048
aS'the'
p9049
aS'office'
p9050
aS'to'
p9051
aS'the'
p9052
aS'bathroom'
p9053
asI824
(lp9054
S'How'
p9055
aS'do'
p9056
aS'you'
p9057
aS'go'
p9058
aS'from'
p9059
aS'the'
p9060
aS'garden'
p9061
aS'to'
p9062
aS'the'
p9063
aS'kitchen'
p9064
asI825
(lp9065
S'How'
p9066
aS'do'
p9067
aS'you'
p9068
aS'go'
p9069
aS'from'
p9070
aS'the'
p9071
aS'kitchen'
p9072
aS'to'
p9073
aS'the'
p9074
aS'garden'
p9075
asI826
(lp9076
S'How'
p9077
aS'do'
p9078
aS'you'
p9079
aS'go'
p9080
aS'from'
p9081
aS'the'
p9082
aS'bedroom'
p9083
aS'to'
p9084
aS'the'
p9085
aS'office'
p9086
asI827
(lp9087
S'How'
p9088
aS'do'
p9089
aS'you'
p9090
aS'go'
p9091
aS'from'
p9092
aS'the'
p9093
aS'hallway'
p9094
aS'to'
p9095
aS'the'
p9096
aS'garden'
p9097
asI828
(lp9098
S'How'
p9099
aS'do'
p9100
aS'you'
p9101
aS'go'
p9102
aS'from'
p9103
aS'the'
p9104
aS'kitchen'
p9105
aS'to'
p9106
aS'the'
p9107
aS'hallway'
p9108
asI829
(lp9109
S'How'
p9110
aS'do'
p9111
aS'you'
p9112
aS'go'
p9113
aS'from'
p9114
aS'the'
p9115
aS'bathroom'
p9116
aS'to'
p9117
aS'the'
p9118
aS'hallway'
p9119
asI830
(lp9120
S'How'
p9121
aS'do'
p9122
aS'you'
p9123
aS'go'
p9124
aS'from'
p9125
aS'the'
p9126
aS'kitchen'
p9127
aS'to'
p9128
aS'the'
p9129
aS'garden'
p9130
asI831
(lp9131
S'How'
p9132
aS'do'
p9133
aS'you'
p9134
aS'go'
p9135
aS'from'
p9136
aS'the'
p9137
aS'kitchen'
p9138
aS'to'
p9139
aS'the'
p9140
aS'hallway'
p9141
asI832
(lp9142
S'How'
p9143
aS'do'
p9144
aS'you'
p9145
aS'go'
p9146
aS'from'
p9147
aS'the'
p9148
aS'hallway'
p9149
aS'to'
p9150
aS'the'
p9151
aS'kitchen'
p9152
asI833
(lp9153
S'How'
p9154
aS'do'
p9155
aS'you'
p9156
aS'go'
p9157
aS'from'
p9158
aS'the'
p9159
aS'office'
p9160
aS'to'
p9161
aS'the'
p9162
aS'bathroom'
p9163
asI834
(lp9164
S'How'
p9165
aS'do'
p9166
aS'you'
p9167
aS'go'
p9168
aS'from'
p9169
aS'the'
p9170
aS'hallway'
p9171
aS'to'
p9172
aS'the'
p9173
aS'office'
p9174
asI835
(lp9175
S'How'
p9176
aS'do'
p9177
aS'you'
p9178
aS'go'
p9179
aS'from'
p9180
aS'the'
p9181
aS'bedroom'
p9182
aS'to'
p9183
aS'the'
p9184
aS'kitchen'
p9185
asI836
(lp9186
S'How'
p9187
aS'do'
p9188
aS'you'
p9189
aS'go'
p9190
aS'from'
p9191
aS'the'
p9192
aS'kitchen'
p9193
aS'to'
p9194
aS'the'
p9195
aS'office'
p9196
asI837
(lp9197
S'How'
p9198
aS'do'
p9199
aS'you'
p9200
aS'go'
p9201
aS'from'
p9202
aS'the'
p9203
aS'garden'
p9204
aS'to'
p9205
aS'the'
p9206
aS'hallway'
p9207
asI838
(lp9208
S'How'
p9209
aS'do'
p9210
aS'you'
p9211
aS'go'
p9212
aS'from'
p9213
aS'the'
p9214
aS'kitchen'
p9215
aS'to'
p9216
aS'the'
p9217
aS'bathroom'
p9218
asI839
(lp9219
S'How'
p9220
aS'do'
p9221
aS'you'
p9222
aS'go'
p9223
aS'from'
p9224
aS'the'
p9225
aS'bathroom'
p9226
aS'to'
p9227
aS'the'
p9228
aS'office'
p9229
asI840
(lp9230
S'How'
p9231
aS'do'
p9232
aS'you'
p9233
aS'go'
p9234
aS'from'
p9235
aS'the'
p9236
aS'garden'
p9237
aS'to'
p9238
aS'the'
p9239
aS'hallway'
p9240
asI841
(lp9241
S'How'
p9242
aS'do'
p9243
aS'you'
p9244
aS'go'
p9245
aS'from'
p9246
aS'the'
p9247
aS'hallway'
p9248
aS'to'
p9249
aS'the'
p9250
aS'bathroom'
p9251
asI842
(lp9252
S'How'
p9253
aS'do'
p9254
aS'you'
p9255
aS'go'
p9256
aS'from'
p9257
aS'the'
p9258
aS'bathroom'
p9259
aS'to'
p9260
aS'the'
p9261
aS'hallway'
p9262
asI843
(lp9263
S'How'
p9264
aS'do'
p9265
aS'you'
p9266
aS'go'
p9267
aS'from'
p9268
aS'the'
p9269
aS'kitchen'
p9270
aS'to'
p9271
aS'the'
p9272
aS'garden'
p9273
asI844
(lp9274
S'How'
p9275
aS'do'
p9276
aS'you'
p9277
aS'go'
p9278
aS'from'
p9279
aS'the'
p9280
aS'garden'
p9281
aS'to'
p9282
aS'the'
p9283
aS'kitchen'
p9284
asI845
(lp9285
S'How'
p9286
aS'do'
p9287
aS'you'
p9288
aS'go'
p9289
aS'from'
p9290
aS'the'
p9291
aS'garden'
p9292
aS'to'
p9293
aS'the'
p9294
aS'bathroom'
p9295
asI846
(lp9296
S'How'
p9297
aS'do'
p9298
aS'you'
p9299
aS'go'
p9300
aS'from'
p9301
aS'the'
p9302
aS'kitchen'
p9303
aS'to'
p9304
aS'the'
p9305
aS'bedroom'
p9306
asI847
(lp9307
S'How'
p9308
aS'do'
p9309
aS'you'
p9310
aS'go'
p9311
aS'from'
p9312
aS'the'
p9313
aS'bedroom'
p9314
aS'to'
p9315
aS'the'
p9316
aS'bathroom'
p9317
asI848
(lp9318
S'How'
p9319
aS'do'
p9320
aS'you'
p9321
aS'go'
p9322
aS'from'
p9323
aS'the'
p9324
aS'bathroom'
p9325
aS'to'
p9326
aS'the'
p9327
aS'garden'
p9328
asI849
(lp9329
S'How'
p9330
aS'do'
p9331
aS'you'
p9332
aS'go'
p9333
aS'from'
p9334
aS'the'
p9335
aS'bedroom'
p9336
aS'to'
p9337
aS'the'
p9338
aS'office'
p9339
asI850
(lp9340
S'How'
p9341
aS'do'
p9342
aS'you'
p9343
aS'go'
p9344
aS'from'
p9345
aS'the'
p9346
aS'office'
p9347
aS'to'
p9348
aS'the'
p9349
aS'kitchen'
p9350
asI851
(lp9351
S'How'
p9352
aS'do'
p9353
aS'you'
p9354
aS'go'
p9355
aS'from'
p9356
aS'the'
p9357
aS'kitchen'
p9358
aS'to'
p9359
aS'the'
p9360
aS'hallway'
p9361
asI852
(lp9362
S'How'
p9363
aS'do'
p9364
aS'you'
p9365
aS'go'
p9366
aS'from'
p9367
aS'the'
p9368
aS'kitchen'
p9369
aS'to'
p9370
aS'the'
p9371
aS'bathroom'
p9372
asI853
(lp9373
S'How'
p9374
aS'do'
p9375
aS'you'
p9376
aS'go'
p9377
aS'from'
p9378
aS'the'
p9379
aS'bedroom'
p9380
aS'to'
p9381
aS'the'
p9382
aS'office'
p9383
asI854
(lp9384
S'How'
p9385
aS'do'
p9386
aS'you'
p9387
aS'go'
p9388
aS'from'
p9389
aS'the'
p9390
aS'hallway'
p9391
aS'to'
p9392
aS'the'
p9393
aS'office'
p9394
asI855
(lp9395
S'How'
p9396
aS'do'
p9397
aS'you'
p9398
aS'go'
p9399
aS'from'
p9400
aS'the'
p9401
aS'office'
p9402
aS'to'
p9403
aS'the'
p9404
aS'bedroom'
p9405
asI856
(lp9406
S'How'
p9407
aS'do'
p9408
aS'you'
p9409
aS'go'
p9410
aS'from'
p9411
aS'the'
p9412
aS'kitchen'
p9413
aS'to'
p9414
aS'the'
p9415
aS'garden'
p9416
asI857
(lp9417
S'How'
p9418
aS'do'
p9419
aS'you'
p9420
aS'go'
p9421
aS'from'
p9422
aS'the'
p9423
aS'kitchen'
p9424
aS'to'
p9425
aS'the'
p9426
aS'hallway'
p9427
asI858
(lp9428
S'How'
p9429
aS'do'
p9430
aS'you'
p9431
aS'go'
p9432
aS'from'
p9433
aS'the'
p9434
aS'garden'
p9435
aS'to'
p9436
aS'the'
p9437
aS'office'
p9438
asI859
(lp9439
S'How'
p9440
aS'do'
p9441
aS'you'
p9442
aS'go'
p9443
aS'from'
p9444
aS'the'
p9445
aS'kitchen'
p9446
aS'to'
p9447
aS'the'
p9448
aS'office'
p9449
asI860
(lp9450
S'How'
p9451
aS'do'
p9452
aS'you'
p9453
aS'go'
p9454
aS'from'
p9455
aS'the'
p9456
aS'bedroom'
p9457
aS'to'
p9458
aS'the'
p9459
aS'bathroom'
p9460
asI861
(lp9461
S'How'
p9462
aS'do'
p9463
aS'you'
p9464
aS'go'
p9465
aS'from'
p9466
aS'the'
p9467
aS'kitchen'
p9468
aS'to'
p9469
aS'the'
p9470
aS'bedroom'
p9471
asI862
(lp9472
S'How'
p9473
aS'do'
p9474
aS'you'
p9475
aS'go'
p9476
aS'from'
p9477
aS'the'
p9478
aS'garden'
p9479
aS'to'
p9480
aS'the'
p9481
aS'kitchen'
p9482
asI863
(lp9483
S'How'
p9484
aS'do'
p9485
aS'you'
p9486
aS'go'
p9487
aS'from'
p9488
aS'the'
p9489
aS'bathroom'
p9490
aS'to'
p9491
aS'the'
p9492
aS'kitchen'
p9493
asI864
(lp9494
S'How'
p9495
aS'do'
p9496
aS'you'
p9497
aS'go'
p9498
aS'from'
p9499
aS'the'
p9500
aS'kitchen'
p9501
aS'to'
p9502
aS'the'
p9503
aS'office'
p9504
asI865
(lp9505
S'How'
p9506
aS'do'
p9507
aS'you'
p9508
aS'go'
p9509
aS'from'
p9510
aS'the'
p9511
aS'hallway'
p9512
aS'to'
p9513
aS'the'
p9514
aS'kitchen'
p9515
asI866
(lp9516
S'How'
p9517
aS'do'
p9518
aS'you'
p9519
aS'go'
p9520
aS'from'
p9521
aS'the'
p9522
aS'bathroom'
p9523
aS'to'
p9524
aS'the'
p9525
aS'bedroom'
p9526
asI867
(lp9527
S'How'
p9528
aS'do'
p9529
aS'you'
p9530
aS'go'
p9531
aS'from'
p9532
aS'the'
p9533
aS'kitchen'
p9534
aS'to'
p9535
aS'the'
p9536
aS'bathroom'
p9537
asI868
(lp9538
S'How'
p9539
aS'do'
p9540
aS'you'
p9541
aS'go'
p9542
aS'from'
p9543
aS'the'
p9544
aS'hallway'
p9545
aS'to'
p9546
aS'the'
p9547
aS'garden'
p9548
asI869
(lp9549
S'How'
p9550
aS'do'
p9551
aS'you'
p9552
aS'go'
p9553
aS'from'
p9554
aS'the'
p9555
aS'bathroom'
p9556
aS'to'
p9557
aS'the'
p9558
aS'kitchen'
p9559
asI870
(lp9560
S'How'
p9561
aS'do'
p9562
aS'you'
p9563
aS'go'
p9564
aS'from'
p9565
aS'the'
p9566
aS'garden'
p9567
aS'to'
p9568
aS'the'
p9569
aS'hallway'
p9570
asI871
(lp9571
S'How'
p9572
aS'do'
p9573
aS'you'
p9574
aS'go'
p9575
aS'from'
p9576
aS'the'
p9577
aS'bedroom'
p9578
aS'to'
p9579
aS'the'
p9580
aS'garden'
p9581
asI872
(lp9582
S'How'
p9583
aS'do'
p9584
aS'you'
p9585
aS'go'
p9586
aS'from'
p9587
aS'the'
p9588
aS'garden'
p9589
aS'to'
p9590
aS'the'
p9591
aS'hallway'
p9592
asI873
(lp9593
S'How'
p9594
aS'do'
p9595
aS'you'
p9596
aS'go'
p9597
aS'from'
p9598
aS'the'
p9599
aS'office'
p9600
aS'to'
p9601
aS'the'
p9602
aS'bedroom'
p9603
asI874
(lp9604
S'How'
p9605
aS'do'
p9606
aS'you'
p9607
aS'go'
p9608
aS'from'
p9609
aS'the'
p9610
aS'bedroom'
p9611
aS'to'
p9612
aS'the'
p9613
aS'kitchen'
p9614
asI875
(lp9615
S'How'
p9616
aS'do'
p9617
aS'you'
p9618
aS'go'
p9619
aS'from'
p9620
aS'the'
p9621
aS'garden'
p9622
aS'to'
p9623
aS'the'
p9624
aS'bedroom'
p9625
asI876
(lp9626
S'How'
p9627
aS'do'
p9628
aS'you'
p9629
aS'go'
p9630
aS'from'
p9631
aS'the'
p9632
aS'office'
p9633
aS'to'
p9634
aS'the'
p9635
aS'garden'
p9636
asI877
(lp9637
S'How'
p9638
aS'do'
p9639
aS'you'
p9640
aS'go'
p9641
aS'from'
p9642
aS'the'
p9643
aS'hallway'
p9644
aS'to'
p9645
aS'the'
p9646
aS'kitchen'
p9647
asI878
(lp9648
S'How'
p9649
aS'do'
p9650
aS'you'
p9651
aS'go'
p9652
aS'from'
p9653
aS'the'
p9654
aS'kitchen'
p9655
aS'to'
p9656
aS'the'
p9657
aS'office'
p9658
asI879
(lp9659
S'How'
p9660
aS'do'
p9661
aS'you'
p9662
aS'go'
p9663
aS'from'
p9664
aS'the'
p9665
aS'hallway'
p9666
aS'to'
p9667
aS'the'
p9668
aS'kitchen'
p9669
asI880
(lp9670
S'How'
p9671
aS'do'
p9672
aS'you'
p9673
aS'go'
p9674
aS'from'
p9675
aS'the'
p9676
aS'kitchen'
p9677
aS'to'
p9678
aS'the'
p9679
aS'office'
p9680
asI881
(lp9681
S'How'
p9682
aS'do'
p9683
aS'you'
p9684
aS'go'
p9685
aS'from'
p9686
aS'the'
p9687
aS'garden'
p9688
aS'to'
p9689
aS'the'
p9690
aS'hallway'
p9691
asI882
(lp9692
S'How'
p9693
aS'do'
p9694
aS'you'
p9695
aS'go'
p9696
aS'from'
p9697
aS'the'
p9698
aS'kitchen'
p9699
aS'to'
p9700
aS'the'
p9701
aS'office'
p9702
asI883
(lp9703
S'How'
p9704
aS'do'
p9705
aS'you'
p9706
aS'go'
p9707
aS'from'
p9708
aS'the'
p9709
aS'bedroom'
p9710
aS'to'
p9711
aS'the'
p9712
aS'hallway'
p9713
asI884
(lp9714
S'How'
p9715
aS'do'
p9716
aS'you'
p9717
aS'go'
p9718
aS'from'
p9719
aS'the'
p9720
aS'office'
p9721
aS'to'
p9722
aS'the'
p9723
aS'garden'
p9724
asI885
(lp9725
S'How'
p9726
aS'do'
p9727
aS'you'
p9728
aS'go'
p9729
aS'from'
p9730
aS'the'
p9731
aS'bedroom'
p9732
aS'to'
p9733
aS'the'
p9734
aS'office'
p9735
asI886
(lp9736
S'How'
p9737
aS'do'
p9738
aS'you'
p9739
aS'go'
p9740
aS'from'
p9741
aS'the'
p9742
aS'hallway'
p9743
aS'to'
p9744
aS'the'
p9745
aS'kitchen'
p9746
asI887
(lp9747
S'How'
p9748
aS'do'
p9749
aS'you'
p9750
aS'go'
p9751
aS'from'
p9752
aS'the'
p9753
aS'hallway'
p9754
aS'to'
p9755
aS'the'
p9756
aS'garden'
p9757
asI888
(lp9758
S'How'
p9759
aS'do'
p9760
aS'you'
p9761
aS'go'
p9762
aS'from'
p9763
aS'the'
p9764
aS'garden'
p9765
aS'to'
p9766
aS'the'
p9767
aS'office'
p9768
asI889
(lp9769
S'How'
p9770
aS'do'
p9771
aS'you'
p9772
aS'go'
p9773
aS'from'
p9774
aS'the'
p9775
aS'hallway'
p9776
aS'to'
p9777
aS'the'
p9778
aS'kitchen'
p9779
asI890
(lp9780
S'How'
p9781
aS'do'
p9782
aS'you'
p9783
aS'go'
p9784
aS'from'
p9785
aS'the'
p9786
aS'office'
p9787
aS'to'
p9788
aS'the'
p9789
aS'hallway'
p9790
asI891
(lp9791
S'How'
p9792
aS'do'
p9793
aS'you'
p9794
aS'go'
p9795
aS'from'
p9796
aS'the'
p9797
aS'garden'
p9798
aS'to'
p9799
aS'the'
p9800
aS'kitchen'
p9801
asI892
(lp9802
S'How'
p9803
aS'do'
p9804
aS'you'
p9805
aS'go'
p9806
aS'from'
p9807
aS'the'
p9808
aS'kitchen'
p9809
aS'to'
p9810
aS'the'
p9811
aS'hallway'
p9812
asI893
(lp9813
S'How'
p9814
aS'do'
p9815
aS'you'
p9816
aS'go'
p9817
aS'from'
p9818
aS'the'
p9819
aS'garden'
p9820
aS'to'
p9821
aS'the'
p9822
aS'kitchen'
p9823
asI894
(lp9824
S'How'
p9825
aS'do'
p9826
aS'you'
p9827
aS'go'
p9828
aS'from'
p9829
aS'the'
p9830
aS'office'
p9831
aS'to'
p9832
aS'the'
p9833
aS'garden'
p9834
asI895
(lp9835
S'How'
p9836
aS'do'
p9837
aS'you'
p9838
aS'go'
p9839
aS'from'
p9840
aS'the'
p9841
aS'hallway'
p9842
aS'to'
p9843
aS'the'
p9844
aS'garden'
p9845
asI896
(lp9846
S'How'
p9847
aS'do'
p9848
aS'you'
p9849
aS'go'
p9850
aS'from'
p9851
aS'the'
p9852
aS'kitchen'
p9853
aS'to'
p9854
aS'the'
p9855
aS'office'
p9856
asI897
(lp9857
S'How'
p9858
aS'do'
p9859
aS'you'
p9860
aS'go'
p9861
aS'from'
p9862
aS'the'
p9863
aS'bathroom'
p9864
aS'to'
p9865
aS'the'
p9866
aS'office'
p9867
asI898
(lp9868
S'How'
p9869
aS'do'
p9870
aS'you'
p9871
aS'go'
p9872
aS'from'
p9873
aS'the'
p9874
aS'garden'
p9875
aS'to'
p9876
aS'the'
p9877
aS'bathroom'
p9878
asI899
(lp9879
S'How'
p9880
aS'do'
p9881
aS'you'
p9882
aS'go'
p9883
aS'from'
p9884
aS'the'
p9885
aS'bathroom'
p9886
aS'to'
p9887
aS'the'
p9888
aS'garden'
p9889
asI900
(lp9890
S'How'
p9891
aS'do'
p9892
aS'you'
p9893
aS'go'
p9894
aS'from'
p9895
aS'the'
p9896
aS'bathroom'
p9897
aS'to'
p9898
aS'the'
p9899
aS'kitchen'
p9900
asI901
(lp9901
S'How'
p9902
aS'do'
p9903
aS'you'
p9904
aS'go'
p9905
aS'from'
p9906
aS'the'
p9907
aS'bedroom'
p9908
aS'to'
p9909
aS'the'
p9910
aS'garden'
p9911
asI902
(lp9912
S'How'
p9913
aS'do'
p9914
aS'you'
p9915
aS'go'
p9916
aS'from'
p9917
aS'the'
p9918
aS'kitchen'
p9919
aS'to'
p9920
aS'the'
p9921
aS'bathroom'
p9922
asI903
(lp9923
S'How'
p9924
aS'do'
p9925
aS'you'
p9926
aS'go'
p9927
aS'from'
p9928
aS'the'
p9929
aS'office'
p9930
aS'to'
p9931
aS'the'
p9932
aS'hallway'
p9933
asI904
(lp9934
S'How'
p9935
aS'do'
p9936
aS'you'
p9937
aS'go'
p9938
aS'from'
p9939
aS'the'
p9940
aS'bedroom'
p9941
aS'to'
p9942
aS'the'
p9943
aS'hallway'
p9944
asI905
(lp9945
S'How'
p9946
aS'do'
p9947
aS'you'
p9948
aS'go'
p9949
aS'from'
p9950
aS'the'
p9951
aS'hallway'
p9952
aS'to'
p9953
aS'the'
p9954
aS'kitchen'
p9955
asI906
(lp9956
S'How'
p9957
aS'do'
p9958
aS'you'
p9959
aS'go'
p9960
aS'from'
p9961
aS'the'
p9962
aS'bedroom'
p9963
aS'to'
p9964
aS'the'
p9965
aS'bathroom'
p9966
asI907
(lp9967
S'How'
p9968
aS'do'
p9969
aS'you'
p9970
aS'go'
p9971
aS'from'
p9972
aS'the'
p9973
aS'office'
p9974
aS'to'
p9975
aS'the'
p9976
aS'bedroom'
p9977
asI908
(lp9978
S'How'
p9979
aS'do'
p9980
aS'you'
p9981
aS'go'
p9982
aS'from'
p9983
aS'the'
p9984
aS'bedroom'
p9985
aS'to'
p9986
aS'the'
p9987
aS'office'
p9988
asI909
(lp9989
S'How'
p9990
aS'do'
p9991
aS'you'
p9992
aS'go'
p9993
aS'from'
p9994
aS'the'
p9995
aS'bathroom'
p9996
aS'to'
p9997
aS'the'
p9998
aS'bedroom'
p9999
asI910
(lp10000
S'How'
p10001
aS'do'
p10002
aS'you'
p10003
aS'go'
p10004
aS'from'
p10005
aS'the'
p10006
aS'bathroom'
p10007
aS'to'
p10008
aS'the'
p10009
aS'bedroom'
p10010
asI911
(lp10011
S'How'
p10012
aS'do'
p10013
aS'you'
p10014
aS'go'
p10015
aS'from'
p10016
aS'the'
p10017
aS'kitchen'
p10018
aS'to'
p10019
aS'the'
p10020
aS'office'
p10021
asI912
(lp10022
S'How'
p10023
aS'do'
p10024
aS'you'
p10025
aS'go'
p10026
aS'from'
p10027
aS'the'
p10028
aS'kitchen'
p10029
aS'to'
p10030
aS'the'
p10031
aS'bedroom'
p10032
asI913
(lp10033
S'How'
p10034
aS'do'
p10035
aS'you'
p10036
aS'go'
p10037
aS'from'
p10038
aS'the'
p10039
aS'bedroom'
p10040
aS'to'
p10041
aS'the'
p10042
aS'kitchen'
p10043
asI914
(lp10044
S'How'
p10045
aS'do'
p10046
aS'you'
p10047
aS'go'
p10048
aS'from'
p10049
aS'the'
p10050
aS'hallway'
p10051
aS'to'
p10052
aS'the'
p10053
aS'bedroom'
p10054
asI915
(lp10055
S'How'
p10056
aS'do'
p10057
aS'you'
p10058
aS'go'
p10059
aS'from'
p10060
aS'the'
p10061
aS'office'
p10062
aS'to'
p10063
aS'the'
p10064
aS'hallway'
p10065
asI916
(lp10066
S'How'
p10067
aS'do'
p10068
aS'you'
p10069
aS'go'
p10070
aS'from'
p10071
aS'the'
p10072
aS'office'
p10073
aS'to'
p10074
aS'the'
p10075
aS'kitchen'
p10076
asI917
(lp10077
S'How'
p10078
aS'do'
p10079
aS'you'
p10080
aS'go'
p10081
aS'from'
p10082
aS'the'
p10083
aS'garden'
p10084
aS'to'
p10085
aS'the'
p10086
aS'bedroom'
p10087
asI918
(lp10088
S'How'
p10089
aS'do'
p10090
aS'you'
p10091
aS'go'
p10092
aS'from'
p10093
aS'the'
p10094
aS'garden'
p10095
aS'to'
p10096
aS'the'
p10097
aS'kitchen'
p10098
asI919
(lp10099
S'How'
p10100
aS'do'
p10101
aS'you'
p10102
aS'go'
p10103
aS'from'
p10104
aS'the'
p10105
aS'kitchen'
p10106
aS'to'
p10107
aS'the'
p10108
aS'bedroom'
p10109
asI920
(lp10110
S'How'
p10111
aS'do'
p10112
aS'you'
p10113
aS'go'
p10114
aS'from'
p10115
aS'the'
p10116
aS'office'
p10117
aS'to'
p10118
aS'the'
p10119
aS'bedroom'
p10120
asI921
(lp10121
S'How'
p10122
aS'do'
p10123
aS'you'
p10124
aS'go'
p10125
aS'from'
p10126
aS'the'
p10127
aS'garden'
p10128
aS'to'
p10129
aS'the'
p10130
aS'bathroom'
p10131
asI922
(lp10132
S'How'
p10133
aS'do'
p10134
aS'you'
p10135
aS'go'
p10136
aS'from'
p10137
aS'the'
p10138
aS'hallway'
p10139
aS'to'
p10140
aS'the'
p10141
aS'office'
p10142
asI923
(lp10143
S'How'
p10144
aS'do'
p10145
aS'you'
p10146
aS'go'
p10147
aS'from'
p10148
aS'the'
p10149
aS'kitchen'
p10150
aS'to'
p10151
aS'the'
p10152
aS'garden'
p10153
asI924
(lp10154
S'How'
p10155
aS'do'
p10156
aS'you'
p10157
aS'go'
p10158
aS'from'
p10159
aS'the'
p10160
aS'hallway'
p10161
aS'to'
p10162
aS'the'
p10163
aS'bedroom'
p10164
asI925
(lp10165
S'How'
p10166
aS'do'
p10167
aS'you'
p10168
aS'go'
p10169
aS'from'
p10170
aS'the'
p10171
aS'bedroom'
p10172
aS'to'
p10173
aS'the'
p10174
aS'garden'
p10175
asI926
(lp10176
S'How'
p10177
aS'do'
p10178
aS'you'
p10179
aS'go'
p10180
aS'from'
p10181
aS'the'
p10182
aS'bathroom'
p10183
aS'to'
p10184
aS'the'
p10185
aS'garden'
p10186
asI927
(lp10187
S'How'
p10188
aS'do'
p10189
aS'you'
p10190
aS'go'
p10191
aS'from'
p10192
aS'the'
p10193
aS'garden'
p10194
aS'to'
p10195
aS'the'
p10196
aS'hallway'
p10197
asI928
(lp10198
S'How'
p10199
aS'do'
p10200
aS'you'
p10201
aS'go'
p10202
aS'from'
p10203
aS'the'
p10204
aS'office'
p10205
aS'to'
p10206
aS'the'
p10207
aS'bedroom'
p10208
asI929
(lp10209
S'How'
p10210
aS'do'
p10211
aS'you'
p10212
aS'go'
p10213
aS'from'
p10214
aS'the'
p10215
aS'bedroom'
p10216
aS'to'
p10217
aS'the'
p10218
aS'kitchen'
p10219
asI930
(lp10220
S'How'
p10221
aS'do'
p10222
aS'you'
p10223
aS'go'
p10224
aS'from'
p10225
aS'the'
p10226
aS'office'
p10227
aS'to'
p10228
aS'the'
p10229
aS'kitchen'
p10230
asI931
(lp10231
S'How'
p10232
aS'do'
p10233
aS'you'
p10234
aS'go'
p10235
aS'from'
p10236
aS'the'
p10237
aS'bedroom'
p10238
aS'to'
p10239
aS'the'
p10240
aS'office'
p10241
asI932
(lp10242
S'How'
p10243
aS'do'
p10244
aS'you'
p10245
aS'go'
p10246
aS'from'
p10247
aS'the'
p10248
aS'office'
p10249
aS'to'
p10250
aS'the'
p10251
aS'garden'
p10252
asI933
(lp10253
S'How'
p10254
aS'do'
p10255
aS'you'
p10256
aS'go'
p10257
aS'from'
p10258
aS'the'
p10259
aS'office'
p10260
aS'to'
p10261
aS'the'
p10262
aS'kitchen'
p10263
asI934
(lp10264
S'How'
p10265
aS'do'
p10266
aS'you'
p10267
aS'go'
p10268
aS'from'
p10269
aS'the'
p10270
aS'bedroom'
p10271
aS'to'
p10272
aS'the'
p10273
aS'hallway'
p10274
asI935
(lp10275
S'How'
p10276
aS'do'
p10277
aS'you'
p10278
aS'go'
p10279
aS'from'
p10280
aS'the'
p10281
aS'bedroom'
p10282
aS'to'
p10283
aS'the'
p10284
aS'bathroom'
p10285
asI936
(lp10286
S'How'
p10287
aS'do'
p10288
aS'you'
p10289
aS'go'
p10290
aS'from'
p10291
aS'the'
p10292
aS'garden'
p10293
aS'to'
p10294
aS'the'
p10295
aS'bathroom'
p10296
asI937
(lp10297
S'How'
p10298
aS'do'
p10299
aS'you'
p10300
aS'go'
p10301
aS'from'
p10302
aS'the'
p10303
aS'bedroom'
p10304
aS'to'
p10305
aS'the'
p10306
aS'bathroom'
p10307
asI938
(lp10308
S'How'
p10309
aS'do'
p10310
aS'you'
p10311
aS'go'
p10312
aS'from'
p10313
aS'the'
p10314
aS'garden'
p10315
aS'to'
p10316
aS'the'
p10317
aS'hallway'
p10318
asI939
(lp10319
S'How'
p10320
aS'do'
p10321
aS'you'
p10322
aS'go'
p10323
aS'from'
p10324
aS'the'
p10325
aS'bedroom'
p10326
aS'to'
p10327
aS'the'
p10328
aS'bathroom'
p10329
asI940
(lp10330
S'How'
p10331
aS'do'
p10332
aS'you'
p10333
aS'go'
p10334
aS'from'
p10335
aS'the'
p10336
aS'office'
p10337
aS'to'
p10338
aS'the'
p10339
aS'hallway'
p10340
asI941
(lp10341
S'How'
p10342
aS'do'
p10343
aS'you'
p10344
aS'go'
p10345
aS'from'
p10346
aS'the'
p10347
aS'bedroom'
p10348
aS'to'
p10349
aS'the'
p10350
aS'kitchen'
p10351
asI942
(lp10352
S'How'
p10353
aS'do'
p10354
aS'you'
p10355
aS'go'
p10356
aS'from'
p10357
aS'the'
p10358
aS'kitchen'
p10359
aS'to'
p10360
aS'the'
p10361
aS'garden'
p10362
asI943
(lp10363
S'How'
p10364
aS'do'
p10365
aS'you'
p10366
aS'go'
p10367
aS'from'
p10368
aS'the'
p10369
aS'bedroom'
p10370
aS'to'
p10371
aS'the'
p10372
aS'kitchen'
p10373
asI944
(lp10374
S'How'
p10375
aS'do'
p10376
aS'you'
p10377
aS'go'
p10378
aS'from'
p10379
aS'the'
p10380
aS'office'
p10381
aS'to'
p10382
aS'the'
p10383
aS'garden'
p10384
asI945
(lp10385
S'How'
p10386
aS'do'
p10387
aS'you'
p10388
aS'go'
p10389
aS'from'
p10390
aS'the'
p10391
aS'office'
p10392
aS'to'
p10393
aS'the'
p10394
aS'kitchen'
p10395
asI946
(lp10396
S'How'
p10397
aS'do'
p10398
aS'you'
p10399
aS'go'
p10400
aS'from'
p10401
aS'the'
p10402
aS'bathroom'
p10403
aS'to'
p10404
aS'the'
p10405
aS'office'
p10406
asI947
(lp10407
S'How'
p10408
aS'do'
p10409
aS'you'
p10410
aS'go'
p10411
aS'from'
p10412
aS'the'
p10413
aS'hallway'
p10414
aS'to'
p10415
aS'the'
p10416
aS'office'
p10417
asI948
(lp10418
S'How'
p10419
aS'do'
p10420
aS'you'
p10421
aS'go'
p10422
aS'from'
p10423
aS'the'
p10424
aS'kitchen'
p10425
aS'to'
p10426
aS'the'
p10427
aS'hallway'
p10428
asI949
(lp10429
S'How'
p10430
aS'do'
p10431
aS'you'
p10432
aS'go'
p10433
aS'from'
p10434
aS'the'
p10435
aS'bathroom'
p10436
aS'to'
p10437
aS'the'
p10438
aS'office'
p10439
asI950
(lp10440
S'How'
p10441
aS'do'
p10442
aS'you'
p10443
aS'go'
p10444
aS'from'
p10445
aS'the'
p10446
aS'bedroom'
p10447
aS'to'
p10448
aS'the'
p10449
aS'office'
p10450
asI951
(lp10451
S'How'
p10452
aS'do'
p10453
aS'you'
p10454
aS'go'
p10455
aS'from'
p10456
aS'the'
p10457
aS'kitchen'
p10458
aS'to'
p10459
aS'the'
p10460
aS'bedroom'
p10461
asI952
(lp10462
S'How'
p10463
aS'do'
p10464
aS'you'
p10465
aS'go'
p10466
aS'from'
p10467
aS'the'
p10468
aS'bedroom'
p10469
aS'to'
p10470
aS'the'
p10471
aS'office'
p10472
asI953
(lp10473
S'How'
p10474
aS'do'
p10475
aS'you'
p10476
aS'go'
p10477
aS'from'
p10478
aS'the'
p10479
aS'hallway'
p10480
aS'to'
p10481
aS'the'
p10482
aS'bathroom'
p10483
asI954
(lp10484
S'How'
p10485
aS'do'
p10486
aS'you'
p10487
aS'go'
p10488
aS'from'
p10489
aS'the'
p10490
aS'kitchen'
p10491
aS'to'
p10492
aS'the'
p10493
aS'hallway'
p10494
asI955
(lp10495
S'How'
p10496
aS'do'
p10497
aS'you'
p10498
aS'go'
p10499
aS'from'
p10500
aS'the'
p10501
aS'kitchen'
p10502
aS'to'
p10503
aS'the'
p10504
aS'garden'
p10505
asI956
(lp10506
S'How'
p10507
aS'do'
p10508
aS'you'
p10509
aS'go'
p10510
aS'from'
p10511
aS'the'
p10512
aS'bedroom'
p10513
aS'to'
p10514
aS'the'
p10515
aS'kitchen'
p10516
asI957
(lp10517
S'How'
p10518
aS'do'
p10519
aS'you'
p10520
aS'go'
p10521
aS'from'
p10522
aS'the'
p10523
aS'bathroom'
p10524
aS'to'
p10525
aS'the'
p10526
aS'hallway'
p10527
asI958
(lp10528
S'How'
p10529
aS'do'
p10530
aS'you'
p10531
aS'go'
p10532
aS'from'
p10533
aS'the'
p10534
aS'office'
p10535
aS'to'
p10536
aS'the'
p10537
aS'hallway'
p10538
asI959
(lp10539
S'How'
p10540
aS'do'
p10541
aS'you'
p10542
aS'go'
p10543
aS'from'
p10544
aS'the'
p10545
aS'bathroom'
p10546
aS'to'
p10547
aS'the'
p10548
aS'kitchen'
p10549
asI960
(lp10550
S'How'
p10551
aS'do'
p10552
aS'you'
p10553
aS'go'
p10554
aS'from'
p10555
aS'the'
p10556
aS'bedroom'
p10557
aS'to'
p10558
aS'the'
p10559
aS'garden'
p10560
asI961
(lp10561
S'How'
p10562
aS'do'
p10563
aS'you'
p10564
aS'go'
p10565
aS'from'
p10566
aS'the'
p10567
aS'garden'
p10568
aS'to'
p10569
aS'the'
p10570
aS'bedroom'
p10571
asI962
(lp10572
S'How'
p10573
aS'do'
p10574
aS'you'
p10575
aS'go'
p10576
aS'from'
p10577
aS'the'
p10578
aS'bedroom'
p10579
aS'to'
p10580
aS'the'
p10581
aS'hallway'
p10582
asI963
(lp10583
S'How'
p10584
aS'do'
p10585
aS'you'
p10586
aS'go'
p10587
aS'from'
p10588
aS'the'
p10589
aS'bathroom'
p10590
aS'to'
p10591
aS'the'
p10592
aS'bedroom'
p10593
asI964
(lp10594
S'How'
p10595
aS'do'
p10596
aS'you'
p10597
aS'go'
p10598
aS'from'
p10599
aS'the'
p10600
aS'hallway'
p10601
aS'to'
p10602
aS'the'
p10603
aS'bathroom'
p10604
asI965
(lp10605
S'How'
p10606
aS'do'
p10607
aS'you'
p10608
aS'go'
p10609
aS'from'
p10610
aS'the'
p10611
aS'garden'
p10612
aS'to'
p10613
aS'the'
p10614
aS'kitchen'
p10615
asI966
(lp10616
S'How'
p10617
aS'do'
p10618
aS'you'
p10619
aS'go'
p10620
aS'from'
p10621
aS'the'
p10622
aS'kitchen'
p10623
aS'to'
p10624
aS'the'
p10625
aS'garden'
p10626
asI967
(lp10627
S'How'
p10628
aS'do'
p10629
aS'you'
p10630
aS'go'
p10631
aS'from'
p10632
aS'the'
p10633
aS'kitchen'
p10634
aS'to'
p10635
aS'the'
p10636
aS'bathroom'
p10637
asI968
(lp10638
S'How'
p10639
aS'do'
p10640
aS'you'
p10641
aS'go'
p10642
aS'from'
p10643
aS'the'
p10644
aS'bedroom'
p10645
aS'to'
p10646
aS'the'
p10647
aS'bathroom'
p10648
asI969
(lp10649
S'How'
p10650
aS'do'
p10651
aS'you'
p10652
aS'go'
p10653
aS'from'
p10654
aS'the'
p10655
aS'kitchen'
p10656
aS'to'
p10657
aS'the'
p10658
aS'bathroom'
p10659
asI970
(lp10660
S'How'
p10661
aS'do'
p10662
aS'you'
p10663
aS'go'
p10664
aS'from'
p10665
aS'the'
p10666
aS'garden'
p10667
aS'to'
p10668
aS'the'
p10669
aS'office'
p10670
asI971
(lp10671
S'How'
p10672
aS'do'
p10673
aS'you'
p10674
aS'go'
p10675
aS'from'
p10676
aS'the'
p10677
aS'garden'
p10678
aS'to'
p10679
aS'the'
p10680
aS'office'
p10681
asI972
(lp10682
S'How'
p10683
aS'do'
p10684
aS'you'
p10685
aS'go'
p10686
aS'from'
p10687
aS'the'
p10688
aS'bedroom'
p10689
aS'to'
p10690
aS'the'
p10691
aS'office'
p10692
asI973
(lp10693
S'How'
p10694
aS'do'
p10695
aS'you'
p10696
aS'go'
p10697
aS'from'
p10698
aS'the'
p10699
aS'office'
p10700
aS'to'
p10701
aS'the'
p10702
aS'bathroom'
p10703
asI974
(lp10704
S'How'
p10705
aS'do'
p10706
aS'you'
p10707
aS'go'
p10708
aS'from'
p10709
aS'the'
p10710
aS'office'
p10711
aS'to'
p10712
aS'the'
p10713
aS'hallway'
p10714
asI975
(lp10715
S'How'
p10716
aS'do'
p10717
aS'you'
p10718
aS'go'
p10719
aS'from'
p10720
aS'the'
p10721
aS'bathroom'
p10722
aS'to'
p10723
aS'the'
p10724
aS'bedroom'
p10725
asI976
(lp10726
S'How'
p10727
aS'do'
p10728
aS'you'
p10729
aS'go'
p10730
aS'from'
p10731
aS'the'
p10732
aS'garden'
p10733
aS'to'
p10734
aS'the'
p10735
aS'office'
p10736
asI977
(lp10737
S'How'
p10738
aS'do'
p10739
aS'you'
p10740
aS'go'
p10741
aS'from'
p10742
aS'the'
p10743
aS'bathroom'
p10744
aS'to'
p10745
aS'the'
p10746
aS'kitchen'
p10747
asI978
(lp10748
S'How'
p10749
aS'do'
p10750
aS'you'
p10751
aS'go'
p10752
aS'from'
p10753
aS'the'
p10754
aS'bathroom'
p10755
aS'to'
p10756
aS'the'
p10757
aS'office'
p10758
asI979
(lp10759
S'How'
p10760
aS'do'
p10761
aS'you'
p10762
aS'go'
p10763
aS'from'
p10764
aS'the'
p10765
aS'hallway'
p10766
aS'to'
p10767
aS'the'
p10768
aS'garden'
p10769
asI980
(lp10770
S'How'
p10771
aS'do'
p10772
aS'you'
p10773
aS'go'
p10774
aS'from'
p10775
aS'the'
p10776
aS'garden'
p10777
aS'to'
p10778
aS'the'
p10779
aS'bathroom'
p10780
asI981
(lp10781
S'How'
p10782
aS'do'
p10783
aS'you'
p10784
aS'go'
p10785
aS'from'
p10786
aS'the'
p10787
aS'bedroom'
p10788
aS'to'
p10789
aS'the'
p10790
aS'kitchen'
p10791
asI982
(lp10792
S'How'
p10793
aS'do'
p10794
aS'you'
p10795
aS'go'
p10796
aS'from'
p10797
aS'the'
p10798
aS'kitchen'
p10799
aS'to'
p10800
aS'the'
p10801
aS'bedroom'
p10802
asI983
(lp10803
S'How'
p10804
aS'do'
p10805
aS'you'
p10806
aS'go'
p10807
aS'from'
p10808
aS'the'
p10809
aS'bedroom'
p10810
aS'to'
p10811
aS'the'
p10812
aS'office'
p10813
asI984
(lp10814
S'How'
p10815
aS'do'
p10816
aS'you'
p10817
aS'go'
p10818
aS'from'
p10819
aS'the'
p10820
aS'office'
p10821
aS'to'
p10822
aS'the'
p10823
aS'bedroom'
p10824
asI985
(lp10825
S'How'
p10826
aS'do'
p10827
aS'you'
p10828
aS'go'
p10829
aS'from'
p10830
aS'the'
p10831
aS'bedroom'
p10832
aS'to'
p10833
aS'the'
p10834
aS'garden'
p10835
asI986
(lp10836
S'How'
p10837
aS'do'
p10838
aS'you'
p10839
aS'go'
p10840
aS'from'
p10841
aS'the'
p10842
aS'bathroom'
p10843
aS'to'
p10844
aS'the'
p10845
aS'office'
p10846
asI987
(lp10847
S'How'
p10848
aS'do'
p10849
aS'you'
p10850
aS'go'
p10851
aS'from'
p10852
aS'the'
p10853
aS'hallway'
p10854
aS'to'
p10855
aS'the'
p10856
aS'office'
p10857
asI988
(lp10858
S'How'
p10859
aS'do'
p10860
aS'you'
p10861
aS'go'
p10862
aS'from'
p10863
aS'the'
p10864
aS'hallway'
p10865
aS'to'
p10866
aS'the'
p10867
aS'garden'
p10868
asI989
(lp10869
S'How'
p10870
aS'do'
p10871
aS'you'
p10872
aS'go'
p10873
aS'from'
p10874
aS'the'
p10875
aS'garden'
p10876
aS'to'
p10877
aS'the'
p10878
aS'bathroom'
p10879
asI990
(lp10880
S'How'
p10881
aS'do'
p10882
aS'you'
p10883
aS'go'
p10884
aS'from'
p10885
aS'the'
p10886
aS'bathroom'
p10887
aS'to'
p10888
aS'the'
p10889
aS'bedroom'
p10890
asI991
(lp10891
S'How'
p10892
aS'do'
p10893
aS'you'
p10894
aS'go'
p10895
aS'from'
p10896
aS'the'
p10897
aS'kitchen'
p10898
aS'to'
p10899
aS'the'
p10900
aS'bathroom'
p10901
asI992
(lp10902
S'How'
p10903
aS'do'
p10904
aS'you'
p10905
aS'go'
p10906
aS'from'
p10907
aS'the'
p10908
aS'bathroom'
p10909
aS'to'
p10910
aS'the'
p10911
aS'kitchen'
p10912
asI993
(lp10913
S'How'
p10914
aS'do'
p10915
aS'you'
p10916
aS'go'
p10917
aS'from'
p10918
aS'the'
p10919
aS'bathroom'
p10920
aS'to'
p10921
aS'the'
p10922
aS'bedroom'
p10923
asI994
(lp10924
S'How'
p10925
aS'do'
p10926
aS'you'
p10927
aS'go'
p10928
aS'from'
p10929
aS'the'
p10930
aS'bedroom'
p10931
aS'to'
p10932
aS'the'
p10933
aS'kitchen'
p10934
asI995
(lp10935
S'How'
p10936
aS'do'
p10937
aS'you'
p10938
aS'go'
p10939
aS'from'
p10940
aS'the'
p10941
aS'kitchen'
p10942
aS'to'
p10943
aS'the'
p10944
aS'office'
p10945
asI996
(lp10946
S'How'
p10947
aS'do'
p10948
aS'you'
p10949
aS'go'
p10950
aS'from'
p10951
aS'the'
p10952
aS'office'
p10953
aS'to'
p10954
aS'the'
p10955
aS'hallway'
p10956
asI997
(lp10957
S'How'
p10958
aS'do'
p10959
aS'you'
p10960
aS'go'
p10961
aS'from'
p10962
aS'the'
p10963
aS'hallway'
p10964
aS'to'
p10965
aS'the'
p10966
aS'office'
p10967
asI998
(lp10968
S'How'
p10969
aS'do'
p10970
aS'you'
p10971
aS'go'
p10972
aS'from'
p10973
aS'the'
p10974
aS'bedroom'
p10975
aS'to'
p10976
aS'the'
p10977
aS'bathroom'
p10978
asI999
(lp10979
S'How'
p10980
aS'do'
p10981
aS'you'
p10982
aS'go'
p10983
aS'from'
p10984
aS'the'
p10985
aS'hallway'
p10986
aS'to'
p10987
aS'the'
p10988
aS'bathroom'
p10989
asI1000
(lp10990
S'How'
p10991
aS'do'
p10992
aS'you'
p10993
aS'go'
p10994
aS'from'
p10995
aS'the'
p10996
aS'bedroom'
p10997
aS'to'
p10998
aS'the'
p10999
aS'garden'
p11000
as.