(dp0
S'216'
p1
I7
sS'217'
p2
I8
sS'214'
p3
I9
sS'215'
p4
I10
sS'212'
p5
I11
sS'213'
p6
I12
sS'office'
p7
I1
sS'211'
p8
I13
sS'218'
p9
I15
sS'219'
p10
I16
sS'133'
p11
I17
sS'132'
p12
I18
sS'131'
p13
I19
sS'Daniel'
p14
I20
sS'137'
p15
I21
sS'136'
p16
I22
sS'135'
p17
I23
sS'134'
p18
I79
sS'95'
p19
I189
sS'139'
p20
I24
sS'138'
p21
I100
sS'milk'
p22
I26
sS'before'
p23
I27
sS'24'
p24
I28
sS'25'
p25
I29
sS'26'
p26
I30
sS'27'
p27
I31
sS'20'
p28
I32
sS'21'
p29
I33
sS'22'
p30
I34
sS'23'
p31
I35
sS'223'
p32
I137
sS'28'
p33
I37
sS'29'
p34
I38
sS'222'
p35
I156
sS'to'
p36
I40
sS'4'
p37
I41
sS'8'
p38
I42
sS'220'
p39
I168
sS'68'
p40
I147
sS'87'
p41
I97
sS'garden'
p42
I5
sS'120'
p43
I45
sS'121'
p44
I46
sS'122'
p45
I47
sS'123'
p46
I48
sS'124'
p47
I49
sS'125'
p48
I50
sS'126'
p49
I51
sS'127'
p50
I52
sS'128'
p51
I53
sS'129'
p52
I54
sS'Where'
p53
I55
sS'91'
p54
I185
sS'down'
p55
I139
sS'59'
p56
I58
sS'58'
p57
I59
sS'61'
p58
I140
sS'55'
p59
I60
sS'54'
p60
I61
sS'57'
p61
I62
sS'56'
p62
I63
sS'51'
p63
I64
sS'50'
p64
I65
sS'53'
p65
I66
sS'52'
p66
I67
sS'discarded'
p67
I68
sS'130'
p68
I69
sS'went'
p69
I70
sS'90'
p70
I186
sS'164'
p71
I71
sS'93'
p72
I187
sS'199'
p73
I73
sS'198'
p74
I101
sS'hallway'
p75
I3
sS'195'
p76
I76
sS'194'
p77
I77
sS'197'
p78
I78
sS'bedroom'
p79
I6
sS'191'
p80
I80
sS'back'
p81
I81
sS'193'
p82
I82
sS'192'
p83
I176
sS'115'
p84
I84
sS'114'
p85
I85
sS'88'
p86
I86
sS'116'
p87
I87
sS'111'
p88
I88
sS'110'
p89
I89
sS'113'
p90
I90
sS'112'
p91
I91
sS'82'
p92
I92
sS'83'
p93
I93
sS'80'
p94
I94
sS'John'
p95
I95
sS'119'
p96
I96
sS'118'
p97
I56
sS'84'
p98
I98
sS'85'
p99
I99
sS'140'
p100
I241
sS'141'
p101
I242
sS'226'
p102
I103
sS'3'
p103
I105
sS'7'
p104
I107
sS'got'
p105
I108
sS'92'
p106
I188
sS'Mary'
p107
I232
sS'225'
p108
I111
sS'108'
p109
I113
sS'109'
p110
I114
sS'146'
p111
I236
sS'102'
p112
I115
sS'103'
p113
I116
sS'100'
p114
I117
sS'101'
p115
I118
sS'106'
p116
I119
sS'107'
p117
I120
sS'104'
p118
I121
sS'kitchen'
p119
I4
sS'39'
p120
I123
sS'38'
p121
I124
sS'journeyed'
p122
I125
sS'33'
p123
I126
sS'32'
p124
I127
sS'31'
p125
I128
sS'30'
p126
I129
sS'37'
p127
I218
sS'36'
p128
I131
sS'35'
p129
I104
sS'34'
p130
I133
sS'94'
p131
I190
sS'200'
p132
I134
sS'apple'
p133
I136
sS'60'
p134
I57
sS'put'
p135
I130
sS'62'
p136
I141
sS'63'
p137
I142
sS'64'
p138
I143
sS'65'
p139
I144
sS'179'
p140
I74
sS'178'
p141
I112
sS'177'
p142
I106
sS'176'
p143
I138
sS'175'
p144
I149
sS'174'
p145
I150
sS'173'
p146
I151
sS'172'
p147
I152
sS'171'
p148
I153
sS'170'
p149
I109
sS'bathroom'
p150
I2
sS'156'
p151
I216
sS'69'
p152
I148
sS'210'
p153
I183
sS'there'
p154
I159
sS'145'
p155
I238
sS'182'
p156
I160
sS'183'
p157
I161
sS'180'
p158
I162
sS'181'
p159
I157
sS'186'
p160
I169
sS'187'
p161
I165
sS'184'
p162
I166
sS'185'
p163
I158
sS'travelled'
p164
I170
sS'105'
p165
I122
sS'was'
p166
I171
sS'196'
p167
I173
sS'221'
p168
I174
sS'97'
p169
I191
sS'6'
p170
I167
sS'142'
p171
I239
sS'took'
p172
I177
sS'190'
p173
I178
sS'99'
p174
I179
sS'98'
p175
I180
sS'168'
p176
I181
sS'169'
p177
I182
sS'228'
p178
I184
sS'227'
p179
I44
sS'165'
p180
I14
sS'166'
p181
I110
sS'167'
p182
I83
sS'160'
p183
I36
sS'161'
p184
I39
sS'162'
p185
I164
sS'163'
p186
I43
sS'11'
p187
I193
sS'10'
p188
I194
sS'13'
p189
I195
sS'12'
p190
I196
sS'15'
p191
I197
sS'14'
p192
I198
sS'66'
p193
I145
sS'16'
p194
I200
sS'19'
p195
I201
sS'18'
p196
I202
sS'143'
p197
I240
sS'188'
p198
I203
sS'117'
p199
I132
sS'grabbed'
p200
I154
sS'158'
p201
I207
sS'17'
p202
I199
sS'151'
p203
I209
sS'150'
p204
I210
sS'153'
p205
I211
sS'152'
p206
I212
sS'155'
p207
I213
sS'picked'
p208
I214
sS'157'
p209
I215
sS'up'
p210
I204
sS'159'
p211
I217
sS'189'
p212
I206
sS'moved'
p213
I219
sS'dropped'
p214
I220
sS'81'
p215
I222
sS'48'
p216
I223
sS'49'
p217
I224
sS'46'
p218
I225
sS'86'
p219
I226
sS'44'
p220
I227
sS'45'
p221
I228
sS'42'
p222
I229
sS'43'
p223
I230
sS'40'
p224
I231
sS'41'
p225
I25
sS'1'
p226
I233
sS'5'
p227
I234
sS'9'
p228
I235
sS'201'
p229
I72
sS'147'
p230
I75
sS'203'
p231
I155
sS'202'
p232
I172
sS'205'
p233
I135
sS'204'
p234
I208
sS'207'
p235
I221
sS'206'
p236
I102
sS'209'
p237
I243
sS'208'
p238
I244
sS'football'
p239
I245
sS'148'
p240
I246
sS'149'
p241
I247
sS'77'
p242
I248
sS'76'
p243
I249
sS'75'
p244
I250
sS'74'
p245
I251
sS'73'
p246
I252
sS'72'
p247
I253
sS'71'
p248
I254
sS'70'
p249
I255
sS'154'
p250
I256
sS'96'
p251
I192
sS'Sandra'
p252
I175
sS'79'
p253
I257
sS'78'
p254
I258
sS'2'
p255
I163
sS'224'
p256
I259
sS'144'
p257
I237
sS'89'
p258
I205
sS'47'
p259
I260
sS'the'
p260
I261
sS'67'
p261
I146
sS'left'
p262
I262
s.