(dp0
I1
(lp1
S'What'
p2
aS'is'
p3
aS'north'
p4
aS'of'
p5
aS'the'
p6
aS'kitchen'
p7
asI2
(lp8
S'What'
p9
aS'is'
p10
aS'the'
p11
aS'garden'
p12
aS'east'
p13
aS'of'
p14
asI3
(lp15
S'What'
p16
aS'is'
p17
aS'north'
p18
aS'of'
p19
aS'the'
p20
aS'garden'
p21
asI4
(lp22
S'What'
p23
aS'is'
p24
aS'the'
p25
aS'hallway'
p26
aS'east'
p27
aS'of'
p28
asI5
(lp29
S'What'
p30
aS'is'
p31
aS'the'
p32
aS'bedroom'
p33
aS'east'
p34
aS'of'
p35
asI6
(lp36
S'What'
p37
aS'is'
p38
aS'the'
p39
aS'office'
p40
aS'north'
p41
aS'of'
p42
asI7
(lp43
S'What'
p44
aS'is'
p45
aS'west'
p46
aS'of'
p47
aS'the'
p48
aS'office'
p49
asI8
(lp50
S'What'
p51
aS'is'
p52
aS'west'
p53
aS'of'
p54
aS'the'
p55
aS'hallway'
p56
asI9
(lp57
S'What'
p58
aS'is'
p59
aS'west'
p60
aS'of'
p61
aS'the'
p62
aS'hallway'
p63
asI10
(lp64
S'What'
p65
aS'is'
p66
aS'east'
p67
aS'of'
p68
aS'the'
p69
aS'hallway'
p70
asI11
(lp71
S'What'
p72
aS'is'
p73
aS'north'
p74
aS'of'
p75
aS'the'
p76
aS'bedroom'
p77
asI12
(lp78
S'What'
p79
aS'is'
p80
aS'the'
p81
aS'kitchen'
p82
aS'south'
p83
aS'of'
p84
asI13
(lp85
S'What'
p86
aS'is'
p87
aS'the'
p88
aS'bathroom'
p89
aS'south'
p90
aS'of'
p91
asI14
(lp92
S'What'
p93
aS'is'
p94
aS'the'
p95
aS'office'
p96
aS'east'
p97
aS'of'
p98
asI15
(lp99
S'What'
p100
aS'is'
p101
aS'the'
p102
aS'bathroom'
p103
aS'east'
p104
aS'of'
p105
asI16
(lp106
S'What'
p107
aS'is'
p108
aS'the'
p109
aS'bedroom'
p110
aS'east'
p111
aS'of'
p112
asI17
(lp113
S'What'
p114
aS'is'
p115
aS'the'
p116
aS'bedroom'
p117
aS'east'
p118
aS'of'
p119
asI18
(lp120
S'What'
p121
aS'is'
p122
aS'the'
p123
aS'office'
p124
aS'west'
p125
aS'of'
p126
asI19
(lp127
S'What'
p128
aS'is'
p129
aS'the'
p130
aS'garden'
p131
aS'north'
p132
aS'of'
p133
asI20
(lp134
S'What'
p135
aS'is'
p136
aS'the'
p137
aS'bedroom'
p138
aS'south'
p139
aS'of'
p140
asI21
(lp141
S'What'
p142
aS'is'
p143
aS'the'
p144
aS'bathroom'
p145
aS'south'
p146
aS'of'
p147
asI22
(lp148
S'What'
p149
aS'is'
p150
aS'the'
p151
aS'bedroom'
p152
aS'south'
p153
aS'of'
p154
asI23
(lp155
S'What'
p156
aS'is'
p157
aS'south'
p158
aS'of'
p159
aS'the'
p160
aS'kitchen'
p161
asI24
(lp162
S'What'
p163
aS'is'
p164
aS'south'
p165
aS'of'
p166
aS'the'
p167
aS'garden'
p168
asI25
(lp169
S'What'
p170
aS'is'
p171
aS'the'
p172
aS'bathroom'
p173
aS'west'
p174
aS'of'
p175
asI26
(lp176
S'What'
p177
aS'is'
p178
aS'the'
p179
aS'garden'
p180
aS'north'
p181
aS'of'
p182
asI27
(lp183
S'What'
p184
aS'is'
p185
aS'the'
p186
aS'garden'
p187
aS'west'
p188
aS'of'
p189
asI28
(lp190
S'What'
p191
aS'is'
p192
aS'north'
p193
aS'of'
p194
aS'the'
p195
aS'garden'
p196
asI29
(lp197
S'What'
p198
aS'is'
p199
aS'the'
p200
aS'bedroom'
p201
aS'east'
p202
aS'of'
p203
asI30
(lp204
S'What'
p205
aS'is'
p206
aS'north'
p207
aS'of'
p208
aS'the'
p209
aS'kitchen'
p210
asI31
(lp211
S'What'
p212
aS'is'
p213
aS'the'
p214
aS'office'
p215
aS'south'
p216
aS'of'
p217
asI32
(lp218
S'What'
p219
aS'is'
p220
aS'the'
p221
aS'bedroom'
p222
aS'north'
p223
aS'of'
p224
asI33
(lp225
S'What'
p226
aS'is'
p227
aS'the'
p228
aS'kitchen'
p229
aS'west'
p230
aS'of'
p231
asI34
(lp232
S'What'
p233
aS'is'
p234
aS'the'
p235
aS'office'
p236
aS'south'
p237
aS'of'
p238
asI35
(lp239
S'What'
p240
aS'is'
p241
aS'south'
p242
aS'of'
p243
aS'the'
p244
aS'kitchen'
p245
asI36
(lp246
S'What'
p247
aS'is'
p248
aS'west'
p249
aS'of'
p250
aS'the'
p251
aS'bathroom'
p252
asI37
(lp253
S'What'
p254
aS'is'
p255
aS'the'
p256
aS'bathroom'
p257
aS'west'
p258
aS'of'
p259
asI38
(lp260
S'What'
p261
aS'is'
p262
aS'the'
p263
aS'hallway'
p264
aS'south'
p265
aS'of'
p266
asI39
(lp267
S'What'
p268
aS'is'
p269
aS'east'
p270
aS'of'
p271
aS'the'
p272
aS'garden'
p273
asI40
(lp274
S'What'
p275
aS'is'
p276
aS'east'
p277
aS'of'
p278
aS'the'
p279
aS'bedroom'
p280
asI41
(lp281
S'What'
p282
aS'is'
p283
aS'the'
p284
aS'office'
p285
aS'south'
p286
aS'of'
p287
asI42
(lp288
S'What'
p289
aS'is'
p290
aS'south'
p291
aS'of'
p292
aS'the'
p293
aS'bedroom'
p294
asI43
(lp295
S'What'
p296
aS'is'
p297
aS'north'
p298
aS'of'
p299
aS'the'
p300
aS'bathroom'
p301
asI44
(lp302
S'What'
p303
aS'is'
p304
aS'the'
p305
aS'garden'
p306
aS'north'
p307
aS'of'
p308
asI45
(lp309
S'What'
p310
aS'is'
p311
aS'the'
p312
aS'office'
p313
aS'south'
p314
aS'of'
p315
asI46
(lp316
S'What'
p317
aS'is'
p318
aS'west'
p319
aS'of'
p320
aS'the'
p321
aS'hallway'
p322
asI47
(lp323
S'What'
p324
aS'is'
p325
aS'north'
p326
aS'of'
p327
aS'the'
p328
aS'office'
p329
asI48
(lp330
S'What'
p331
aS'is'
p332
aS'south'
p333
aS'of'
p334
aS'the'
p335
aS'office'
p336
asI49
(lp337
S'What'
p338
aS'is'
p339
aS'the'
p340
aS'office'
p341
aS'east'
p342
aS'of'
p343
asI50
(lp344
S'What'
p345
aS'is'
p346
aS'east'
p347
aS'of'
p348
aS'the'
p349
aS'bedroom'
p350
asI51
(lp351
S'What'
p352
aS'is'
p353
aS'south'
p354
aS'of'
p355
aS'the'
p356
aS'kitchen'
p357
asI52
(lp358
S'What'
p359
aS'is'
p360
aS'west'
p361
aS'of'
p362
aS'the'
p363
aS'office'
p364
asI53
(lp365
S'What'
p366
aS'is'
p367
aS'the'
p368
aS'hallway'
p369
aS'south'
p370
aS'of'
p371
asI54
(lp372
S'What'
p373
aS'is'
p374
aS'the'
p375
aS'office'
p376
aS'west'
p377
aS'of'
p378
asI55
(lp379
S'What'
p380
aS'is'
p381
aS'west'
p382
aS'of'
p383
aS'the'
p384
aS'office'
p385
asI56
(lp386
S'What'
p387
aS'is'
p388
aS'the'
p389
aS'garden'
p390
aS'east'
p391
aS'of'
p392
asI57
(lp393
S'What'
p394
aS'is'
p395
aS'north'
p396
aS'of'
p397
aS'the'
p398
aS'garden'
p399
asI58
(lp400
S'What'
p401
aS'is'
p402
aS'west'
p403
aS'of'
p404
aS'the'
p405
aS'bedroom'
p406
asI59
(lp407
S'What'
p408
aS'is'
p409
aS'west'
p410
aS'of'
p411
aS'the'
p412
aS'bathroom'
p413
asI60
(lp414
S'What'
p415
aS'is'
p416
aS'the'
p417
aS'garden'
p418
aS'south'
p419
aS'of'
p420
asI61
(lp421
S'What'
p422
aS'is'
p423
aS'the'
p424
aS'bathroom'
p425
aS'west'
p426
aS'of'
p427
asI62
(lp428
S'What'
p429
aS'is'
p430
aS'west'
p431
aS'of'
p432
aS'the'
p433
aS'hallway'
p434
asI63
(lp435
S'What'
p436
aS'is'
p437
aS'the'
p438
aS'bathroom'
p439
aS'south'
p440
aS'of'
p441
asI64
(lp442
S'What'
p443
aS'is'
p444
aS'north'
p445
aS'of'
p446
aS'the'
p447
aS'hallway'
p448
asI65
(lp449
S'What'
p450
aS'is'
p451
aS'the'
p452
aS'kitchen'
p453
aS'east'
p454
aS'of'
p455
asI66
(lp456
S'What'
p457
aS'is'
p458
aS'the'
p459
aS'bathroom'
p460
aS'west'
p461
aS'of'
p462
asI67
(lp463
S'What'
p464
aS'is'
p465
aS'the'
p466
aS'office'
p467
aS'east'
p468
aS'of'
p469
asI68
(lp470
S'What'
p471
aS'is'
p472
aS'east'
p473
aS'of'
p474
aS'the'
p475
aS'bedroom'
p476
asI69
(lp477
S'What'
p478
aS'is'
p479
aS'the'
p480
aS'office'
p481
aS'north'
p482
aS'of'
p483
asI70
(lp484
S'What'
p485
aS'is'
p486
aS'west'
p487
aS'of'
p488
aS'the'
p489
aS'bathroom'
p490
asI71
(lp491
S'What'
p492
aS'is'
p493
aS'south'
p494
aS'of'
p495
aS'the'
p496
aS'garden'
p497
asI72
(lp498
S'What'
p499
aS'is'
p500
aS'the'
p501
aS'kitchen'
p502
aS'west'
p503
aS'of'
p504
asI73
(lp505
S'What'
p506
aS'is'
p507
aS'the'
p508
aS'garden'
p509
aS'north'
p510
aS'of'
p511
asI74
(lp512
S'What'
p513
aS'is'
p514
aS'south'
p515
aS'of'
p516
aS'the'
p517
aS'bathroom'
p518
asI75
(lp519
S'What'
p520
aS'is'
p521
aS'the'
p522
aS'bathroom'
p523
aS'west'
p524
aS'of'
p525
asI76
(lp526
S'What'
p527
aS'is'
p528
aS'north'
p529
aS'of'
p530
aS'the'
p531
aS'bathroom'
p532
asI77
(lp533
S'What'
p534
aS'is'
p535
aS'west'
p536
aS'of'
p537
aS'the'
p538
aS'garden'
p539
asI78
(lp540
S'What'
p541
aS'is'
p542
aS'the'
p543
aS'garden'
p544
aS'north'
p545
aS'of'
p546
asI79
(lp547
S'What'
p548
aS'is'
p549
aS'north'
p550
aS'of'
p551
aS'the'
p552
aS'bathroom'
p553
asI80
(lp554
S'What'
p555
aS'is'
p556
aS'west'
p557
aS'of'
p558
aS'the'
p559
aS'bathroom'
p560
asI81
(lp561
S'What'
p562
aS'is'
p563
aS'north'
p564
aS'of'
p565
aS'the'
p566
aS'garden'
p567
asI82
(lp568
S'What'
p569
aS'is'
p570
aS'the'
p571
aS'hallway'
p572
aS'south'
p573
aS'of'
p574
asI83
(lp575
S'What'
p576
aS'is'
p577
aS'north'
p578
aS'of'
p579
aS'the'
p580
aS'garden'
p581
asI84
(lp582
S'What'
p583
aS'is'
p584
aS'east'
p585
aS'of'
p586
aS'the'
p587
aS'bedroom'
p588
asI85
(lp589
S'What'
p590
aS'is'
p591
aS'south'
p592
aS'of'
p593
aS'the'
p594
aS'bathroom'
p595
asI86
(lp596
S'What'
p597
aS'is'
p598
aS'south'
p599
aS'of'
p600
aS'the'
p601
aS'office'
p602
asI87
(lp603
S'What'
p604
aS'is'
p605
aS'west'
p606
aS'of'
p607
aS'the'
p608
aS'office'
p609
asI88
(lp610
S'What'
p611
aS'is'
p612
aS'west'
p613
aS'of'
p614
aS'the'
p615
aS'office'
p616
asI89
(lp617
S'What'
p618
aS'is'
p619
aS'the'
p620
aS'bathroom'
p621
aS'east'
p622
aS'of'
p623
asI90
(lp624
S'What'
p625
aS'is'
p626
aS'west'
p627
aS'of'
p628
aS'the'
p629
aS'bathroom'
p630
asI91
(lp631
S'What'
p632
aS'is'
p633
aS'south'
p634
aS'of'
p635
aS'the'
p636
aS'bedroom'
p637
asI92
(lp638
S'What'
p639
aS'is'
p640
aS'the'
p641
aS'kitchen'
p642
aS'south'
p643
aS'of'
p644
asI93
(lp645
S'What'
p646
aS'is'
p647
aS'east'
p648
aS'of'
p649
aS'the'
p650
aS'kitchen'
p651
asI94
(lp652
S'What'
p653
aS'is'
p654
aS'south'
p655
aS'of'
p656
aS'the'
p657
aS'garden'
p658
asI95
(lp659
S'What'
p660
aS'is'
p661
aS'the'
p662
aS'hallway'
p663
aS'west'
p664
aS'of'
p665
asI96
(lp666
S'What'
p667
aS'is'
p668
aS'east'
p669
aS'of'
p670
aS'the'
p671
aS'bedroom'
p672
asI97
(lp673
S'What'
p674
aS'is'
p675
aS'the'
p676
aS'hallway'
p677
aS'south'
p678
aS'of'
p679
asI98
(lp680
S'What'
p681
aS'is'
p682
aS'the'
p683
aS'hallway'
p684
aS'west'
p685
aS'of'
p686
asI99
(lp687
S'What'
p688
aS'is'
p689
aS'the'
p690
aS'garden'
p691
aS'north'
p692
aS'of'
p693
asI100
(lp694
S'What'
p695
aS'is'
p696
aS'the'
p697
aS'bathroom'
p698
aS'south'
p699
aS'of'
p700
asI101
(lp701
S'What'
p702
aS'is'
p703
aS'east'
p704
aS'of'
p705
aS'the'
p706
aS'garden'
p707
asI102
(lp708
S'What'
p709
aS'is'
p710
aS'the'
p711
aS'hallway'
p712
aS'south'
p713
aS'of'
p714
asI103
(lp715
S'What'
p716
aS'is'
p717
aS'east'
p718
aS'of'
p719
aS'the'
p720
aS'hallway'
p721
asI104
(lp722
S'What'
p723
aS'is'
p724
aS'the'
p725
aS'garden'
p726
aS'west'
p727
aS'of'
p728
asI105
(lp729
S'What'
p730
aS'is'
p731
aS'the'
p732
aS'garden'
p733
aS'east'
p734
aS'of'
p735
asI106
(lp736
S'What'
p737
aS'is'
p738
aS'west'
p739
aS'of'
p740
aS'the'
p741
aS'bedroom'
p742
asI107
(lp743
S'What'
p744
aS'is'
p745
aS'the'
p746
aS'garden'
p747
aS'east'
p748
aS'of'
p749
asI108
(lp750
S'What'
p751
aS'is'
p752
aS'the'
p753
aS'bedroom'
p754
aS'west'
p755
aS'of'
p756
asI109
(lp757
S'What'
p758
aS'is'
p759
aS'south'
p760
aS'of'
p761
aS'the'
p762
aS'bedroom'
p763
asI110
(lp764
S'What'
p765
aS'is'
p766
aS'the'
p767
aS'garden'
p768
aS'south'
p769
aS'of'
p770
asI111
(lp771
S'What'
p772
aS'is'
p773
aS'the'
p774
aS'garden'
p775
aS'south'
p776
aS'of'
p777
asI112
(lp778
S'What'
p779
aS'is'
p780
aS'south'
p781
aS'of'
p782
aS'the'
p783
aS'bathroom'
p784
asI113
(lp785
S'What'
p786
aS'is'
p787
aS'the'
p788
aS'hallway'
p789
aS'west'
p790
aS'of'
p791
asI114
(lp792
S'What'
p793
aS'is'
p794
aS'the'
p795
aS'bedroom'
p796
aS'north'
p797
aS'of'
p798
asI115
(lp799
S'What'
p800
aS'is'
p801
aS'the'
p802
aS'garden'
p803
aS'north'
p804
aS'of'
p805
asI116
(lp806
S'What'
p807
aS'is'
p808
aS'east'
p809
aS'of'
p810
aS'the'
p811
aS'kitchen'
p812
asI117
(lp813
S'What'
p814
aS'is'
p815
aS'the'
p816
aS'garden'
p817
aS'west'
p818
aS'of'
p819
asI118
(lp820
S'What'
p821
aS'is'
p822
aS'south'
p823
aS'of'
p824
aS'the'
p825
aS'garden'
p826
asI119
(lp827
S'What'
p828
aS'is'
p829
aS'north'
p830
aS'of'
p831
aS'the'
p832
aS'hallway'
p833
asI120
(lp834
S'What'
p835
aS'is'
p836
aS'the'
p837
aS'bedroom'
p838
aS'west'
p839
aS'of'
p840
asI121
(lp841
S'What'
p842
aS'is'
p843
aS'west'
p844
aS'of'
p845
aS'the'
p846
aS'garden'
p847
asI122
(lp848
S'What'
p849
aS'is'
p850
aS'the'
p851
aS'office'
p852
aS'south'
p853
aS'of'
p854
asI123
(lp855
S'What'
p856
aS'is'
p857
aS'the'
p858
aS'bedroom'
p859
aS'south'
p860
aS'of'
p861
asI124
(lp862
S'What'
p863
aS'is'
p864
aS'the'
p865
aS'kitchen'
p866
aS'south'
p867
aS'of'
p868
asI125
(lp869
S'What'
p870
aS'is'
p871
aS'the'
p872
aS'bedroom'
p873
aS'north'
p874
aS'of'
p875
asI126
(lp876
S'What'
p877
aS'is'
p878
aS'the'
p879
aS'bathroom'
p880
aS'east'
p881
aS'of'
p882
asI127
(lp883
S'What'
p884
aS'is'
p885
aS'south'
p886
aS'of'
p887
aS'the'
p888
aS'bedroom'
p889
asI128
(lp890
S'What'
p891
aS'is'
p892
aS'south'
p893
aS'of'
p894
aS'the'
p895
aS'hallway'
p896
asI129
(lp897
S'What'
p898
aS'is'
p899
aS'the'
p900
aS'bathroom'
p901
aS'north'
p902
aS'of'
p903
asI130
(lp904
S'What'
p905
aS'is'
p906
aS'the'
p907
aS'kitchen'
p908
aS'west'
p909
aS'of'
p910
asI131
(lp911
S'What'
p912
aS'is'
p913
aS'west'
p914
aS'of'
p915
aS'the'
p916
aS'garden'
p917
asI132
(lp918
S'What'
p919
aS'is'
p920
aS'south'
p921
aS'of'
p922
aS'the'
p923
aS'garden'
p924
asI133
(lp925
S'What'
p926
aS'is'
p927
aS'the'
p928
aS'kitchen'
p929
aS'west'
p930
aS'of'
p931
asI134
(lp932
S'What'
p933
aS'is'
p934
aS'east'
p935
aS'of'
p936
aS'the'
p937
aS'garden'
p938
asI135
(lp939
S'What'
p940
aS'is'
p941
aS'east'
p942
aS'of'
p943
aS'the'
p944
aS'office'
p945
asI136
(lp946
S'What'
p947
aS'is'
p948
aS'the'
p949
aS'kitchen'
p950
aS'east'
p951
aS'of'
p952
asI137
(lp953
S'What'
p954
aS'is'
p955
aS'south'
p956
aS'of'
p957
aS'the'
p958
aS'office'
p959
asI138
(lp960
S'What'
p961
aS'is'
p962
aS'the'
p963
aS'bathroom'
p964
aS'west'
p965
aS'of'
p966
asI139
(lp967
S'What'
p968
aS'is'
p969
aS'the'
p970
aS'hallway'
p971
aS'east'
p972
aS'of'
p973
asI140
(lp974
S'What'
p975
aS'is'
p976
aS'south'
p977
aS'of'
p978
aS'the'
p979
aS'bedroom'
p980
asI141
(lp981
S'What'
p982
aS'is'
p983
aS'east'
p984
aS'of'
p985
aS'the'
p986
aS'hallway'
p987
asI142
(lp988
S'What'
p989
aS'is'
p990
aS'south'
p991
aS'of'
p992
aS'the'
p993
aS'garden'
p994
asI143
(lp995
S'What'
p996
aS'is'
p997
aS'south'
p998
aS'of'
p999
aS'the'
p1000
aS'kitchen'
p1001
asI144
(lp1002
S'What'
p1003
aS'is'
p1004
aS'west'
p1005
aS'of'
p1006
aS'the'
p1007
aS'garden'
p1008
asI145
(lp1009
S'What'
p1010
aS'is'
p1011
aS'east'
p1012
aS'of'
p1013
aS'the'
p1014
aS'bathroom'
p1015
asI146
(lp1016
S'What'
p1017
aS'is'
p1018
aS'west'
p1019
aS'of'
p1020
aS'the'
p1021
aS'bathroom'
p1022
asI147
(lp1023
S'What'
p1024
aS'is'
p1025
aS'the'
p1026
aS'bathroom'
p1027
aS'east'
p1028
aS'of'
p1029
asI148
(lp1030
S'What'
p1031
aS'is'
p1032
aS'the'
p1033
aS'garden'
p1034
aS'west'
p1035
aS'of'
p1036
asI149
(lp1037
S'What'
p1038
aS'is'
p1039
aS'the'
p1040
aS'kitchen'
p1041
aS'north'
p1042
aS'of'
p1043
asI150
(lp1044
S'What'
p1045
aS'is'
p1046
aS'east'
p1047
aS'of'
p1048
aS'the'
p1049
aS'bedroom'
p1050
asI151
(lp1051
S'What'
p1052
aS'is'
p1053
aS'the'
p1054
aS'bathroom'
p1055
aS'north'
p1056
aS'of'
p1057
asI152
(lp1058
S'What'
p1059
aS'is'
p1060
aS'the'
p1061
aS'garden'
p1062
aS'north'
p1063
aS'of'
p1064
asI153
(lp1065
S'What'
p1066
aS'is'
p1067
aS'the'
p1068
aS'office'
p1069
aS'south'
p1070
aS'of'
p1071
asI154
(lp1072
S'What'
p1073
aS'is'
p1074
aS'the'
p1075
aS'hallway'
p1076
aS'north'
p1077
aS'of'
p1078
asI155
(lp1079
S'What'
p1080
aS'is'
p1081
aS'north'
p1082
aS'of'
p1083
aS'the'
p1084
aS'bedroom'
p1085
asI156
(lp1086
S'What'
p1087
aS'is'
p1088
aS'the'
p1089
aS'office'
p1090
aS'south'
p1091
aS'of'
p1092
asI157
(lp1093
S'What'
p1094
aS'is'
p1095
aS'the'
p1096
aS'kitchen'
p1097
aS'east'
p1098
aS'of'
p1099
asI158
(lp1100
S'What'
p1101
aS'is'
p1102
aS'the'
p1103
aS'office'
p1104
aS'south'
p1105
aS'of'
p1106
asI159
(lp1107
S'What'
p1108
aS'is'
p1109
aS'the'
p1110
aS'garden'
p1111
aS'east'
p1112
aS'of'
p1113
asI160
(lp1114
S'What'
p1115
aS'is'
p1116
aS'south'
p1117
aS'of'
p1118
aS'the'
p1119
aS'office'
p1120
asI161
(lp1121
S'What'
p1122
aS'is'
p1123
aS'north'
p1124
aS'of'
p1125
aS'the'
p1126
aS'garden'
p1127
asI162
(lp1128
S'What'
p1129
aS'is'
p1130
aS'the'
p1131
aS'garden'
p1132
aS'east'
p1133
aS'of'
p1134
asI163
(lp1135
S'What'
p1136
aS'is'
p1137
aS'south'
p1138
aS'of'
p1139
aS'the'
p1140
aS'kitchen'
p1141
asI164
(lp1142
S'What'
p1143
aS'is'
p1144
aS'the'
p1145
aS'kitchen'
p1146
aS'east'
p1147
aS'of'
p1148
asI165
(lp1149
S'What'
p1150
aS'is'
p1151
aS'the'
p1152
aS'kitchen'
p1153
aS'south'
p1154
aS'of'
p1155
asI166
(lp1156
S'What'
p1157
aS'is'
p1158
aS'west'
p1159
aS'of'
p1160
aS'the'
p1161
aS'bedroom'
p1162
asI167
(lp1163
S'What'
p1164
aS'is'
p1165
aS'north'
p1166
aS'of'
p1167
aS'the'
p1168
aS'bathroom'
p1169
asI168
(lp1170
S'What'
p1171
aS'is'
p1172
aS'the'
p1173
aS'garden'
p1174
aS'south'
p1175
aS'of'
p1176
asI169
(lp1177
S'What'
p1178
aS'is'
p1179
aS'east'
p1180
aS'of'
p1181
aS'the'
p1182
aS'kitchen'
p1183
asI170
(lp1184
S'What'
p1185
aS'is'
p1186
aS'west'
p1187
aS'of'
p1188
aS'the'
p1189
aS'bathroom'
p1190
asI171
(lp1191
S'What'
p1192
aS'is'
p1193
aS'the'
p1194
aS'bathroom'
p1195
aS'south'
p1196
aS'of'
p1197
asI172
(lp1198
S'What'
p1199
aS'is'
p1200
aS'west'
p1201
aS'of'
p1202
aS'the'
p1203
aS'bathroom'
p1204
asI173
(lp1205
S'What'
p1206
aS'is'
p1207
aS'the'
p1208
aS'kitchen'
p1209
aS'west'
p1210
aS'of'
p1211
asI174
(lp1212
S'What'
p1213
aS'is'
p1214
aS'east'
p1215
aS'of'
p1216
aS'the'
p1217
aS'bedroom'
p1218
asI175
(lp1219
S'What'
p1220
aS'is'
p1221
aS'the'
p1222
aS'office'
p1223
aS'north'
p1224
aS'of'
p1225
asI176
(lp1226
S'What'
p1227
aS'is'
p1228
aS'west'
p1229
aS'of'
p1230
aS'the'
p1231
aS'office'
p1232
asI177
(lp1233
S'What'
p1234
aS'is'
p1235
aS'the'
p1236
aS'kitchen'
p1237
aS'north'
p1238
aS'of'
p1239
asI178
(lp1240
S'What'
p1241
aS'is'
p1242
aS'south'
p1243
aS'of'
p1244
aS'the'
p1245
aS'hallway'
p1246
asI179
(lp1247
S'What'
p1248
aS'is'
p1249
aS'the'
p1250
aS'kitchen'
p1251
aS'south'
p1252
aS'of'
p1253
asI180
(lp1254
S'What'
p1255
aS'is'
p1256
aS'the'
p1257
aS'bedroom'
p1258
aS'east'
p1259
aS'of'
p1260
asI181
(lp1261
S'What'
p1262
aS'is'
p1263
aS'south'
p1264
aS'of'
p1265
aS'the'
p1266
aS'office'
p1267
asI182
(lp1268
S'What'
p1269
aS'is'
p1270
aS'the'
p1271
aS'bedroom'
p1272
aS'west'
p1273
aS'of'
p1274
asI183
(lp1275
S'What'
p1276
aS'is'
p1277
aS'south'
p1278
aS'of'
p1279
aS'the'
p1280
aS'hallway'
p1281
asI184
(lp1282
S'What'
p1283
aS'is'
p1284
aS'west'
p1285
aS'of'
p1286
aS'the'
p1287
aS'garden'
p1288
asI185
(lp1289
S'What'
p1290
aS'is'
p1291
aS'the'
p1292
aS'bedroom'
p1293
aS'north'
p1294
aS'of'
p1295
asI186
(lp1296
S'What'
p1297
aS'is'
p1298
aS'the'
p1299
aS'hallway'
p1300
aS'north'
p1301
aS'of'
p1302
asI187
(lp1303
S'What'
p1304
aS'is'
p1305
aS'the'
p1306
aS'bathroom'
p1307
aS'south'
p1308
aS'of'
p1309
asI188
(lp1310
S'What'
p1311
aS'is'
p1312
aS'the'
p1313
aS'bathroom'
p1314
aS'west'
p1315
aS'of'
p1316
asI189
(lp1317
S'What'
p1318
aS'is'
p1319
aS'east'
p1320
aS'of'
p1321
aS'the'
p1322
aS'bathroom'
p1323
asI190
(lp1324
S'What'
p1325
aS'is'
p1326
aS'the'
p1327
aS'hallway'
p1328
aS'west'
p1329
aS'of'
p1330
asI191
(lp1331
S'What'
p1332
aS'is'
p1333
aS'the'
p1334
aS'bedroom'
p1335
aS'west'
p1336
aS'of'
p1337
asI192
(lp1338
S'What'
p1339
aS'is'
p1340
aS'the'
p1341
aS'kitchen'
p1342
aS'east'
p1343
aS'of'
p1344
asI193
(lp1345
S'What'
p1346
aS'is'
p1347
aS'the'
p1348
aS'garden'
p1349
aS'north'
p1350
aS'of'
p1351
asI194
(lp1352
S'What'
p1353
aS'is'
p1354
aS'the'
p1355
aS'kitchen'
p1356
aS'east'
p1357
aS'of'
p1358
asI195
(lp1359
S'What'
p1360
aS'is'
p1361
aS'the'
p1362
aS'office'
p1363
aS'east'
p1364
aS'of'
p1365
asI196
(lp1366
S'What'
p1367
aS'is'
p1368
aS'the'
p1369
aS'bedroom'
p1370
aS'north'
p1371
aS'of'
p1372
asI197
(lp1373
S'What'
p1374
aS'is'
p1375
aS'south'
p1376
aS'of'
p1377
aS'the'
p1378
aS'bathroom'
p1379
asI198
(lp1380
S'What'
p1381
aS'is'
p1382
aS'north'
p1383
aS'of'
p1384
aS'the'
p1385
aS'bathroom'
p1386
asI199
(lp1387
S'What'
p1388
aS'is'
p1389
aS'the'
p1390
aS'bathroom'
p1391
aS'north'
p1392
aS'of'
p1393
asI200
(lp1394
S'What'
p1395
aS'is'
p1396
aS'south'
p1397
aS'of'
p1398
aS'the'
p1399
aS'bathroom'
p1400
asI201
(lp1401
S'What'
p1402
aS'is'
p1403
aS'north'
p1404
aS'of'
p1405
aS'the'
p1406
aS'bathroom'
p1407
asI202
(lp1408
S'What'
p1409
aS'is'
p1410
aS'north'
p1411
aS'of'
p1412
aS'the'
p1413
aS'kitchen'
p1414
asI203
(lp1415
S'What'
p1416
aS'is'
p1417
aS'east'
p1418
aS'of'
p1419
aS'the'
p1420
aS'kitchen'
p1421
asI204
(lp1422
S'What'
p1423
aS'is'
p1424
aS'the'
p1425
aS'office'
p1426
aS'west'
p1427
aS'of'
p1428
asI205
(lp1429
S'What'
p1430
aS'is'
p1431
aS'east'
p1432
aS'of'
p1433
aS'the'
p1434
aS'hallway'
p1435
asI206
(lp1436
S'What'
p1437
aS'is'
p1438
aS'south'
p1439
aS'of'
p1440
aS'the'
p1441
aS'office'
p1442
asI207
(lp1443
S'What'
p1444
aS'is'
p1445
aS'the'
p1446
aS'office'
p1447
aS'east'
p1448
aS'of'
p1449
asI208
(lp1450
S'What'
p1451
aS'is'
p1452
aS'north'
p1453
aS'of'
p1454
aS'the'
p1455
aS'garden'
p1456
asI209
(lp1457
S'What'
p1458
aS'is'
p1459
aS'the'
p1460
aS'bedroom'
p1461
aS'north'
p1462
aS'of'
p1463
asI210
(lp1464
S'What'
p1465
aS'is'
p1466
aS'the'
p1467
aS'hallway'
p1468
aS'east'
p1469
aS'of'
p1470
asI211
(lp1471
S'What'
p1472
aS'is'
p1473
aS'north'
p1474
aS'of'
p1475
aS'the'
p1476
aS'garden'
p1477
asI212
(lp1478
S'What'
p1479
aS'is'
p1480
aS'south'
p1481
aS'of'
p1482
aS'the'
p1483
aS'bedroom'
p1484
asI213
(lp1485
S'What'
p1486
aS'is'
p1487
aS'the'
p1488
aS'office'
p1489
aS'west'
p1490
aS'of'
p1491
asI214
(lp1492
S'What'
p1493
aS'is'
p1494
aS'west'
p1495
aS'of'
p1496
aS'the'
p1497
aS'garden'
p1498
asI215
(lp1499
S'What'
p1500
aS'is'
p1501
aS'the'
p1502
aS'kitchen'
p1503
aS'north'
p1504
aS'of'
p1505
asI216
(lp1506
S'What'
p1507
aS'is'
p1508
aS'the'
p1509
aS'office'
p1510
aS'north'
p1511
aS'of'
p1512
asI217
(lp1513
S'What'
p1514
aS'is'
p1515
aS'the'
p1516
aS'office'
p1517
aS'east'
p1518
aS'of'
p1519
asI218
(lp1520
S'What'
p1521
aS'is'
p1522
aS'west'
p1523
aS'of'
p1524
aS'the'
p1525
aS'hallway'
p1526
asI219
(lp1527
S'What'
p1528
aS'is'
p1529
aS'south'
p1530
aS'of'
p1531
aS'the'
p1532
aS'office'
p1533
asI220
(lp1534
S'What'
p1535
aS'is'
p1536
aS'the'
p1537
aS'hallway'
p1538
aS'east'
p1539
aS'of'
p1540
asI221
(lp1541
S'What'
p1542
aS'is'
p1543
aS'the'
p1544
aS'kitchen'
p1545
aS'east'
p1546
aS'of'
p1547
asI222
(lp1548
S'What'
p1549
aS'is'
p1550
aS'east'
p1551
aS'of'
p1552
aS'the'
p1553
aS'garden'
p1554
asI223
(lp1555
S'What'
p1556
aS'is'
p1557
aS'east'
p1558
aS'of'
p1559
aS'the'
p1560
aS'kitchen'
p1561
asI224
(lp1562
S'What'
p1563
aS'is'
p1564
aS'the'
p1565
aS'office'
p1566
aS'west'
p1567
aS'of'
p1568
asI225
(lp1569
S'What'
p1570
aS'is'
p1571
aS'the'
p1572
aS'bathroom'
p1573
aS'east'
p1574
aS'of'
p1575
asI226
(lp1576
S'What'
p1577
aS'is'
p1578
aS'the'
p1579
aS'office'
p1580
aS'east'
p1581
aS'of'
p1582
asI227
(lp1583
S'What'
p1584
aS'is'
p1585
aS'the'
p1586
aS'bathroom'
p1587
aS'north'
p1588
aS'of'
p1589
asI228
(lp1590
S'What'
p1591
aS'is'
p1592
aS'the'
p1593
aS'hallway'
p1594
aS'south'
p1595
aS'of'
p1596
asI229
(lp1597
S'What'
p1598
aS'is'
p1599
aS'west'
p1600
aS'of'
p1601
aS'the'
p1602
aS'office'
p1603
asI230
(lp1604
S'What'
p1605
aS'is'
p1606
aS'the'
p1607
aS'bathroom'
p1608
aS'south'
p1609
aS'of'
p1610
asI231
(lp1611
S'What'
p1612
aS'is'
p1613
aS'west'
p1614
aS'of'
p1615
aS'the'
p1616
aS'bathroom'
p1617
asI232
(lp1618
S'What'
p1619
aS'is'
p1620
aS'south'
p1621
aS'of'
p1622
aS'the'
p1623
aS'hallway'
p1624
asI233
(lp1625
S'What'
p1626
aS'is'
p1627
aS'the'
p1628
aS'office'
p1629
aS'west'
p1630
aS'of'
p1631
asI234
(lp1632
S'What'
p1633
aS'is'
p1634
aS'east'
p1635
aS'of'
p1636
aS'the'
p1637
aS'kitchen'
p1638
asI235
(lp1639
S'What'
p1640
aS'is'
p1641
aS'the'
p1642
aS'hallway'
p1643
aS'west'
p1644
aS'of'
p1645
asI236
(lp1646
S'What'
p1647
aS'is'
p1648
aS'the'
p1649
aS'hallway'
p1650
aS'west'
p1651
aS'of'
p1652
asI237
(lp1653
S'What'
p1654
aS'is'
p1655
aS'the'
p1656
aS'hallway'
p1657
aS'east'
p1658
aS'of'
p1659
asI238
(lp1660
S'What'
p1661
aS'is'
p1662
aS'west'
p1663
aS'of'
p1664
aS'the'
p1665
aS'office'
p1666
asI239
(lp1667
S'What'
p1668
aS'is'
p1669
aS'east'
p1670
aS'of'
p1671
aS'the'
p1672
aS'bathroom'
p1673
asI240
(lp1674
S'What'
p1675
aS'is'
p1676
aS'the'
p1677
aS'office'
p1678
aS'west'
p1679
aS'of'
p1680
asI241
(lp1681
S'What'
p1682
aS'is'
p1683
aS'west'
p1684
aS'of'
p1685
aS'the'
p1686
aS'bedroom'
p1687
asI242
(lp1688
S'What'
p1689
aS'is'
p1690
aS'the'
p1691
aS'garden'
p1692
aS'west'
p1693
aS'of'
p1694
asI243
(lp1695
S'What'
p1696
aS'is'
p1697
aS'west'
p1698
aS'of'
p1699
aS'the'
p1700
aS'garden'
p1701
asI244
(lp1702
S'What'
p1703
aS'is'
p1704
aS'south'
p1705
aS'of'
p1706
aS'the'
p1707
aS'bathroom'
p1708
asI245
(lp1709
S'What'
p1710
aS'is'
p1711
aS'the'
p1712
aS'kitchen'
p1713
aS'west'
p1714
aS'of'
p1715
asI246
(lp1716
S'What'
p1717
aS'is'
p1718
aS'south'
p1719
aS'of'
p1720
aS'the'
p1721
aS'bedroom'
p1722
asI247
(lp1723
S'What'
p1724
aS'is'
p1725
aS'south'
p1726
aS'of'
p1727
aS'the'
p1728
aS'office'
p1729
asI248
(lp1730
S'What'
p1731
aS'is'
p1732
aS'north'
p1733
aS'of'
p1734
aS'the'
p1735
aS'office'
p1736
asI249
(lp1737
S'What'
p1738
aS'is'
p1739
aS'the'
p1740
aS'garden'
p1741
aS'west'
p1742
aS'of'
p1743
asI250
(lp1744
S'What'
p1745
aS'is'
p1746
aS'north'
p1747
aS'of'
p1748
aS'the'
p1749
aS'hallway'
p1750
asI251
(lp1751
S'What'
p1752
aS'is'
p1753
aS'the'
p1754
aS'kitchen'
p1755
aS'south'
p1756
aS'of'
p1757
asI252
(lp1758
S'What'
p1759
aS'is'
p1760
aS'east'
p1761
aS'of'
p1762
aS'the'
p1763
aS'office'
p1764
asI253
(lp1765
S'What'
p1766
aS'is'
p1767
aS'the'
p1768
aS'bathroom'
p1769
aS'north'
p1770
aS'of'
p1771
asI254
(lp1772
S'What'
p1773
aS'is'
p1774
aS'south'
p1775
aS'of'
p1776
aS'the'
p1777
aS'kitchen'
p1778
asI255
(lp1779
S'What'
p1780
aS'is'
p1781
aS'east'
p1782
aS'of'
p1783
aS'the'
p1784
aS'office'
p1785
asI256
(lp1786
S'What'
p1787
aS'is'
p1788
aS'the'
p1789
aS'kitchen'
p1790
aS'north'
p1791
aS'of'
p1792
asI257
(lp1793
S'What'
p1794
aS'is'
p1795
aS'the'
p1796
aS'office'
p1797
aS'south'
p1798
aS'of'
p1799
asI258
(lp1800
S'What'
p1801
aS'is'
p1802
aS'the'
p1803
aS'garden'
p1804
aS'south'
p1805
aS'of'
p1806
asI259
(lp1807
S'What'
p1808
aS'is'
p1809
aS'the'
p1810
aS'garden'
p1811
aS'west'
p1812
aS'of'
p1813
asI260
(lp1814
S'What'
p1815
aS'is'
p1816
aS'the'
p1817
aS'garden'
p1818
aS'south'
p1819
aS'of'
p1820
asI261
(lp1821
S'What'
p1822
aS'is'
p1823
aS'south'
p1824
aS'of'
p1825
aS'the'
p1826
aS'bathroom'
p1827
asI262
(lp1828
S'What'
p1829
aS'is'
p1830
aS'the'
p1831
aS'office'
p1832
aS'west'
p1833
aS'of'
p1834
asI263
(lp1835
S'What'
p1836
aS'is'
p1837
aS'the'
p1838
aS'hallway'
p1839
aS'east'
p1840
aS'of'
p1841
asI264
(lp1842
S'What'
p1843
aS'is'
p1844
aS'the'
p1845
aS'kitchen'
p1846
aS'south'
p1847
aS'of'
p1848
asI265
(lp1849
S'What'
p1850
aS'is'
p1851
aS'the'
p1852
aS'office'
p1853
aS'west'
p1854
aS'of'
p1855
asI266
(lp1856
S'What'
p1857
aS'is'
p1858
aS'south'
p1859
aS'of'
p1860
aS'the'
p1861
aS'bathroom'
p1862
asI267
(lp1863
S'What'
p1864
aS'is'
p1865
aS'the'
p1866
aS'garden'
p1867
aS'east'
p1868
aS'of'
p1869
asI268
(lp1870
S'What'
p1871
aS'is'
p1872
aS'the'
p1873
aS'office'
p1874
aS'west'
p1875
aS'of'
p1876
asI269
(lp1877
S'What'
p1878
aS'is'
p1879
aS'the'
p1880
aS'garden'
p1881
aS'east'
p1882
aS'of'
p1883
asI270
(lp1884
S'What'
p1885
aS'is'
p1886
aS'north'
p1887
aS'of'
p1888
aS'the'
p1889
aS'office'
p1890
asI271
(lp1891
S'What'
p1892
aS'is'
p1893
aS'south'
p1894
aS'of'
p1895
aS'the'
p1896
aS'bathroom'
p1897
asI272
(lp1898
S'What'
p1899
aS'is'
p1900
aS'north'
p1901
aS'of'
p1902
aS'the'
p1903
aS'hallway'
p1904
asI273
(lp1905
S'What'
p1906
aS'is'
p1907
aS'the'
p1908
aS'office'
p1909
aS'west'
p1910
aS'of'
p1911
asI274
(lp1912
S'What'
p1913
aS'is'
p1914
aS'the'
p1915
aS'bedroom'
p1916
aS'east'
p1917
aS'of'
p1918
asI275
(lp1919
S'What'
p1920
aS'is'
p1921
aS'the'
p1922
aS'hallway'
p1923
aS'south'
p1924
aS'of'
p1925
asI276
(lp1926
S'What'
p1927
aS'is'
p1928
aS'west'
p1929
aS'of'
p1930
aS'the'
p1931
aS'bedroom'
p1932
asI277
(lp1933
S'What'
p1934
aS'is'
p1935
aS'the'
p1936
aS'garden'
p1937
aS'west'
p1938
aS'of'
p1939
asI278
(lp1940
S'What'
p1941
aS'is'
p1942
aS'north'
p1943
aS'of'
p1944
aS'the'
p1945
aS'kitchen'
p1946
asI279
(lp1947
S'What'
p1948
aS'is'
p1949
aS'the'
p1950
aS'office'
p1951
aS'south'
p1952
aS'of'
p1953
asI280
(lp1954
S'What'
p1955
aS'is'
p1956
aS'the'
p1957
aS'hallway'
p1958
aS'east'
p1959
aS'of'
p1960
asI281
(lp1961
S'What'
p1962
aS'is'
p1963
aS'north'
p1964
aS'of'
p1965
aS'the'
p1966
aS'kitchen'
p1967
asI282
(lp1968
S'What'
p1969
aS'is'
p1970
aS'north'
p1971
aS'of'
p1972
aS'the'
p1973
aS'kitchen'
p1974
asI283
(lp1975
S'What'
p1976
aS'is'
p1977
aS'south'
p1978
aS'of'
p1979
aS'the'
p1980
aS'bathroom'
p1981
asI284
(lp1982
S'What'
p1983
aS'is'
p1984
aS'the'
p1985
aS'kitchen'
p1986
aS'west'
p1987
aS'of'
p1988
asI285
(lp1989
S'What'
p1990
aS'is'
p1991
aS'the'
p1992
aS'kitchen'
p1993
aS'west'
p1994
aS'of'
p1995
asI286
(lp1996
S'What'
p1997
aS'is'
p1998
aS'east'
p1999
aS'of'
p2000
aS'the'
p2001
aS'garden'
p2002
asI287
(lp2003
S'What'
p2004
aS'is'
p2005
aS'the'
p2006
aS'garden'
p2007
aS'west'
p2008
aS'of'
p2009
asI288
(lp2010
S'What'
p2011
aS'is'
p2012
aS'the'
p2013
aS'bathroom'
p2014
aS'north'
p2015
aS'of'
p2016
asI289
(lp2017
S'What'
p2018
aS'is'
p2019
aS'the'
p2020
aS'garden'
p2021
aS'east'
p2022
aS'of'
p2023
asI290
(lp2024
S'What'
p2025
aS'is'
p2026
aS'the'
p2027
aS'garden'
p2028
aS'north'
p2029
aS'of'
p2030
asI291
(lp2031
S'What'
p2032
aS'is'
p2033
aS'north'
p2034
aS'of'
p2035
aS'the'
p2036
aS'garden'
p2037
asI292
(lp2038
S'What'
p2039
aS'is'
p2040
aS'the'
p2041
aS'bathroom'
p2042
aS'south'
p2043
aS'of'
p2044
asI293
(lp2045
S'What'
p2046
aS'is'
p2047
aS'west'
p2048
aS'of'
p2049
aS'the'
p2050
aS'garden'
p2051
asI294
(lp2052
S'What'
p2053
aS'is'
p2054
aS'the'
p2055
aS'kitchen'
p2056
aS'east'
p2057
aS'of'
p2058
asI295
(lp2059
S'What'
p2060
aS'is'
p2061
aS'the'
p2062
aS'hallway'
p2063
aS'west'
p2064
aS'of'
p2065
asI296
(lp2066
S'What'
p2067
aS'is'
p2068
aS'north'
p2069
aS'of'
p2070
aS'the'
p2071
aS'kitchen'
p2072
asI297
(lp2073
S'What'
p2074
aS'is'
p2075
aS'east'
p2076
aS'of'
p2077
aS'the'
p2078
aS'hallway'
p2079
asI298
(lp2080
S'What'
p2081
aS'is'
p2082
aS'the'
p2083
aS'garden'
p2084
aS'north'
p2085
aS'of'
p2086
asI299
(lp2087
S'What'
p2088
aS'is'
p2089
aS'south'
p2090
aS'of'
p2091
aS'the'
p2092
aS'bathroom'
p2093
asI300
(lp2094
S'What'
p2095
aS'is'
p2096
aS'east'
p2097
aS'of'
p2098
aS'the'
p2099
aS'kitchen'
p2100
asI301
(lp2101
S'What'
p2102
aS'is'
p2103
aS'east'
p2104
aS'of'
p2105
aS'the'
p2106
aS'office'
p2107
asI302
(lp2108
S'What'
p2109
aS'is'
p2110
aS'south'
p2111
aS'of'
p2112
aS'the'
p2113
aS'bathroom'
p2114
asI303
(lp2115
S'What'
p2116
aS'is'
p2117
aS'south'
p2118
aS'of'
p2119
aS'the'
p2120
aS'garden'
p2121
asI304
(lp2122
S'What'
p2123
aS'is'
p2124
aS'south'
p2125
aS'of'
p2126
aS'the'
p2127
aS'hallway'
p2128
asI305
(lp2129
S'What'
p2130
aS'is'
p2131
aS'the'
p2132
aS'garden'
p2133
aS'east'
p2134
aS'of'
p2135
asI306
(lp2136
S'What'
p2137
aS'is'
p2138
aS'the'
p2139
aS'bedroom'
p2140
aS'north'
p2141
aS'of'
p2142
asI307
(lp2143
S'What'
p2144
aS'is'
p2145
aS'south'
p2146
aS'of'
p2147
aS'the'
p2148
aS'kitchen'
p2149
asI308
(lp2150
S'What'
p2151
aS'is'
p2152
aS'west'
p2153
aS'of'
p2154
aS'the'
p2155
aS'garden'
p2156
asI309
(lp2157
S'What'
p2158
aS'is'
p2159
aS'east'
p2160
aS'of'
p2161
aS'the'
p2162
aS'bathroom'
p2163
asI310
(lp2164
S'What'
p2165
aS'is'
p2166
aS'the'
p2167
aS'kitchen'
p2168
aS'west'
p2169
aS'of'
p2170
asI311
(lp2171
S'What'
p2172
aS'is'
p2173
aS'west'
p2174
aS'of'
p2175
aS'the'
p2176
aS'office'
p2177
asI312
(lp2178
S'What'
p2179
aS'is'
p2180
aS'north'
p2181
aS'of'
p2182
aS'the'
p2183
aS'garden'
p2184
asI313
(lp2185
S'What'
p2186
aS'is'
p2187
aS'east'
p2188
aS'of'
p2189
aS'the'
p2190
aS'kitchen'
p2191
asI314
(lp2192
S'What'
p2193
aS'is'
p2194
aS'north'
p2195
aS'of'
p2196
aS'the'
p2197
aS'bedroom'
p2198
asI315
(lp2199
S'What'
p2200
aS'is'
p2201
aS'the'
p2202
aS'garden'
p2203
aS'south'
p2204
aS'of'
p2205
asI316
(lp2206
S'What'
p2207
aS'is'
p2208
aS'the'
p2209
aS'garden'
p2210
aS'south'
p2211
aS'of'
p2212
asI317
(lp2213
S'What'
p2214
aS'is'
p2215
aS'the'
p2216
aS'office'
p2217
aS'west'
p2218
aS'of'
p2219
asI318
(lp2220
S'What'
p2221
aS'is'
p2222
aS'west'
p2223
aS'of'
p2224
aS'the'
p2225
aS'bedroom'
p2226
asI319
(lp2227
S'What'
p2228
aS'is'
p2229
aS'west'
p2230
aS'of'
p2231
aS'the'
p2232
aS'hallway'
p2233
asI320
(lp2234
S'What'
p2235
aS'is'
p2236
aS'the'
p2237
aS'bathroom'
p2238
aS'west'
p2239
aS'of'
p2240
asI321
(lp2241
S'What'
p2242
aS'is'
p2243
aS'the'
p2244
aS'office'
p2245
aS'north'
p2246
aS'of'
p2247
asI322
(lp2248
S'What'
p2249
aS'is'
p2250
aS'south'
p2251
aS'of'
p2252
aS'the'
p2253
aS'garden'
p2254
asI323
(lp2255
S'What'
p2256
aS'is'
p2257
aS'the'
p2258
aS'hallway'
p2259
aS'north'
p2260
aS'of'
p2261
asI324
(lp2262
S'What'
p2263
aS'is'
p2264
aS'west'
p2265
aS'of'
p2266
aS'the'
p2267
aS'garden'
p2268
asI325
(lp2269
S'What'
p2270
aS'is'
p2271
aS'the'
p2272
aS'bathroom'
p2273
aS'north'
p2274
aS'of'
p2275
asI326
(lp2276
S'What'
p2277
aS'is'
p2278
aS'the'
p2279
aS'kitchen'
p2280
aS'east'
p2281
aS'of'
p2282
asI327
(lp2283
S'What'
p2284
aS'is'
p2285
aS'south'
p2286
aS'of'
p2287
aS'the'
p2288
aS'hallway'
p2289
asI328
(lp2290
S'What'
p2291
aS'is'
p2292
aS'east'
p2293
aS'of'
p2294
aS'the'
p2295
aS'hallway'
p2296
asI329
(lp2297
S'What'
p2298
aS'is'
p2299
aS'the'
p2300
aS'garden'
p2301
aS'north'
p2302
aS'of'
p2303
asI330
(lp2304
S'What'
p2305
aS'is'
p2306
aS'west'
p2307
aS'of'
p2308
aS'the'
p2309
aS'hallway'
p2310
asI331
(lp2311
S'What'
p2312
aS'is'
p2313
aS'the'
p2314
aS'garden'
p2315
aS'east'
p2316
aS'of'
p2317
asI332
(lp2318
S'What'
p2319
aS'is'
p2320
aS'south'
p2321
aS'of'
p2322
aS'the'
p2323
aS'office'
p2324
asI333
(lp2325
S'What'
p2326
aS'is'
p2327
aS'north'
p2328
aS'of'
p2329
aS'the'
p2330
aS'hallway'
p2331
asI334
(lp2332
S'What'
p2333
aS'is'
p2334
aS'the'
p2335
aS'hallway'
p2336
aS'north'
p2337
aS'of'
p2338
asI335
(lp2339
S'What'
p2340
aS'is'
p2341
aS'west'
p2342
aS'of'
p2343
aS'the'
p2344
aS'kitchen'
p2345
asI336
(lp2346
S'What'
p2347
aS'is'
p2348
aS'the'
p2349
aS'garden'
p2350
aS'west'
p2351
aS'of'
p2352
asI337
(lp2353
S'What'
p2354
aS'is'
p2355
aS'west'
p2356
aS'of'
p2357
aS'the'
p2358
aS'office'
p2359
asI338
(lp2360
S'What'
p2361
aS'is'
p2362
aS'the'
p2363
aS'hallway'
p2364
aS'north'
p2365
aS'of'
p2366
asI339
(lp2367
S'What'
p2368
aS'is'
p2369
aS'south'
p2370
aS'of'
p2371
aS'the'
p2372
aS'hallway'
p2373
asI340
(lp2374
S'What'
p2375
aS'is'
p2376
aS'south'
p2377
aS'of'
p2378
aS'the'
p2379
aS'office'
p2380
asI341
(lp2381
S'What'
p2382
aS'is'
p2383
aS'the'
p2384
aS'bathroom'
p2385
aS'east'
p2386
aS'of'
p2387
asI342
(lp2388
S'What'
p2389
aS'is'
p2390
aS'south'
p2391
aS'of'
p2392
aS'the'
p2393
aS'hallway'
p2394
asI343
(lp2395
S'What'
p2396
aS'is'
p2397
aS'west'
p2398
aS'of'
p2399
aS'the'
p2400
aS'bedroom'
p2401
asI344
(lp2402
S'What'
p2403
aS'is'
p2404
aS'north'
p2405
aS'of'
p2406
aS'the'
p2407
aS'bathroom'
p2408
asI345
(lp2409
S'What'
p2410
aS'is'
p2411
aS'the'
p2412
aS'hallway'
p2413
aS'west'
p2414
aS'of'
p2415
asI346
(lp2416
S'What'
p2417
aS'is'
p2418
aS'the'
p2419
aS'garden'
p2420
aS'north'
p2421
aS'of'
p2422
asI347
(lp2423
S'What'
p2424
aS'is'
p2425
aS'south'
p2426
aS'of'
p2427
aS'the'
p2428
aS'hallway'
p2429
asI348
(lp2430
S'What'
p2431
aS'is'
p2432
aS'south'
p2433
aS'of'
p2434
aS'the'
p2435
aS'garden'
p2436
asI349
(lp2437
S'What'
p2438
aS'is'
p2439
aS'north'
p2440
aS'of'
p2441
aS'the'
p2442
aS'kitchen'
p2443
asI350
(lp2444
S'What'
p2445
aS'is'
p2446
aS'east'
p2447
aS'of'
p2448
aS'the'
p2449
aS'garden'
p2450
asI351
(lp2451
S'What'
p2452
aS'is'
p2453
aS'east'
p2454
aS'of'
p2455
aS'the'
p2456
aS'kitchen'
p2457
asI352
(lp2458
S'What'
p2459
aS'is'
p2460
aS'the'
p2461
aS'bathroom'
p2462
aS'north'
p2463
aS'of'
p2464
asI353
(lp2465
S'What'
p2466
aS'is'
p2467
aS'south'
p2468
aS'of'
p2469
aS'the'
p2470
aS'kitchen'
p2471
asI354
(lp2472
S'What'
p2473
aS'is'
p2474
aS'north'
p2475
aS'of'
p2476
aS'the'
p2477
aS'garden'
p2478
asI355
(lp2479
S'What'
p2480
aS'is'
p2481
aS'the'
p2482
aS'office'
p2483
aS'north'
p2484
aS'of'
p2485
asI356
(lp2486
S'What'
p2487
aS'is'
p2488
aS'the'
p2489
aS'office'
p2490
aS'north'
p2491
aS'of'
p2492
asI357
(lp2493
S'What'
p2494
aS'is'
p2495
aS'east'
p2496
aS'of'
p2497
aS'the'
p2498
aS'office'
p2499
asI358
(lp2500
S'What'
p2501
aS'is'
p2502
aS'west'
p2503
aS'of'
p2504
aS'the'
p2505
aS'bedroom'
p2506
asI359
(lp2507
S'What'
p2508
aS'is'
p2509
aS'the'
p2510
aS'bedroom'
p2511
aS'north'
p2512
aS'of'
p2513
asI360
(lp2514
S'What'
p2515
aS'is'
p2516
aS'the'
p2517
aS'bathroom'
p2518
aS'east'
p2519
aS'of'
p2520
asI361
(lp2521
S'What'
p2522
aS'is'
p2523
aS'north'
p2524
aS'of'
p2525
aS'the'
p2526
aS'hallway'
p2527
asI362
(lp2528
S'What'
p2529
aS'is'
p2530
aS'the'
p2531
aS'bedroom'
p2532
aS'west'
p2533
aS'of'
p2534
asI363
(lp2535
S'What'
p2536
aS'is'
p2537
aS'east'
p2538
aS'of'
p2539
aS'the'
p2540
aS'garden'
p2541
asI364
(lp2542
S'What'
p2543
aS'is'
p2544
aS'the'
p2545
aS'office'
p2546
aS'south'
p2547
aS'of'
p2548
asI365
(lp2549
S'What'
p2550
aS'is'
p2551
aS'the'
p2552
aS'bedroom'
p2553
aS'north'
p2554
aS'of'
p2555
asI366
(lp2556
S'What'
p2557
aS'is'
p2558
aS'east'
p2559
aS'of'
p2560
aS'the'
p2561
aS'garden'
p2562
asI367
(lp2563
S'What'
p2564
aS'is'
p2565
aS'west'
p2566
aS'of'
p2567
aS'the'
p2568
aS'office'
p2569
asI368
(lp2570
S'What'
p2571
aS'is'
p2572
aS'the'
p2573
aS'garden'
p2574
aS'east'
p2575
aS'of'
p2576
asI369
(lp2577
S'What'
p2578
aS'is'
p2579
aS'west'
p2580
aS'of'
p2581
aS'the'
p2582
aS'office'
p2583
asI370
(lp2584
S'What'
p2585
aS'is'
p2586
aS'south'
p2587
aS'of'
p2588
aS'the'
p2589
aS'bathroom'
p2590
asI371
(lp2591
S'What'
p2592
aS'is'
p2593
aS'west'
p2594
aS'of'
p2595
aS'the'
p2596
aS'kitchen'
p2597
asI372
(lp2598
S'What'
p2599
aS'is'
p2600
aS'the'
p2601
aS'office'
p2602
aS'south'
p2603
aS'of'
p2604
asI373
(lp2605
S'What'
p2606
aS'is'
p2607
aS'the'
p2608
aS'hallway'
p2609
aS'west'
p2610
aS'of'
p2611
asI374
(lp2612
S'What'
p2613
aS'is'
p2614
aS'west'
p2615
aS'of'
p2616
aS'the'
p2617
aS'hallway'
p2618
asI375
(lp2619
S'What'
p2620
aS'is'
p2621
aS'east'
p2622
aS'of'
p2623
aS'the'
p2624
aS'bedroom'
p2625
asI376
(lp2626
S'What'
p2627
aS'is'
p2628
aS'the'
p2629
aS'bedroom'
p2630
aS'west'
p2631
aS'of'
p2632
asI377
(lp2633
S'What'
p2634
aS'is'
p2635
aS'the'
p2636
aS'bathroom'
p2637
aS'south'
p2638
aS'of'
p2639
asI378
(lp2640
S'What'
p2641
aS'is'
p2642
aS'the'
p2643
aS'office'
p2644
aS'east'
p2645
aS'of'
p2646
asI379
(lp2647
S'What'
p2648
aS'is'
p2649
aS'the'
p2650
aS'garden'
p2651
aS'south'
p2652
aS'of'
p2653
asI380
(lp2654
S'What'
p2655
aS'is'
p2656
aS'the'
p2657
aS'office'
p2658
aS'west'
p2659
aS'of'
p2660
asI381
(lp2661
S'What'
p2662
aS'is'
p2663
aS'the'
p2664
aS'bathroom'
p2665
aS'east'
p2666
aS'of'
p2667
asI382
(lp2668
S'What'
p2669
aS'is'
p2670
aS'the'
p2671
aS'garden'
p2672
aS'south'
p2673
aS'of'
p2674
asI383
(lp2675
S'What'
p2676
aS'is'
p2677
aS'west'
p2678
aS'of'
p2679
aS'the'
p2680
aS'office'
p2681
asI384
(lp2682
S'What'
p2683
aS'is'
p2684
aS'south'
p2685
aS'of'
p2686
aS'the'
p2687
aS'bedroom'
p2688
asI385
(lp2689
S'What'
p2690
aS'is'
p2691
aS'the'
p2692
aS'bathroom'
p2693
aS'south'
p2694
aS'of'
p2695
asI386
(lp2696
S'What'
p2697
aS'is'
p2698
aS'south'
p2699
aS'of'
p2700
aS'the'
p2701
aS'hallway'
p2702
asI387
(lp2703
S'What'
p2704
aS'is'
p2705
aS'west'
p2706
aS'of'
p2707
aS'the'
p2708
aS'bathroom'
p2709
asI388
(lp2710
S'What'
p2711
aS'is'
p2712
aS'the'
p2713
aS'garden'
p2714
aS'west'
p2715
aS'of'
p2716
asI389
(lp2717
S'What'
p2718
aS'is'
p2719
aS'east'
p2720
aS'of'
p2721
aS'the'
p2722
aS'kitchen'
p2723
asI390
(lp2724
S'What'
p2725
aS'is'
p2726
aS'the'
p2727
aS'bedroom'
p2728
aS'east'
p2729
aS'of'
p2730
asI391
(lp2731
S'What'
p2732
aS'is'
p2733
aS'the'
p2734
aS'office'
p2735
aS'east'
p2736
aS'of'
p2737
asI392
(lp2738
S'What'
p2739
aS'is'
p2740
aS'the'
p2741
aS'office'
p2742
aS'north'
p2743
aS'of'
p2744
asI393
(lp2745
S'What'
p2746
aS'is'
p2747
aS'east'
p2748
aS'of'
p2749
aS'the'
p2750
aS'bathroom'
p2751
asI394
(lp2752
S'What'
p2753
aS'is'
p2754
aS'the'
p2755
aS'office'
p2756
aS'east'
p2757
aS'of'
p2758
asI395
(lp2759
S'What'
p2760
aS'is'
p2761
aS'the'
p2762
aS'hallway'
p2763
aS'east'
p2764
aS'of'
p2765
asI396
(lp2766
S'What'
p2767
aS'is'
p2768
aS'east'
p2769
aS'of'
p2770
aS'the'
p2771
aS'kitchen'
p2772
asI397
(lp2773
S'What'
p2774
aS'is'
p2775
aS'west'
p2776
aS'of'
p2777
aS'the'
p2778
aS'kitchen'
p2779
asI398
(lp2780
S'What'
p2781
aS'is'
p2782
aS'the'
p2783
aS'kitchen'
p2784
aS'east'
p2785
aS'of'
p2786
asI399
(lp2787
S'What'
p2788
aS'is'
p2789
aS'east'
p2790
aS'of'
p2791
aS'the'
p2792
aS'garden'
p2793
asI400
(lp2794
S'What'
p2795
aS'is'
p2796
aS'the'
p2797
aS'bedroom'
p2798
aS'north'
p2799
aS'of'
p2800
asI401
(lp2801
S'What'
p2802
aS'is'
p2803
aS'west'
p2804
aS'of'
p2805
aS'the'
p2806
aS'bathroom'
p2807
asI402
(lp2808
S'What'
p2809
aS'is'
p2810
aS'south'
p2811
aS'of'
p2812
aS'the'
p2813
aS'bathroom'
p2814
asI403
(lp2815
S'What'
p2816
aS'is'
p2817
aS'the'
p2818
aS'hallway'
p2819
aS'east'
p2820
aS'of'
p2821
asI404
(lp2822
S'What'
p2823
aS'is'
p2824
aS'south'
p2825
aS'of'
p2826
aS'the'
p2827
aS'bathroom'
p2828
asI405
(lp2829
S'What'
p2830
aS'is'
p2831
aS'north'
p2832
aS'of'
p2833
aS'the'
p2834
aS'hallway'
p2835
asI406
(lp2836
S'What'
p2837
aS'is'
p2838
aS'the'
p2839
aS'office'
p2840
aS'west'
p2841
aS'of'
p2842
asI407
(lp2843
S'What'
p2844
aS'is'
p2845
aS'the'
p2846
aS'garden'
p2847
aS'north'
p2848
aS'of'
p2849
asI408
(lp2850
S'What'
p2851
aS'is'
p2852
aS'west'
p2853
aS'of'
p2854
aS'the'
p2855
aS'bathroom'
p2856
asI409
(lp2857
S'What'
p2858
aS'is'
p2859
aS'the'
p2860
aS'bathroom'
p2861
aS'east'
p2862
aS'of'
p2863
asI410
(lp2864
S'What'
p2865
aS'is'
p2866
aS'the'
p2867
aS'bedroom'
p2868
aS'north'
p2869
aS'of'
p2870
asI411
(lp2871
S'What'
p2872
aS'is'
p2873
aS'east'
p2874
aS'of'
p2875
aS'the'
p2876
aS'office'
p2877
asI412
(lp2878
S'What'
p2879
aS'is'
p2880
aS'the'
p2881
aS'garden'
p2882
aS'east'
p2883
aS'of'
p2884
asI413
(lp2885
S'What'
p2886
aS'is'
p2887
aS'west'
p2888
aS'of'
p2889
aS'the'
p2890
aS'bedroom'
p2891
asI414
(lp2892
S'What'
p2893
aS'is'
p2894
aS'north'
p2895
aS'of'
p2896
aS'the'
p2897
aS'hallway'
p2898
asI415
(lp2899
S'What'
p2900
aS'is'
p2901
aS'west'
p2902
aS'of'
p2903
aS'the'
p2904
aS'office'
p2905
asI416
(lp2906
S'What'
p2907
aS'is'
p2908
aS'south'
p2909
aS'of'
p2910
aS'the'
p2911
aS'office'
p2912
asI417
(lp2913
S'What'
p2914
aS'is'
p2915
aS'the'
p2916
aS'kitchen'
p2917
aS'north'
p2918
aS'of'
p2919
asI418
(lp2920
S'What'
p2921
aS'is'
p2922
aS'north'
p2923
aS'of'
p2924
aS'the'
p2925
aS'kitchen'
p2926
asI419
(lp2927
S'What'
p2928
aS'is'
p2929
aS'the'
p2930
aS'garden'
p2931
aS'west'
p2932
aS'of'
p2933
asI420
(lp2934
S'What'
p2935
aS'is'
p2936
aS'the'
p2937
aS'bathroom'
p2938
aS'west'
p2939
aS'of'
p2940
asI421
(lp2941
S'What'
p2942
aS'is'
p2943
aS'the'
p2944
aS'hallway'
p2945
aS'east'
p2946
aS'of'
p2947
asI422
(lp2948
S'What'
p2949
aS'is'
p2950
aS'the'
p2951
aS'bathroom'
p2952
aS'east'
p2953
aS'of'
p2954
asI423
(lp2955
S'What'
p2956
aS'is'
p2957
aS'north'
p2958
aS'of'
p2959
aS'the'
p2960
aS'garden'
p2961
asI424
(lp2962
S'What'
p2963
aS'is'
p2964
aS'the'
p2965
aS'office'
p2966
aS'south'
p2967
aS'of'
p2968
asI425
(lp2969
S'What'
p2970
aS'is'
p2971
aS'the'
p2972
aS'garden'
p2973
aS'south'
p2974
aS'of'
p2975
asI426
(lp2976
S'What'
p2977
aS'is'
p2978
aS'east'
p2979
aS'of'
p2980
aS'the'
p2981
aS'bathroom'
p2982
asI427
(lp2983
S'What'
p2984
aS'is'
p2985
aS'west'
p2986
aS'of'
p2987
aS'the'
p2988
aS'kitchen'
p2989
asI428
(lp2990
S'What'
p2991
aS'is'
p2992
aS'the'
p2993
aS'hallway'
p2994
aS'north'
p2995
aS'of'
p2996
asI429
(lp2997
S'What'
p2998
aS'is'
p2999
aS'south'
p3000
aS'of'
p3001
aS'the'
p3002
aS'kitchen'
p3003
asI430
(lp3004
S'What'
p3005
aS'is'
p3006
aS'north'
p3007
aS'of'
p3008
aS'the'
p3009
aS'bedroom'
p3010
asI431
(lp3011
S'What'
p3012
aS'is'
p3013
aS'south'
p3014
aS'of'
p3015
aS'the'
p3016
aS'hallway'
p3017
asI432
(lp3018
S'What'
p3019
aS'is'
p3020
aS'north'
p3021
aS'of'
p3022
aS'the'
p3023
aS'hallway'
p3024
asI433
(lp3025
S'What'
p3026
aS'is'
p3027
aS'the'
p3028
aS'kitchen'
p3029
aS'east'
p3030
aS'of'
p3031
asI434
(lp3032
S'What'
p3033
aS'is'
p3034
aS'the'
p3035
aS'bathroom'
p3036
aS'west'
p3037
aS'of'
p3038
asI435
(lp3039
S'What'
p3040
aS'is'
p3041
aS'north'
p3042
aS'of'
p3043
aS'the'
p3044
aS'kitchen'
p3045
asI436
(lp3046
S'What'
p3047
aS'is'
p3048
aS'east'
p3049
aS'of'
p3050
aS'the'
p3051
aS'kitchen'
p3052
asI437
(lp3053
S'What'
p3054
aS'is'
p3055
aS'the'
p3056
aS'kitchen'
p3057
aS'east'
p3058
aS'of'
p3059
asI438
(lp3060
S'What'
p3061
aS'is'
p3062
aS'the'
p3063
aS'bathroom'
p3064
aS'east'
p3065
aS'of'
p3066
asI439
(lp3067
S'What'
p3068
aS'is'
p3069
aS'south'
p3070
aS'of'
p3071
aS'the'
p3072
aS'garden'
p3073
asI440
(lp3074
S'What'
p3075
aS'is'
p3076
aS'east'
p3077
aS'of'
p3078
aS'the'
p3079
aS'garden'
p3080
asI441
(lp3081
S'What'
p3082
aS'is'
p3083
aS'north'
p3084
aS'of'
p3085
aS'the'
p3086
aS'garden'
p3087
asI442
(lp3088
S'What'
p3089
aS'is'
p3090
aS'the'
p3091
aS'bedroom'
p3092
aS'north'
p3093
aS'of'
p3094
asI443
(lp3095
S'What'
p3096
aS'is'
p3097
aS'the'
p3098
aS'kitchen'
p3099
aS'west'
p3100
aS'of'
p3101
asI444
(lp3102
S'What'
p3103
aS'is'
p3104
aS'west'
p3105
aS'of'
p3106
aS'the'
p3107
aS'garden'
p3108
asI445
(lp3109
S'What'
p3110
aS'is'
p3111
aS'the'
p3112
aS'hallway'
p3113
aS'east'
p3114
aS'of'
p3115
asI446
(lp3116
S'What'
p3117
aS'is'
p3118
aS'the'
p3119
aS'office'
p3120
aS'north'
p3121
aS'of'
p3122
asI447
(lp3123
S'What'
p3124
aS'is'
p3125
aS'the'
p3126
aS'kitchen'
p3127
aS'east'
p3128
aS'of'
p3129
asI448
(lp3130
S'What'
p3131
aS'is'
p3132
aS'the'
p3133
aS'kitchen'
p3134
aS'west'
p3135
aS'of'
p3136
asI449
(lp3137
S'What'
p3138
aS'is'
p3139
aS'the'
p3140
aS'office'
p3141
aS'north'
p3142
aS'of'
p3143
asI450
(lp3144
S'What'
p3145
aS'is'
p3146
aS'the'
p3147
aS'office'
p3148
aS'north'
p3149
aS'of'
p3150
asI451
(lp3151
S'What'
p3152
aS'is'
p3153
aS'east'
p3154
aS'of'
p3155
aS'the'
p3156
aS'office'
p3157
asI452
(lp3158
S'What'
p3159
aS'is'
p3160
aS'the'
p3161
aS'garden'
p3162
aS'north'
p3163
aS'of'
p3164
asI453
(lp3165
S'What'
p3166
aS'is'
p3167
aS'south'
p3168
aS'of'
p3169
aS'the'
p3170
aS'office'
p3171
asI454
(lp3172
S'What'
p3173
aS'is'
p3174
aS'south'
p3175
aS'of'
p3176
aS'the'
p3177
aS'hallway'
p3178
asI455
(lp3179
S'What'
p3180
aS'is'
p3181
aS'east'
p3182
aS'of'
p3183
aS'the'
p3184
aS'bathroom'
p3185
asI456
(lp3186
S'What'
p3187
aS'is'
p3188
aS'the'
p3189
aS'bedroom'
p3190
aS'west'
p3191
aS'of'
p3192
asI457
(lp3193
S'What'
p3194
aS'is'
p3195
aS'north'
p3196
aS'of'
p3197
aS'the'
p3198
aS'hallway'
p3199
asI458
(lp3200
S'What'
p3201
aS'is'
p3202
aS'the'
p3203
aS'office'
p3204
aS'north'
p3205
aS'of'
p3206
asI459
(lp3207
S'What'
p3208
aS'is'
p3209
aS'the'
p3210
aS'bedroom'
p3211
aS'west'
p3212
aS'of'
p3213
asI460
(lp3214
S'What'
p3215
aS'is'
p3216
aS'the'
p3217
aS'bedroom'
p3218
aS'east'
p3219
aS'of'
p3220
asI461
(lp3221
S'What'
p3222
aS'is'
p3223
aS'west'
p3224
aS'of'
p3225
aS'the'
p3226
aS'garden'
p3227
asI462
(lp3228
S'What'
p3229
aS'is'
p3230
aS'the'
p3231
aS'office'
p3232
aS'north'
p3233
aS'of'
p3234
asI463
(lp3235
S'What'
p3236
aS'is'
p3237
aS'the'
p3238
aS'garden'
p3239
aS'west'
p3240
aS'of'
p3241
asI464
(lp3242
S'What'
p3243
aS'is'
p3244
aS'south'
p3245
aS'of'
p3246
aS'the'
p3247
aS'bathroom'
p3248
asI465
(lp3249
S'What'
p3250
aS'is'
p3251
aS'the'
p3252
aS'kitchen'
p3253
aS'north'
p3254
aS'of'
p3255
asI466
(lp3256
S'What'
p3257
aS'is'
p3258
aS'the'
p3259
aS'garden'
p3260
aS'east'
p3261
aS'of'
p3262
asI467
(lp3263
S'What'
p3264
aS'is'
p3265
aS'north'
p3266
aS'of'
p3267
aS'the'
p3268
aS'hallway'
p3269
asI468
(lp3270
S'What'
p3271
aS'is'
p3272
aS'north'
p3273
aS'of'
p3274
aS'the'
p3275
aS'kitchen'
p3276
asI469
(lp3277
S'What'
p3278
aS'is'
p3279
aS'the'
p3280
aS'bathroom'
p3281
aS'east'
p3282
aS'of'
p3283
asI470
(lp3284
S'What'
p3285
aS'is'
p3286
aS'east'
p3287
aS'of'
p3288
aS'the'
p3289
aS'office'
p3290
asI471
(lp3291
S'What'
p3292
aS'is'
p3293
aS'the'
p3294
aS'office'
p3295
aS'east'
p3296
aS'of'
p3297
asI472
(lp3298
S'What'
p3299
aS'is'
p3300
aS'the'
p3301
aS'office'
p3302
aS'south'
p3303
aS'of'
p3304
asI473
(lp3305
S'What'
p3306
aS'is'
p3307
aS'east'
p3308
aS'of'
p3309
aS'the'
p3310
aS'hallway'
p3311
asI474
(lp3312
S'What'
p3313
aS'is'
p3314
aS'north'
p3315
aS'of'
p3316
aS'the'
p3317
aS'garden'
p3318
asI475
(lp3319
S'What'
p3320
aS'is'
p3321
aS'the'
p3322
aS'bedroom'
p3323
aS'east'
p3324
aS'of'
p3325
asI476
(lp3326
S'What'
p3327
aS'is'
p3328
aS'the'
p3329
aS'bathroom'
p3330
aS'north'
p3331
aS'of'
p3332
asI477
(lp3333
S'What'
p3334
aS'is'
p3335
aS'the'
p3336
aS'hallway'
p3337
aS'east'
p3338
aS'of'
p3339
asI478
(lp3340
S'What'
p3341
aS'is'
p3342
aS'west'
p3343
aS'of'
p3344
aS'the'
p3345
aS'bedroom'
p3346
asI479
(lp3347
S'What'
p3348
aS'is'
p3349
aS'the'
p3350
aS'bedroom'
p3351
aS'south'
p3352
aS'of'
p3353
asI480
(lp3354
S'What'
p3355
aS'is'
p3356
aS'north'
p3357
aS'of'
p3358
aS'the'
p3359
aS'hallway'
p3360
asI481
(lp3361
S'What'
p3362
aS'is'
p3363
aS'east'
p3364
aS'of'
p3365
aS'the'
p3366
aS'garden'
p3367
asI482
(lp3368
S'What'
p3369
aS'is'
p3370
aS'the'
p3371
aS'office'
p3372
aS'south'
p3373
aS'of'
p3374
asI483
(lp3375
S'What'
p3376
aS'is'
p3377
aS'the'
p3378
aS'bathroom'
p3379
aS'south'
p3380
aS'of'
p3381
asI484
(lp3382
S'What'
p3383
aS'is'
p3384
aS'the'
p3385
aS'office'
p3386
aS'north'
p3387
aS'of'
p3388
asI485
(lp3389
S'What'
p3390
aS'is'
p3391
aS'the'
p3392
aS'hallway'
p3393
aS'west'
p3394
aS'of'
p3395
asI486
(lp3396
S'What'
p3397
aS'is'
p3398
aS'the'
p3399
aS'kitchen'
p3400
aS'north'
p3401
aS'of'
p3402
asI487
(lp3403
S'What'
p3404
aS'is'
p3405
aS'the'
p3406
aS'office'
p3407
aS'west'
p3408
aS'of'
p3409
asI488
(lp3410
S'What'
p3411
aS'is'
p3412
aS'the'
p3413
aS'kitchen'
p3414
aS'north'
p3415
aS'of'
p3416
asI489
(lp3417
S'What'
p3418
aS'is'
p3419
aS'the'
p3420
aS'hallway'
p3421
aS'south'
p3422
aS'of'
p3423
asI490
(lp3424
S'What'
p3425
aS'is'
p3426
aS'west'
p3427
aS'of'
p3428
aS'the'
p3429
aS'garden'
p3430
asI491
(lp3431
S'What'
p3432
aS'is'
p3433
aS'west'
p3434
aS'of'
p3435
aS'the'
p3436
aS'office'
p3437
asI492
(lp3438
S'What'
p3439
aS'is'
p3440
aS'the'
p3441
aS'hallway'
p3442
aS'south'
p3443
aS'of'
p3444
asI493
(lp3445
S'What'
p3446
aS'is'
p3447
aS'the'
p3448
aS'bathroom'
p3449
aS'east'
p3450
aS'of'
p3451
asI494
(lp3452
S'What'
p3453
aS'is'
p3454
aS'north'
p3455
aS'of'
p3456
aS'the'
p3457
aS'garden'
p3458
asI495
(lp3459
S'What'
p3460
aS'is'
p3461
aS'east'
p3462
aS'of'
p3463
aS'the'
p3464
aS'bedroom'
p3465
asI496
(lp3466
S'What'
p3467
aS'is'
p3468
aS'west'
p3469
aS'of'
p3470
aS'the'
p3471
aS'kitchen'
p3472
asI497
(lp3473
S'What'
p3474
aS'is'
p3475
aS'the'
p3476
aS'kitchen'
p3477
aS'south'
p3478
aS'of'
p3479
asI498
(lp3480
S'What'
p3481
aS'is'
p3482
aS'the'
p3483
aS'bathroom'
p3484
aS'north'
p3485
aS'of'
p3486
asI499
(lp3487
S'What'
p3488
aS'is'
p3489
aS'north'
p3490
aS'of'
p3491
aS'the'
p3492
aS'bedroom'
p3493
asI500
(lp3494
S'What'
p3495
aS'is'
p3496
aS'south'
p3497
aS'of'
p3498
aS'the'
p3499
aS'hallway'
p3500
asI501
(lp3501
S'What'
p3502
aS'is'
p3503
aS'the'
p3504
aS'garden'
p3505
aS'south'
p3506
aS'of'
p3507
asI502
(lp3508
S'What'
p3509
aS'is'
p3510
aS'east'
p3511
aS'of'
p3512
aS'the'
p3513
aS'garden'
p3514
asI503
(lp3515
S'What'
p3516
aS'is'
p3517
aS'south'
p3518
aS'of'
p3519
aS'the'
p3520
aS'office'
p3521
asI504
(lp3522
S'What'
p3523
aS'is'
p3524
aS'south'
p3525
aS'of'
p3526
aS'the'
p3527
aS'garden'
p3528
asI505
(lp3529
S'What'
p3530
aS'is'
p3531
aS'the'
p3532
aS'bathroom'
p3533
aS'east'
p3534
aS'of'
p3535
asI506
(lp3536
S'What'
p3537
aS'is'
p3538
aS'north'
p3539
aS'of'
p3540
aS'the'
p3541
aS'kitchen'
p3542
asI507
(lp3543
S'What'
p3544
aS'is'
p3545
aS'the'
p3546
aS'kitchen'
p3547
aS'west'
p3548
aS'of'
p3549
asI508
(lp3550
S'What'
p3551
aS'is'
p3552
aS'the'
p3553
aS'garden'
p3554
aS'north'
p3555
aS'of'
p3556
asI509
(lp3557
S'What'
p3558
aS'is'
p3559
aS'the'
p3560
aS'bedroom'
p3561
aS'west'
p3562
aS'of'
p3563
asI510
(lp3564
S'What'
p3565
aS'is'
p3566
aS'east'
p3567
aS'of'
p3568
aS'the'
p3569
aS'office'
p3570
asI511
(lp3571
S'What'
p3572
aS'is'
p3573
aS'north'
p3574
aS'of'
p3575
aS'the'
p3576
aS'office'
p3577
asI512
(lp3578
S'What'
p3579
aS'is'
p3580
aS'north'
p3581
aS'of'
p3582
aS'the'
p3583
aS'kitchen'
p3584
asI513
(lp3585
S'What'
p3586
aS'is'
p3587
aS'the'
p3588
aS'garden'
p3589
aS'east'
p3590
aS'of'
p3591
asI514
(lp3592
S'What'
p3593
aS'is'
p3594
aS'the'
p3595
aS'office'
p3596
aS'south'
p3597
aS'of'
p3598
asI515
(lp3599
S'What'
p3600
aS'is'
p3601
aS'the'
p3602
aS'garden'
p3603
aS'west'
p3604
aS'of'
p3605
asI516
(lp3606
S'What'
p3607
aS'is'
p3608
aS'west'
p3609
aS'of'
p3610
aS'the'
p3611
aS'bathroom'
p3612
asI517
(lp3613
S'What'
p3614
aS'is'
p3615
aS'west'
p3616
aS'of'
p3617
aS'the'
p3618
aS'kitchen'
p3619
asI518
(lp3620
S'What'
p3621
aS'is'
p3622
aS'the'
p3623
aS'bathroom'
p3624
aS'east'
p3625
aS'of'
p3626
asI519
(lp3627
S'What'
p3628
aS'is'
p3629
aS'the'
p3630
aS'hallway'
p3631
aS'south'
p3632
aS'of'
p3633
asI520
(lp3634
S'What'
p3635
aS'is'
p3636
aS'the'
p3637
aS'bathroom'
p3638
aS'west'
p3639
aS'of'
p3640
asI521
(lp3641
S'What'
p3642
aS'is'
p3643
aS'west'
p3644
aS'of'
p3645
aS'the'
p3646
aS'hallway'
p3647
asI522
(lp3648
S'What'
p3649
aS'is'
p3650
aS'the'
p3651
aS'hallway'
p3652
aS'east'
p3653
aS'of'
p3654
asI523
(lp3655
S'What'
p3656
aS'is'
p3657
aS'north'
p3658
aS'of'
p3659
aS'the'
p3660
aS'bedroom'
p3661
asI524
(lp3662
S'What'
p3663
aS'is'
p3664
aS'the'
p3665
aS'garden'
p3666
aS'west'
p3667
aS'of'
p3668
asI525
(lp3669
S'What'
p3670
aS'is'
p3671
aS'the'
p3672
aS'hallway'
p3673
aS'west'
p3674
aS'of'
p3675
asI526
(lp3676
S'What'
p3677
aS'is'
p3678
aS'the'
p3679
aS'hallway'
p3680
aS'west'
p3681
aS'of'
p3682
asI527
(lp3683
S'What'
p3684
aS'is'
p3685
aS'the'
p3686
aS'kitchen'
p3687
aS'west'
p3688
aS'of'
p3689
asI528
(lp3690
S'What'
p3691
aS'is'
p3692
aS'east'
p3693
aS'of'
p3694
aS'the'
p3695
aS'kitchen'
p3696
asI529
(lp3697
S'What'
p3698
aS'is'
p3699
aS'west'
p3700
aS'of'
p3701
aS'the'
p3702
aS'garden'
p3703
asI530
(lp3704
S'What'
p3705
aS'is'
p3706
aS'west'
p3707
aS'of'
p3708
aS'the'
p3709
aS'office'
p3710
asI531
(lp3711
S'What'
p3712
aS'is'
p3713
aS'south'
p3714
aS'of'
p3715
aS'the'
p3716
aS'bedroom'
p3717
asI532
(lp3718
S'What'
p3719
aS'is'
p3720
aS'the'
p3721
aS'bedroom'
p3722
aS'east'
p3723
aS'of'
p3724
asI533
(lp3725
S'What'
p3726
aS'is'
p3727
aS'south'
p3728
aS'of'
p3729
aS'the'
p3730
aS'garden'
p3731
asI534
(lp3732
S'What'
p3733
aS'is'
p3734
aS'the'
p3735
aS'garden'
p3736
aS'east'
p3737
aS'of'
p3738
asI535
(lp3739
S'What'
p3740
aS'is'
p3741
aS'south'
p3742
aS'of'
p3743
aS'the'
p3744
aS'garden'
p3745
asI536
(lp3746
S'What'
p3747
aS'is'
p3748
aS'the'
p3749
aS'bathroom'
p3750
aS'south'
p3751
aS'of'
p3752
asI537
(lp3753
S'What'
p3754
aS'is'
p3755
aS'north'
p3756
aS'of'
p3757
aS'the'
p3758
aS'bathroom'
p3759
asI538
(lp3760
S'What'
p3761
aS'is'
p3762
aS'the'
p3763
aS'hallway'
p3764
aS'east'
p3765
aS'of'
p3766
asI539
(lp3767
S'What'
p3768
aS'is'
p3769
aS'east'
p3770
aS'of'
p3771
aS'the'
p3772
aS'garden'
p3773
asI540
(lp3774
S'What'
p3775
aS'is'
p3776
aS'west'
p3777
aS'of'
p3778
aS'the'
p3779
aS'hallway'
p3780
asI541
(lp3781
S'What'
p3782
aS'is'
p3783
aS'the'
p3784
aS'office'
p3785
aS'west'
p3786
aS'of'
p3787
asI542
(lp3788
S'What'
p3789
aS'is'
p3790
aS'the'
p3791
aS'garden'
p3792
aS'south'
p3793
aS'of'
p3794
asI543
(lp3795
S'What'
p3796
aS'is'
p3797
aS'the'
p3798
aS'bathroom'
p3799
aS'south'
p3800
aS'of'
p3801
asI544
(lp3802
S'What'
p3803
aS'is'
p3804
aS'east'
p3805
aS'of'
p3806
aS'the'
p3807
aS'kitchen'
p3808
asI545
(lp3809
S'What'
p3810
aS'is'
p3811
aS'west'
p3812
aS'of'
p3813
aS'the'
p3814
aS'hallway'
p3815
asI546
(lp3816
S'What'
p3817
aS'is'
p3818
aS'the'
p3819
aS'hallway'
p3820
aS'north'
p3821
aS'of'
p3822
asI547
(lp3823
S'What'
p3824
aS'is'
p3825
aS'the'
p3826
aS'garden'
p3827
aS'east'
p3828
aS'of'
p3829
asI548
(lp3830
S'What'
p3831
aS'is'
p3832
aS'the'
p3833
aS'office'
p3834
aS'west'
p3835
aS'of'
p3836
asI549
(lp3837
S'What'
p3838
aS'is'
p3839
aS'east'
p3840
aS'of'
p3841
aS'the'
p3842
aS'bathroom'
p3843
asI550
(lp3844
S'What'
p3845
aS'is'
p3846
aS'the'
p3847
aS'kitchen'
p3848
aS'south'
p3849
aS'of'
p3850
asI551
(lp3851
S'What'
p3852
aS'is'
p3853
aS'east'
p3854
aS'of'
p3855
aS'the'
p3856
aS'garden'
p3857
asI552
(lp3858
S'What'
p3859
aS'is'
p3860
aS'the'
p3861
aS'hallway'
p3862
aS'north'
p3863
aS'of'
p3864
asI553
(lp3865
S'What'
p3866
aS'is'
p3867
aS'south'
p3868
aS'of'
p3869
aS'the'
p3870
aS'bathroom'
p3871
asI554
(lp3872
S'What'
p3873
aS'is'
p3874
aS'east'
p3875
aS'of'
p3876
aS'the'
p3877
aS'hallway'
p3878
asI555
(lp3879
S'What'
p3880
aS'is'
p3881
aS'the'
p3882
aS'hallway'
p3883
aS'east'
p3884
aS'of'
p3885
asI556
(lp3886
S'What'
p3887
aS'is'
p3888
aS'south'
p3889
aS'of'
p3890
aS'the'
p3891
aS'office'
p3892
asI557
(lp3893
S'What'
p3894
aS'is'
p3895
aS'east'
p3896
aS'of'
p3897
aS'the'
p3898
aS'office'
p3899
asI558
(lp3900
S'What'
p3901
aS'is'
p3902
aS'north'
p3903
aS'of'
p3904
aS'the'
p3905
aS'bathroom'
p3906
asI559
(lp3907
S'What'
p3908
aS'is'
p3909
aS'the'
p3910
aS'bathroom'
p3911
aS'south'
p3912
aS'of'
p3913
asI560
(lp3914
S'What'
p3915
aS'is'
p3916
aS'the'
p3917
aS'bathroom'
p3918
aS'north'
p3919
aS'of'
p3920
asI561
(lp3921
S'What'
p3922
aS'is'
p3923
aS'south'
p3924
aS'of'
p3925
aS'the'
p3926
aS'garden'
p3927
asI562
(lp3928
S'What'
p3929
aS'is'
p3930
aS'south'
p3931
aS'of'
p3932
aS'the'
p3933
aS'garden'
p3934
asI563
(lp3935
S'What'
p3936
aS'is'
p3937
aS'west'
p3938
aS'of'
p3939
aS'the'
p3940
aS'bedroom'
p3941
asI564
(lp3942
S'What'
p3943
aS'is'
p3944
aS'north'
p3945
aS'of'
p3946
aS'the'
p3947
aS'bedroom'
p3948
asI565
(lp3949
S'What'
p3950
aS'is'
p3951
aS'the'
p3952
aS'bedroom'
p3953
aS'west'
p3954
aS'of'
p3955
asI566
(lp3956
S'What'
p3957
aS'is'
p3958
aS'east'
p3959
aS'of'
p3960
aS'the'
p3961
aS'office'
p3962
asI567
(lp3963
S'What'
p3964
aS'is'
p3965
aS'the'
p3966
aS'bathroom'
p3967
aS'east'
p3968
aS'of'
p3969
asI568
(lp3970
S'What'
p3971
aS'is'
p3972
aS'east'
p3973
aS'of'
p3974
aS'the'
p3975
aS'bedroom'
p3976
asI569
(lp3977
S'What'
p3978
aS'is'
p3979
aS'west'
p3980
aS'of'
p3981
aS'the'
p3982
aS'hallway'
p3983
asI570
(lp3984
S'What'
p3985
aS'is'
p3986
aS'east'
p3987
aS'of'
p3988
aS'the'
p3989
aS'kitchen'
p3990
asI571
(lp3991
S'What'
p3992
aS'is'
p3993
aS'the'
p3994
aS'kitchen'
p3995
aS'north'
p3996
aS'of'
p3997
asI572
(lp3998
S'What'
p3999
aS'is'
p4000
aS'the'
p4001
aS'bathroom'
p4002
aS'west'
p4003
aS'of'
p4004
asI573
(lp4005
S'What'
p4006
aS'is'
p4007
aS'south'
p4008
aS'of'
p4009
aS'the'
p4010
aS'bedroom'
p4011
asI574
(lp4012
S'What'
p4013
aS'is'
p4014
aS'the'
p4015
aS'garden'
p4016
aS'west'
p4017
aS'of'
p4018
asI575
(lp4019
S'What'
p4020
aS'is'
p4021
aS'south'
p4022
aS'of'
p4023
aS'the'
p4024
aS'hallway'
p4025
asI576
(lp4026
S'What'
p4027
aS'is'
p4028
aS'east'
p4029
aS'of'
p4030
aS'the'
p4031
aS'hallway'
p4032
asI577
(lp4033
S'What'
p4034
aS'is'
p4035
aS'the'
p4036
aS'bedroom'
p4037
aS'north'
p4038
aS'of'
p4039
asI578
(lp4040
S'What'
p4041
aS'is'
p4042
aS'north'
p4043
aS'of'
p4044
aS'the'
p4045
aS'bathroom'
p4046
asI579
(lp4047
S'What'
p4048
aS'is'
p4049
aS'the'
p4050
aS'bathroom'
p4051
aS'south'
p4052
aS'of'
p4053
asI580
(lp4054
S'What'
p4055
aS'is'
p4056
aS'the'
p4057
aS'bedroom'
p4058
aS'north'
p4059
aS'of'
p4060
asI581
(lp4061
S'What'
p4062
aS'is'
p4063
aS'east'
p4064
aS'of'
p4065
aS'the'
p4066
aS'bedroom'
p4067
asI582
(lp4068
S'What'
p4069
aS'is'
p4070
aS'the'
p4071
aS'office'
p4072
aS'south'
p4073
aS'of'
p4074
asI583
(lp4075
S'What'
p4076
aS'is'
p4077
aS'north'
p4078
aS'of'
p4079
aS'the'
p4080
aS'office'
p4081
asI584
(lp4082
S'What'
p4083
aS'is'
p4084
aS'west'
p4085
aS'of'
p4086
aS'the'
p4087
aS'hallway'
p4088
asI585
(lp4089
S'What'
p4090
aS'is'
p4091
aS'east'
p4092
aS'of'
p4093
aS'the'
p4094
aS'bathroom'
p4095
asI586
(lp4096
S'What'
p4097
aS'is'
p4098
aS'the'
p4099
aS'office'
p4100
aS'west'
p4101
aS'of'
p4102
asI587
(lp4103
S'What'
p4104
aS'is'
p4105
aS'the'
p4106
aS'office'
p4107
aS'west'
p4108
aS'of'
p4109
asI588
(lp4110
S'What'
p4111
aS'is'
p4112
aS'the'
p4113
aS'garden'
p4114
aS'west'
p4115
aS'of'
p4116
asI589
(lp4117
S'What'
p4118
aS'is'
p4119
aS'the'
p4120
aS'bedroom'
p4121
aS'north'
p4122
aS'of'
p4123
asI590
(lp4124
S'What'
p4125
aS'is'
p4126
aS'the'
p4127
aS'office'
p4128
aS'south'
p4129
aS'of'
p4130
asI591
(lp4131
S'What'
p4132
aS'is'
p4133
aS'the'
p4134
aS'bathroom'
p4135
aS'south'
p4136
aS'of'
p4137
asI592
(lp4138
S'What'
p4139
aS'is'
p4140
aS'south'
p4141
aS'of'
p4142
aS'the'
p4143
aS'garden'
p4144
asI593
(lp4145
S'What'
p4146
aS'is'
p4147
aS'the'
p4148
aS'kitchen'
p4149
aS'south'
p4150
aS'of'
p4151
asI594
(lp4152
S'What'
p4153
aS'is'
p4154
aS'the'
p4155
aS'office'
p4156
aS'north'
p4157
aS'of'
p4158
asI595
(lp4159
S'What'
p4160
aS'is'
p4161
aS'the'
p4162
aS'bedroom'
p4163
aS'north'
p4164
aS'of'
p4165
asI596
(lp4166
S'What'
p4167
aS'is'
p4168
aS'north'
p4169
aS'of'
p4170
aS'the'
p4171
aS'office'
p4172
asI597
(lp4173
S'What'
p4174
aS'is'
p4175
aS'the'
p4176
aS'garden'
p4177
aS'south'
p4178
aS'of'
p4179
asI598
(lp4180
S'What'
p4181
aS'is'
p4182
aS'east'
p4183
aS'of'
p4184
aS'the'
p4185
aS'bathroom'
p4186
asI599
(lp4187
S'What'
p4188
aS'is'
p4189
aS'the'
p4190
aS'bedroom'
p4191
aS'south'
p4192
aS'of'
p4193
asI600
(lp4194
S'What'
p4195
aS'is'
p4196
aS'east'
p4197
aS'of'
p4198
aS'the'
p4199
aS'garden'
p4200
asI601
(lp4201
S'What'
p4202
aS'is'
p4203
aS'east'
p4204
aS'of'
p4205
aS'the'
p4206
aS'kitchen'
p4207
asI602
(lp4208
S'What'
p4209
aS'is'
p4210
aS'the'
p4211
aS'garden'
p4212
aS'south'
p4213
aS'of'
p4214
asI603
(lp4215
S'What'
p4216
aS'is'
p4217
aS'south'
p4218
aS'of'
p4219
aS'the'
p4220
aS'office'
p4221
asI604
(lp4222
S'What'
p4223
aS'is'
p4224
aS'the'
p4225
aS'bedroom'
p4226
aS'north'
p4227
aS'of'
p4228
asI605
(lp4229
S'What'
p4230
aS'is'
p4231
aS'the'
p4232
aS'bedroom'
p4233
aS'west'
p4234
aS'of'
p4235
asI606
(lp4236
S'What'
p4237
aS'is'
p4238
aS'the'
p4239
aS'kitchen'
p4240
aS'west'
p4241
aS'of'
p4242
asI607
(lp4243
S'What'
p4244
aS'is'
p4245
aS'the'
p4246
aS'bathroom'
p4247
aS'east'
p4248
aS'of'
p4249
asI608
(lp4250
S'What'
p4251
aS'is'
p4252
aS'the'
p4253
aS'kitchen'
p4254
aS'north'
p4255
aS'of'
p4256
asI609
(lp4257
S'What'
p4258
aS'is'
p4259
aS'west'
p4260
aS'of'
p4261
aS'the'
p4262
aS'hallway'
p4263
asI610
(lp4264
S'What'
p4265
aS'is'
p4266
aS'south'
p4267
aS'of'
p4268
aS'the'
p4269
aS'office'
p4270
asI611
(lp4271
S'What'
p4272
aS'is'
p4273
aS'the'
p4274
aS'office'
p4275
aS'west'
p4276
aS'of'
p4277
asI612
(lp4278
S'What'
p4279
aS'is'
p4280
aS'the'
p4281
aS'kitchen'
p4282
aS'west'
p4283
aS'of'
p4284
asI613
(lp4285
S'What'
p4286
aS'is'
p4287
aS'east'
p4288
aS'of'
p4289
aS'the'
p4290
aS'garden'
p4291
asI614
(lp4292
S'What'
p4293
aS'is'
p4294
aS'south'
p4295
aS'of'
p4296
aS'the'
p4297
aS'garden'
p4298
asI615
(lp4299
S'What'
p4300
aS'is'
p4301
aS'east'
p4302
aS'of'
p4303
aS'the'
p4304
aS'bathroom'
p4305
asI616
(lp4306
S'What'
p4307
aS'is'
p4308
aS'north'
p4309
aS'of'
p4310
aS'the'
p4311
aS'bathroom'
p4312
asI617
(lp4313
S'What'
p4314
aS'is'
p4315
aS'south'
p4316
aS'of'
p4317
aS'the'
p4318
aS'bathroom'
p4319
asI618
(lp4320
S'What'
p4321
aS'is'
p4322
aS'south'
p4323
aS'of'
p4324
aS'the'
p4325
aS'bathroom'
p4326
asI619
(lp4327
S'What'
p4328
aS'is'
p4329
aS'the'
p4330
aS'bedroom'
p4331
aS'west'
p4332
aS'of'
p4333
asI620
(lp4334
S'What'
p4335
aS'is'
p4336
aS'north'
p4337
aS'of'
p4338
aS'the'
p4339
aS'bedroom'
p4340
asI621
(lp4341
S'What'
p4342
aS'is'
p4343
aS'south'
p4344
aS'of'
p4345
aS'the'
p4346
aS'garden'
p4347
asI622
(lp4348
S'What'
p4349
aS'is'
p4350
aS'the'
p4351
aS'garden'
p4352
aS'north'
p4353
aS'of'
p4354
asI623
(lp4355
S'What'
p4356
aS'is'
p4357
aS'east'
p4358
aS'of'
p4359
aS'the'
p4360
aS'bedroom'
p4361
asI624
(lp4362
S'What'
p4363
aS'is'
p4364
aS'the'
p4365
aS'office'
p4366
aS'north'
p4367
aS'of'
p4368
asI625
(lp4369
S'What'
p4370
aS'is'
p4371
aS'north'
p4372
aS'of'
p4373
aS'the'
p4374
aS'office'
p4375
asI626
(lp4376
S'What'
p4377
aS'is'
p4378
aS'the'
p4379
aS'kitchen'
p4380
aS'east'
p4381
aS'of'
p4382
asI627
(lp4383
S'What'
p4384
aS'is'
p4385
aS'west'
p4386
aS'of'
p4387
aS'the'
p4388
aS'kitchen'
p4389
asI628
(lp4390
S'What'
p4391
aS'is'
p4392
aS'south'
p4393
aS'of'
p4394
aS'the'
p4395
aS'garden'
p4396
asI629
(lp4397
S'What'
p4398
aS'is'
p4399
aS'south'
p4400
aS'of'
p4401
aS'the'
p4402
aS'garden'
p4403
asI630
(lp4404
S'What'
p4405
aS'is'
p4406
aS'the'
p4407
aS'bedroom'
p4408
aS'west'
p4409
aS'of'
p4410
asI631
(lp4411
S'What'
p4412
aS'is'
p4413
aS'east'
p4414
aS'of'
p4415
aS'the'
p4416
aS'kitchen'
p4417
asI632
(lp4418
S'What'
p4419
aS'is'
p4420
aS'west'
p4421
aS'of'
p4422
aS'the'
p4423
aS'kitchen'
p4424
asI633
(lp4425
S'What'
p4426
aS'is'
p4427
aS'north'
p4428
aS'of'
p4429
aS'the'
p4430
aS'kitchen'
p4431
asI634
(lp4432
S'What'
p4433
aS'is'
p4434
aS'the'
p4435
aS'bedroom'
p4436
aS'south'
p4437
aS'of'
p4438
asI635
(lp4439
S'What'
p4440
aS'is'
p4441
aS'east'
p4442
aS'of'
p4443
aS'the'
p4444
aS'bathroom'
p4445
asI636
(lp4446
S'What'
p4447
aS'is'
p4448
aS'east'
p4449
aS'of'
p4450
aS'the'
p4451
aS'office'
p4452
asI637
(lp4453
S'What'
p4454
aS'is'
p4455
aS'the'
p4456
aS'bedroom'
p4457
aS'west'
p4458
aS'of'
p4459
asI638
(lp4460
S'What'
p4461
aS'is'
p4462
aS'south'
p4463
aS'of'
p4464
aS'the'
p4465
aS'bedroom'
p4466
asI639
(lp4467
S'What'
p4468
aS'is'
p4469
aS'south'
p4470
aS'of'
p4471
aS'the'
p4472
aS'office'
p4473
asI640
(lp4474
S'What'
p4475
aS'is'
p4476
aS'south'
p4477
aS'of'
p4478
aS'the'
p4479
aS'kitchen'
p4480
asI641
(lp4481
S'What'
p4482
aS'is'
p4483
aS'south'
p4484
aS'of'
p4485
aS'the'
p4486
aS'garden'
p4487
asI642
(lp4488
S'What'
p4489
aS'is'
p4490
aS'east'
p4491
aS'of'
p4492
aS'the'
p4493
aS'bathroom'
p4494
asI643
(lp4495
S'What'
p4496
aS'is'
p4497
aS'the'
p4498
aS'garden'
p4499
aS'south'
p4500
aS'of'
p4501
asI644
(lp4502
S'What'
p4503
aS'is'
p4504
aS'west'
p4505
aS'of'
p4506
aS'the'
p4507
aS'kitchen'
p4508
asI645
(lp4509
S'What'
p4510
aS'is'
p4511
aS'the'
p4512
aS'bedroom'
p4513
aS'east'
p4514
aS'of'
p4515
asI646
(lp4516
S'What'
p4517
aS'is'
p4518
aS'the'
p4519
aS'bathroom'
p4520
aS'north'
p4521
aS'of'
p4522
asI647
(lp4523
S'What'
p4524
aS'is'
p4525
aS'south'
p4526
aS'of'
p4527
aS'the'
p4528
aS'bathroom'
p4529
asI648
(lp4530
S'What'
p4531
aS'is'
p4532
aS'the'
p4533
aS'hallway'
p4534
aS'south'
p4535
aS'of'
p4536
asI649
(lp4537
S'What'
p4538
aS'is'
p4539
aS'the'
p4540
aS'garden'
p4541
aS'east'
p4542
aS'of'
p4543
asI650
(lp4544
S'What'
p4545
aS'is'
p4546
aS'west'
p4547
aS'of'
p4548
aS'the'
p4549
aS'bedroom'
p4550
asI651
(lp4551
S'What'
p4552
aS'is'
p4553
aS'west'
p4554
aS'of'
p4555
aS'the'
p4556
aS'garden'
p4557
asI652
(lp4558
S'What'
p4559
aS'is'
p4560
aS'the'
p4561
aS'bedroom'
p4562
aS'south'
p4563
aS'of'
p4564
asI653
(lp4565
S'What'
p4566
aS'is'
p4567
aS'west'
p4568
aS'of'
p4569
aS'the'
p4570
aS'bathroom'
p4571
asI654
(lp4572
S'What'
p4573
aS'is'
p4574
aS'the'
p4575
aS'kitchen'
p4576
aS'north'
p4577
aS'of'
p4578
asI655
(lp4579
S'What'
p4580
aS'is'
p4581
aS'west'
p4582
aS'of'
p4583
aS'the'
p4584
aS'hallway'
p4585
asI656
(lp4586
S'What'
p4587
aS'is'
p4588
aS'the'
p4589
aS'bathroom'
p4590
aS'south'
p4591
aS'of'
p4592
asI657
(lp4593
S'What'
p4594
aS'is'
p4595
aS'the'
p4596
aS'bedroom'
p4597
aS'east'
p4598
aS'of'
p4599
asI658
(lp4600
S'What'
p4601
aS'is'
p4602
aS'the'
p4603
aS'bathroom'
p4604
aS'east'
p4605
aS'of'
p4606
asI659
(lp4607
S'What'
p4608
aS'is'
p4609
aS'the'
p4610
aS'hallway'
p4611
aS'west'
p4612
aS'of'
p4613
asI660
(lp4614
S'What'
p4615
aS'is'
p4616
aS'the'
p4617
aS'office'
p4618
aS'west'
p4619
aS'of'
p4620
asI661
(lp4621
S'What'
p4622
aS'is'
p4623
aS'the'
p4624
aS'bathroom'
p4625
aS'south'
p4626
aS'of'
p4627
asI662
(lp4628
S'What'
p4629
aS'is'
p4630
aS'the'
p4631
aS'bedroom'
p4632
aS'west'
p4633
aS'of'
p4634
asI663
(lp4635
S'What'
p4636
aS'is'
p4637
aS'the'
p4638
aS'bedroom'
p4639
aS'west'
p4640
aS'of'
p4641
asI664
(lp4642
S'What'
p4643
aS'is'
p4644
aS'west'
p4645
aS'of'
p4646
aS'the'
p4647
aS'kitchen'
p4648
asI665
(lp4649
S'What'
p4650
aS'is'
p4651
aS'east'
p4652
aS'of'
p4653
aS'the'
p4654
aS'hallway'
p4655
asI666
(lp4656
S'What'
p4657
aS'is'
p4658
aS'south'
p4659
aS'of'
p4660
aS'the'
p4661
aS'hallway'
p4662
asI667
(lp4663
S'What'
p4664
aS'is'
p4665
aS'the'
p4666
aS'bathroom'
p4667
aS'south'
p4668
aS'of'
p4669
asI668
(lp4670
S'What'
p4671
aS'is'
p4672
aS'the'
p4673
aS'kitchen'
p4674
aS'south'
p4675
aS'of'
p4676
asI669
(lp4677
S'What'
p4678
aS'is'
p4679
aS'north'
p4680
aS'of'
p4681
aS'the'
p4682
aS'office'
p4683
asI670
(lp4684
S'What'
p4685
aS'is'
p4686
aS'east'
p4687
aS'of'
p4688
aS'the'
p4689
aS'office'
p4690
asI671
(lp4691
S'What'
p4692
aS'is'
p4693
aS'east'
p4694
aS'of'
p4695
aS'the'
p4696
aS'office'
p4697
asI672
(lp4698
S'What'
p4699
aS'is'
p4700
aS'the'
p4701
aS'kitchen'
p4702
aS'north'
p4703
aS'of'
p4704
asI673
(lp4705
S'What'
p4706
aS'is'
p4707
aS'south'
p4708
aS'of'
p4709
aS'the'
p4710
aS'bathroom'
p4711
asI674
(lp4712
S'What'
p4713
aS'is'
p4714
aS'west'
p4715
aS'of'
p4716
aS'the'
p4717
aS'office'
p4718
asI675
(lp4719
S'What'
p4720
aS'is'
p4721
aS'west'
p4722
aS'of'
p4723
aS'the'
p4724
aS'garden'
p4725
asI676
(lp4726
S'What'
p4727
aS'is'
p4728
aS'the'
p4729
aS'office'
p4730
aS'west'
p4731
aS'of'
p4732
asI677
(lp4733
S'What'
p4734
aS'is'
p4735
aS'east'
p4736
aS'of'
p4737
aS'the'
p4738
aS'garden'
p4739
asI678
(lp4740
S'What'
p4741
aS'is'
p4742
aS'the'
p4743
aS'bathroom'
p4744
aS'south'
p4745
aS'of'
p4746
asI679
(lp4747
S'What'
p4748
aS'is'
p4749
aS'east'
p4750
aS'of'
p4751
aS'the'
p4752
aS'office'
p4753
asI680
(lp4754
S'What'
p4755
aS'is'
p4756
aS'the'
p4757
aS'office'
p4758
aS'north'
p4759
aS'of'
p4760
asI681
(lp4761
S'What'
p4762
aS'is'
p4763
aS'the'
p4764
aS'bathroom'
p4765
aS'south'
p4766
aS'of'
p4767
asI682
(lp4768
S'What'
p4769
aS'is'
p4770
aS'the'
p4771
aS'office'
p4772
aS'west'
p4773
aS'of'
p4774
asI683
(lp4775
S'What'
p4776
aS'is'
p4777
aS'the'
p4778
aS'office'
p4779
aS'north'
p4780
aS'of'
p4781
asI684
(lp4782
S'What'
p4783
aS'is'
p4784
aS'west'
p4785
aS'of'
p4786
aS'the'
p4787
aS'bedroom'
p4788
asI685
(lp4789
S'What'
p4790
aS'is'
p4791
aS'east'
p4792
aS'of'
p4793
aS'the'
p4794
aS'office'
p4795
asI686
(lp4796
S'What'
p4797
aS'is'
p4798
aS'the'
p4799
aS'office'
p4800
aS'east'
p4801
aS'of'
p4802
asI687
(lp4803
S'What'
p4804
aS'is'
p4805
aS'east'
p4806
aS'of'
p4807
aS'the'
p4808
aS'hallway'
p4809
asI688
(lp4810
S'What'
p4811
aS'is'
p4812
aS'east'
p4813
aS'of'
p4814
aS'the'
p4815
aS'hallway'
p4816
asI689
(lp4817
S'What'
p4818
aS'is'
p4819
aS'east'
p4820
aS'of'
p4821
aS'the'
p4822
aS'garden'
p4823
asI690
(lp4824
S'What'
p4825
aS'is'
p4826
aS'the'
p4827
aS'office'
p4828
aS'south'
p4829
aS'of'
p4830
asI691
(lp4831
S'What'
p4832
aS'is'
p4833
aS'the'
p4834
aS'bathroom'
p4835
aS'east'
p4836
aS'of'
p4837
asI692
(lp4838
S'What'
p4839
aS'is'
p4840
aS'north'
p4841
aS'of'
p4842
aS'the'
p4843
aS'garden'
p4844
asI693
(lp4845
S'What'
p4846
aS'is'
p4847
aS'the'
p4848
aS'hallway'
p4849
aS'south'
p4850
aS'of'
p4851
asI694
(lp4852
S'What'
p4853
aS'is'
p4854
aS'the'
p4855
aS'kitchen'
p4856
aS'east'
p4857
aS'of'
p4858
asI695
(lp4859
S'What'
p4860
aS'is'
p4861
aS'the'
p4862
aS'kitchen'
p4863
aS'south'
p4864
aS'of'
p4865
asI696
(lp4866
S'What'
p4867
aS'is'
p4868
aS'south'
p4869
aS'of'
p4870
aS'the'
p4871
aS'bathroom'
p4872
asI697
(lp4873
S'What'
p4874
aS'is'
p4875
aS'west'
p4876
aS'of'
p4877
aS'the'
p4878
aS'bedroom'
p4879
asI698
(lp4880
S'What'
p4881
aS'is'
p4882
aS'north'
p4883
aS'of'
p4884
aS'the'
p4885
aS'bathroom'
p4886
asI699
(lp4887
S'What'
p4888
aS'is'
p4889
aS'the'
p4890
aS'kitchen'
p4891
aS'east'
p4892
aS'of'
p4893
asI700
(lp4894
S'What'
p4895
aS'is'
p4896
aS'the'
p4897
aS'garden'
p4898
aS'south'
p4899
aS'of'
p4900
asI701
(lp4901
S'What'
p4902
aS'is'
p4903
aS'west'
p4904
aS'of'
p4905
aS'the'
p4906
aS'office'
p4907
asI702
(lp4908
S'What'
p4909
aS'is'
p4910
aS'the'
p4911
aS'hallway'
p4912
aS'east'
p4913
aS'of'
p4914
asI703
(lp4915
S'What'
p4916
aS'is'
p4917
aS'the'
p4918
aS'hallway'
p4919
aS'north'
p4920
aS'of'
p4921
asI704
(lp4922
S'What'
p4923
aS'is'
p4924
aS'the'
p4925
aS'hallway'
p4926
aS'north'
p4927
aS'of'
p4928
asI705
(lp4929
S'What'
p4930
aS'is'
p4931
aS'south'
p4932
aS'of'
p4933
aS'the'
p4934
aS'bathroom'
p4935
asI706
(lp4936
S'What'
p4937
aS'is'
p4938
aS'the'
p4939
aS'office'
p4940
aS'east'
p4941
aS'of'
p4942
asI707
(lp4943
S'What'
p4944
aS'is'
p4945
aS'the'
p4946
aS'bedroom'
p4947
aS'north'
p4948
aS'of'
p4949
asI708
(lp4950
S'What'
p4951
aS'is'
p4952
aS'the'
p4953
aS'garden'
p4954
aS'east'
p4955
aS'of'
p4956
asI709
(lp4957
S'What'
p4958
aS'is'
p4959
aS'east'
p4960
aS'of'
p4961
aS'the'
p4962
aS'bedroom'
p4963
asI710
(lp4964
S'What'
p4965
aS'is'
p4966
aS'south'
p4967
aS'of'
p4968
aS'the'
p4969
aS'hallway'
p4970
asI711
(lp4971
S'What'
p4972
aS'is'
p4973
aS'the'
p4974
aS'bathroom'
p4975
aS'east'
p4976
aS'of'
p4977
asI712
(lp4978
S'What'
p4979
aS'is'
p4980
aS'the'
p4981
aS'kitchen'
p4982
aS'north'
p4983
aS'of'
p4984
asI713
(lp4985
S'What'
p4986
aS'is'
p4987
aS'north'
p4988
aS'of'
p4989
aS'the'
p4990
aS'bedroom'
p4991
asI714
(lp4992
S'What'
p4993
aS'is'
p4994
aS'west'
p4995
aS'of'
p4996
aS'the'
p4997
aS'bedroom'
p4998
asI715
(lp4999
S'What'
p5000
aS'is'
p5001
aS'the'
p5002
aS'bathroom'
p5003
aS'south'
p5004
aS'of'
p5005
asI716
(lp5006
S'What'
p5007
aS'is'
p5008
aS'the'
p5009
aS'bathroom'
p5010
aS'east'
p5011
aS'of'
p5012
asI717
(lp5013
S'What'
p5014
aS'is'
p5015
aS'the'
p5016
aS'hallway'
p5017
aS'west'
p5018
aS'of'
p5019
asI718
(lp5020
S'What'
p5021
aS'is'
p5022
aS'the'
p5023
aS'hallway'
p5024
aS'east'
p5025
aS'of'
p5026
asI719
(lp5027
S'What'
p5028
aS'is'
p5029
aS'north'
p5030
aS'of'
p5031
aS'the'
p5032
aS'garden'
p5033
asI720
(lp5034
S'What'
p5035
aS'is'
p5036
aS'north'
p5037
aS'of'
p5038
aS'the'
p5039
aS'hallway'
p5040
asI721
(lp5041
S'What'
p5042
aS'is'
p5043
aS'the'
p5044
aS'bedroom'
p5045
aS'south'
p5046
aS'of'
p5047
asI722
(lp5048
S'What'
p5049
aS'is'
p5050
aS'south'
p5051
aS'of'
p5052
aS'the'
p5053
aS'hallway'
p5054
asI723
(lp5055
S'What'
p5056
aS'is'
p5057
aS'the'
p5058
aS'office'
p5059
aS'south'
p5060
aS'of'
p5061
asI724
(lp5062
S'What'
p5063
aS'is'
p5064
aS'the'
p5065
aS'kitchen'
p5066
aS'west'
p5067
aS'of'
p5068
asI725
(lp5069
S'What'
p5070
aS'is'
p5071
aS'the'
p5072
aS'garden'
p5073
aS'east'
p5074
aS'of'
p5075
asI726
(lp5076
S'What'
p5077
aS'is'
p5078
aS'east'
p5079
aS'of'
p5080
aS'the'
p5081
aS'hallway'
p5082
asI727
(lp5083
S'What'
p5084
aS'is'
p5085
aS'the'
p5086
aS'bathroom'
p5087
aS'south'
p5088
aS'of'
p5089
asI728
(lp5090
S'What'
p5091
aS'is'
p5092
aS'south'
p5093
aS'of'
p5094
aS'the'
p5095
aS'garden'
p5096
asI729
(lp5097
S'What'
p5098
aS'is'
p5099
aS'south'
p5100
aS'of'
p5101
aS'the'
p5102
aS'hallway'
p5103
asI730
(lp5104
S'What'
p5105
aS'is'
p5106
aS'the'
p5107
aS'kitchen'
p5108
aS'west'
p5109
aS'of'
p5110
asI731
(lp5111
S'What'
p5112
aS'is'
p5113
aS'west'
p5114
aS'of'
p5115
aS'the'
p5116
aS'office'
p5117
asI732
(lp5118
S'What'
p5119
aS'is'
p5120
aS'the'
p5121
aS'hallway'
p5122
aS'north'
p5123
aS'of'
p5124
asI733
(lp5125
S'What'
p5126
aS'is'
p5127
aS'the'
p5128
aS'bathroom'
p5129
aS'east'
p5130
aS'of'
p5131
asI734
(lp5132
S'What'
p5133
aS'is'
p5134
aS'the'
p5135
aS'garden'
p5136
aS'east'
p5137
aS'of'
p5138
asI735
(lp5139
S'What'
p5140
aS'is'
p5141
aS'the'
p5142
aS'kitchen'
p5143
aS'north'
p5144
aS'of'
p5145
asI736
(lp5146
S'What'
p5147
aS'is'
p5148
aS'south'
p5149
aS'of'
p5150
aS'the'
p5151
aS'kitchen'
p5152
asI737
(lp5153
S'What'
p5154
aS'is'
p5155
aS'north'
p5156
aS'of'
p5157
aS'the'
p5158
aS'bedroom'
p5159
asI738
(lp5160
S'What'
p5161
aS'is'
p5162
aS'the'
p5163
aS'bathroom'
p5164
aS'west'
p5165
aS'of'
p5166
asI739
(lp5167
S'What'
p5168
aS'is'
p5169
aS'the'
p5170
aS'hallway'
p5171
aS'south'
p5172
aS'of'
p5173
asI740
(lp5174
S'What'
p5175
aS'is'
p5176
aS'the'
p5177
aS'bedroom'
p5178
aS'west'
p5179
aS'of'
p5180
asI741
(lp5181
S'What'
p5182
aS'is'
p5183
aS'the'
p5184
aS'bathroom'
p5185
aS'south'
p5186
aS'of'
p5187
asI742
(lp5188
S'What'
p5189
aS'is'
p5190
aS'the'
p5191
aS'bathroom'
p5192
aS'west'
p5193
aS'of'
p5194
asI743
(lp5195
S'What'
p5196
aS'is'
p5197
aS'west'
p5198
aS'of'
p5199
aS'the'
p5200
aS'hallway'
p5201
asI744
(lp5202
S'What'
p5203
aS'is'
p5204
aS'the'
p5205
aS'garden'
p5206
aS'east'
p5207
aS'of'
p5208
asI745
(lp5209
S'What'
p5210
aS'is'
p5211
aS'south'
p5212
aS'of'
p5213
aS'the'
p5214
aS'bathroom'
p5215
asI746
(lp5216
S'What'
p5217
aS'is'
p5218
aS'the'
p5219
aS'kitchen'
p5220
aS'east'
p5221
aS'of'
p5222
asI747
(lp5223
S'What'
p5224
aS'is'
p5225
aS'the'
p5226
aS'office'
p5227
aS'south'
p5228
aS'of'
p5229
asI748
(lp5230
S'What'
p5231
aS'is'
p5232
aS'the'
p5233
aS'bedroom'
p5234
aS'north'
p5235
aS'of'
p5236
asI749
(lp5237
S'What'
p5238
aS'is'
p5239
aS'east'
p5240
aS'of'
p5241
aS'the'
p5242
aS'office'
p5243
asI750
(lp5244
S'What'
p5245
aS'is'
p5246
aS'the'
p5247
aS'bathroom'
p5248
aS'west'
p5249
aS'of'
p5250
asI751
(lp5251
S'What'
p5252
aS'is'
p5253
aS'the'
p5254
aS'office'
p5255
aS'north'
p5256
aS'of'
p5257
asI752
(lp5258
S'What'
p5259
aS'is'
p5260
aS'west'
p5261
aS'of'
p5262
aS'the'
p5263
aS'bedroom'
p5264
asI753
(lp5265
S'What'
p5266
aS'is'
p5267
aS'west'
p5268
aS'of'
p5269
aS'the'
p5270
aS'bedroom'
p5271
asI754
(lp5272
S'What'
p5273
aS'is'
p5274
aS'west'
p5275
aS'of'
p5276
aS'the'
p5277
aS'bathroom'
p5278
asI755
(lp5279
S'What'
p5280
aS'is'
p5281
aS'the'
p5282
aS'garden'
p5283
aS'north'
p5284
aS'of'
p5285
asI756
(lp5286
S'What'
p5287
aS'is'
p5288
aS'west'
p5289
aS'of'
p5290
aS'the'
p5291
aS'garden'
p5292
asI757
(lp5293
S'What'
p5294
aS'is'
p5295
aS'north'
p5296
aS'of'
p5297
aS'the'
p5298
aS'hallway'
p5299
asI758
(lp5300
S'What'
p5301
aS'is'
p5302
aS'west'
p5303
aS'of'
p5304
aS'the'
p5305
aS'office'
p5306
asI759
(lp5307
S'What'
p5308
aS'is'
p5309
aS'north'
p5310
aS'of'
p5311
aS'the'
p5312
aS'office'
p5313
asI760
(lp5314
S'What'
p5315
aS'is'
p5316
aS'the'
p5317
aS'hallway'
p5318
aS'west'
p5319
aS'of'
p5320
asI761
(lp5321
S'What'
p5322
aS'is'
p5323
aS'south'
p5324
aS'of'
p5325
aS'the'
p5326
aS'bedroom'
p5327
asI762
(lp5328
S'What'
p5329
aS'is'
p5330
aS'south'
p5331
aS'of'
p5332
aS'the'
p5333
aS'kitchen'
p5334
asI763
(lp5335
S'What'
p5336
aS'is'
p5337
aS'east'
p5338
aS'of'
p5339
aS'the'
p5340
aS'hallway'
p5341
asI764
(lp5342
S'What'
p5343
aS'is'
p5344
aS'the'
p5345
aS'hallway'
p5346
aS'north'
p5347
aS'of'
p5348
asI765
(lp5349
S'What'
p5350
aS'is'
p5351
aS'the'
p5352
aS'bathroom'
p5353
aS'north'
p5354
aS'of'
p5355
asI766
(lp5356
S'What'
p5357
aS'is'
p5358
aS'east'
p5359
aS'of'
p5360
aS'the'
p5361
aS'bedroom'
p5362
asI767
(lp5363
S'What'
p5364
aS'is'
p5365
aS'north'
p5366
aS'of'
p5367
aS'the'
p5368
aS'bedroom'
p5369
asI768
(lp5370
S'What'
p5371
aS'is'
p5372
aS'the'
p5373
aS'bedroom'
p5374
aS'south'
p5375
aS'of'
p5376
asI769
(lp5377
S'What'
p5378
aS'is'
p5379
aS'the'
p5380
aS'kitchen'
p5381
aS'west'
p5382
aS'of'
p5383
asI770
(lp5384
S'What'
p5385
aS'is'
p5386
aS'the'
p5387
aS'bedroom'
p5388
aS'west'
p5389
aS'of'
p5390
asI771
(lp5391
S'What'
p5392
aS'is'
p5393
aS'east'
p5394
aS'of'
p5395
aS'the'
p5396
aS'bedroom'
p5397
asI772
(lp5398
S'What'
p5399
aS'is'
p5400
aS'the'
p5401
aS'bathroom'
p5402
aS'east'
p5403
aS'of'
p5404
asI773
(lp5405
S'What'
p5406
aS'is'
p5407
aS'north'
p5408
aS'of'
p5409
aS'the'
p5410
aS'office'
p5411
asI774
(lp5412
S'What'
p5413
aS'is'
p5414
aS'south'
p5415
aS'of'
p5416
aS'the'
p5417
aS'hallway'
p5418
asI775
(lp5419
S'What'
p5420
aS'is'
p5421
aS'west'
p5422
aS'of'
p5423
aS'the'
p5424
aS'office'
p5425
asI776
(lp5426
S'What'
p5427
aS'is'
p5428
aS'the'
p5429
aS'hallway'
p5430
aS'north'
p5431
aS'of'
p5432
asI777
(lp5433
S'What'
p5434
aS'is'
p5435
aS'the'
p5436
aS'bathroom'
p5437
aS'west'
p5438
aS'of'
p5439
asI778
(lp5440
S'What'
p5441
aS'is'
p5442
aS'the'
p5443
aS'hallway'
p5444
aS'south'
p5445
aS'of'
p5446
asI779
(lp5447
S'What'
p5448
aS'is'
p5449
aS'the'
p5450
aS'hallway'
p5451
aS'north'
p5452
aS'of'
p5453
asI780
(lp5454
S'What'
p5455
aS'is'
p5456
aS'south'
p5457
aS'of'
p5458
aS'the'
p5459
aS'office'
p5460
asI781
(lp5461
S'What'
p5462
aS'is'
p5463
aS'the'
p5464
aS'bedroom'
p5465
aS'south'
p5466
aS'of'
p5467
asI782
(lp5468
S'What'
p5469
aS'is'
p5470
aS'the'
p5471
aS'garden'
p5472
aS'south'
p5473
aS'of'
p5474
asI783
(lp5475
S'What'
p5476
aS'is'
p5477
aS'the'
p5478
aS'garden'
p5479
aS'east'
p5480
aS'of'
p5481
asI784
(lp5482
S'What'
p5483
aS'is'
p5484
aS'the'
p5485
aS'garden'
p5486
aS'east'
p5487
aS'of'
p5488
asI785
(lp5489
S'What'
p5490
aS'is'
p5491
aS'west'
p5492
aS'of'
p5493
aS'the'
p5494
aS'office'
p5495
asI786
(lp5496
S'What'
p5497
aS'is'
p5498
aS'south'
p5499
aS'of'
p5500
aS'the'
p5501
aS'hallway'
p5502
asI787
(lp5503
S'What'
p5504
aS'is'
p5505
aS'west'
p5506
aS'of'
p5507
aS'the'
p5508
aS'hallway'
p5509
asI788
(lp5510
S'What'
p5511
aS'is'
p5512
aS'the'
p5513
aS'office'
p5514
aS'north'
p5515
aS'of'
p5516
asI789
(lp5517
S'What'
p5518
aS'is'
p5519
aS'the'
p5520
aS'garden'
p5521
aS'east'
p5522
aS'of'
p5523
asI790
(lp5524
S'What'
p5525
aS'is'
p5526
aS'east'
p5527
aS'of'
p5528
aS'the'
p5529
aS'garden'
p5530
asI791
(lp5531
S'What'
p5532
aS'is'
p5533
aS'the'
p5534
aS'hallway'
p5535
aS'south'
p5536
aS'of'
p5537
asI792
(lp5538
S'What'
p5539
aS'is'
p5540
aS'the'
p5541
aS'bathroom'
p5542
aS'west'
p5543
aS'of'
p5544
asI793
(lp5545
S'What'
p5546
aS'is'
p5547
aS'the'
p5548
aS'bathroom'
p5549
aS'south'
p5550
aS'of'
p5551
asI794
(lp5552
S'What'
p5553
aS'is'
p5554
aS'west'
p5555
aS'of'
p5556
aS'the'
p5557
aS'bathroom'
p5558
asI795
(lp5559
S'What'
p5560
aS'is'
p5561
aS'the'
p5562
aS'kitchen'
p5563
aS'east'
p5564
aS'of'
p5565
asI796
(lp5566
S'What'
p5567
aS'is'
p5568
aS'north'
p5569
aS'of'
p5570
aS'the'
p5571
aS'hallway'
p5572
asI797
(lp5573
S'What'
p5574
aS'is'
p5575
aS'north'
p5576
aS'of'
p5577
aS'the'
p5578
aS'garden'
p5579
asI798
(lp5580
S'What'
p5581
aS'is'
p5582
aS'south'
p5583
aS'of'
p5584
aS'the'
p5585
aS'kitchen'
p5586
asI799
(lp5587
S'What'
p5588
aS'is'
p5589
aS'the'
p5590
aS'bedroom'
p5591
aS'west'
p5592
aS'of'
p5593
asI800
(lp5594
S'What'
p5595
aS'is'
p5596
aS'the'
p5597
aS'hallway'
p5598
aS'south'
p5599
aS'of'
p5600
asI801
(lp5601
S'What'
p5602
aS'is'
p5603
aS'the'
p5604
aS'hallway'
p5605
aS'south'
p5606
aS'of'
p5607
asI802
(lp5608
S'What'
p5609
aS'is'
p5610
aS'the'
p5611
aS'kitchen'
p5612
aS'east'
p5613
aS'of'
p5614
asI803
(lp5615
S'What'
p5616
aS'is'
p5617
aS'the'
p5618
aS'hallway'
p5619
aS'west'
p5620
aS'of'
p5621
asI804
(lp5622
S'What'
p5623
aS'is'
p5624
aS'the'
p5625
aS'bedroom'
p5626
aS'east'
p5627
aS'of'
p5628
asI805
(lp5629
S'What'
p5630
aS'is'
p5631
aS'the'
p5632
aS'bedroom'
p5633
aS'north'
p5634
aS'of'
p5635
asI806
(lp5636
S'What'
p5637
aS'is'
p5638
aS'the'
p5639
aS'kitchen'
p5640
aS'south'
p5641
aS'of'
p5642
asI807
(lp5643
S'What'
p5644
aS'is'
p5645
aS'north'
p5646
aS'of'
p5647
aS'the'
p5648
aS'hallway'
p5649
asI808
(lp5650
S'What'
p5651
aS'is'
p5652
aS'the'
p5653
aS'bedroom'
p5654
aS'north'
p5655
aS'of'
p5656
asI809
(lp5657
S'What'
p5658
aS'is'
p5659
aS'the'
p5660
aS'garden'
p5661
aS'north'
p5662
aS'of'
p5663
asI810
(lp5664
S'What'
p5665
aS'is'
p5666
aS'east'
p5667
aS'of'
p5668
aS'the'
p5669
aS'office'
p5670
asI811
(lp5671
S'What'
p5672
aS'is'
p5673
aS'the'
p5674
aS'garden'
p5675
aS'west'
p5676
aS'of'
p5677
asI812
(lp5678
S'What'
p5679
aS'is'
p5680
aS'the'
p5681
aS'bathroom'
p5682
aS'east'
p5683
aS'of'
p5684
asI813
(lp5685
S'What'
p5686
aS'is'
p5687
aS'west'
p5688
aS'of'
p5689
aS'the'
p5690
aS'kitchen'
p5691
asI814
(lp5692
S'What'
p5693
aS'is'
p5694
aS'north'
p5695
aS'of'
p5696
aS'the'
p5697
aS'bathroom'
p5698
asI815
(lp5699
S'What'
p5700
aS'is'
p5701
aS'west'
p5702
aS'of'
p5703
aS'the'
p5704
aS'office'
p5705
asI816
(lp5706
S'What'
p5707
aS'is'
p5708
aS'south'
p5709
aS'of'
p5710
aS'the'
p5711
aS'hallway'
p5712
asI817
(lp5713
S'What'
p5714
aS'is'
p5715
aS'the'
p5716
aS'hallway'
p5717
aS'west'
p5718
aS'of'
p5719
asI818
(lp5720
S'What'
p5721
aS'is'
p5722
aS'the'
p5723
aS'garden'
p5724
aS'east'
p5725
aS'of'
p5726
asI819
(lp5727
S'What'
p5728
aS'is'
p5729
aS'the'
p5730
aS'bedroom'
p5731
aS'north'
p5732
aS'of'
p5733
asI820
(lp5734
S'What'
p5735
aS'is'
p5736
aS'south'
p5737
aS'of'
p5738
aS'the'
p5739
aS'garden'
p5740
asI821
(lp5741
S'What'
p5742
aS'is'
p5743
aS'the'
p5744
aS'bedroom'
p5745
aS'north'
p5746
aS'of'
p5747
asI822
(lp5748
S'What'
p5749
aS'is'
p5750
aS'west'
p5751
aS'of'
p5752
aS'the'
p5753
aS'kitchen'
p5754
asI823
(lp5755
S'What'
p5756
aS'is'
p5757
aS'south'
p5758
aS'of'
p5759
aS'the'
p5760
aS'kitchen'
p5761
asI824
(lp5762
S'What'
p5763
aS'is'
p5764
aS'the'
p5765
aS'garden'
p5766
aS'east'
p5767
aS'of'
p5768
asI825
(lp5769
S'What'
p5770
aS'is'
p5771
aS'the'
p5772
aS'garden'
p5773
aS'north'
p5774
aS'of'
p5775
asI826
(lp5776
S'What'
p5777
aS'is'
p5778
aS'the'
p5779
aS'bathroom'
p5780
aS'south'
p5781
aS'of'
p5782
asI827
(lp5783
S'What'
p5784
aS'is'
p5785
aS'north'
p5786
aS'of'
p5787
aS'the'
p5788
aS'hallway'
p5789
asI828
(lp5790
S'What'
p5791
aS'is'
p5792
aS'the'
p5793
aS'kitchen'
p5794
aS'west'
p5795
aS'of'
p5796
asI829
(lp5797
S'What'
p5798
aS'is'
p5799
aS'the'
p5800
aS'bathroom'
p5801
aS'south'
p5802
aS'of'
p5803
asI830
(lp5804
S'What'
p5805
aS'is'
p5806
aS'the'
p5807
aS'kitchen'
p5808
aS'west'
p5809
aS'of'
p5810
asI831
(lp5811
S'What'
p5812
aS'is'
p5813
aS'east'
p5814
aS'of'
p5815
aS'the'
p5816
aS'kitchen'
p5817
asI832
(lp5818
S'What'
p5819
aS'is'
p5820
aS'the'
p5821
aS'hallway'
p5822
aS'west'
p5823
aS'of'
p5824
asI833
(lp5825
S'What'
p5826
aS'is'
p5827
aS'the'
p5828
aS'bathroom'
p5829
aS'south'
p5830
aS'of'
p5831
asI834
(lp5832
S'What'
p5833
aS'is'
p5834
aS'the'
p5835
aS'office'
p5836
aS'south'
p5837
aS'of'
p5838
asI835
(lp5839
S'What'
p5840
aS'is'
p5841
aS'the'
p5842
aS'bedroom'
p5843
aS'west'
p5844
aS'of'
p5845
asI836
(lp5846
S'What'
p5847
aS'is'
p5848
aS'the'
p5849
aS'kitchen'
p5850
aS'west'
p5851
aS'of'
p5852
asI837
(lp5853
S'What'
p5854
aS'is'
p5855
aS'the'
p5856
aS'garden'
p5857
aS'east'
p5858
aS'of'
p5859
asI838
(lp5860
S'What'
p5861
aS'is'
p5862
aS'north'
p5863
aS'of'
p5864
aS'the'
p5865
aS'bathroom'
p5866
asI839
(lp5867
S'What'
p5868
aS'is'
p5869
aS'the'
p5870
aS'bathroom'
p5871
aS'north'
p5872
aS'of'
p5873
asI840
(lp5874
S'What'
p5875
aS'is'
p5876
aS'east'
p5877
aS'of'
p5878
aS'the'
p5879
aS'garden'
p5880
asI841
(lp5881
S'What'
p5882
aS'is'
p5883
aS'north'
p5884
aS'of'
p5885
aS'the'
p5886
aS'hallway'
p5887
asI842
(lp5888
S'What'
p5889
aS'is'
p5890
aS'north'
p5891
aS'of'
p5892
aS'the'
p5893
aS'office'
p5894
asI843
(lp5895
S'What'
p5896
aS'is'
p5897
aS'the'
p5898
aS'kitchen'
p5899
aS'north'
p5900
aS'of'
p5901
asI844
(lp5902
S'What'
p5903
aS'is'
p5904
aS'east'
p5905
aS'of'
p5906
aS'the'
p5907
aS'garden'
p5908
asI845
(lp5909
S'What'
p5910
aS'is'
p5911
aS'east'
p5912
aS'of'
p5913
aS'the'
p5914
aS'garden'
p5915
asI846
(lp5916
S'What'
p5917
aS'is'
p5918
aS'south'
p5919
aS'of'
p5920
aS'the'
p5921
aS'kitchen'
p5922
asI847
(lp5923
S'What'
p5924
aS'is'
p5925
aS'south'
p5926
aS'of'
p5927
aS'the'
p5928
aS'bathroom'
p5929
asI848
(lp5930
S'What'
p5931
aS'is'
p5932
aS'north'
p5933
aS'of'
p5934
aS'the'
p5935
aS'bathroom'
p5936
asI849
(lp5937
S'What'
p5938
aS'is'
p5939
aS'the'
p5940
aS'bedroom'
p5941
aS'south'
p5942
aS'of'
p5943
asI850
(lp5944
S'What'
p5945
aS'is'
p5946
aS'the'
p5947
aS'office'
p5948
aS'north'
p5949
aS'of'
p5950
asI851
(lp5951
S'What'
p5952
aS'is'
p5953
aS'the'
p5954
aS'kitchen'
p5955
aS'east'
p5956
aS'of'
p5957
asI852
(lp5958
S'What'
p5959
aS'is'
p5960
aS'west'
p5961
aS'of'
p5962
aS'the'
p5963
aS'hallway'
p5964
asI853
(lp5965
S'What'
p5966
aS'is'
p5967
aS'the'
p5968
aS'bedroom'
p5969
aS'south'
p5970
aS'of'
p5971
asI854
(lp5972
S'What'
p5973
aS'is'
p5974
aS'the'
p5975
aS'hallway'
p5976
aS'north'
p5977
aS'of'
p5978
asI855
(lp5979
S'What'
p5980
aS'is'
p5981
aS'the'
p5982
aS'office'
p5983
aS'west'
p5984
aS'of'
p5985
asI856
(lp5986
S'What'
p5987
aS'is'
p5988
aS'west'
p5989
aS'of'
p5990
aS'the'
p5991
aS'kitchen'
p5992
asI857
(lp5993
S'What'
p5994
aS'is'
p5995
aS'the'
p5996
aS'kitchen'
p5997
aS'west'
p5998
aS'of'
p5999
asI858
(lp6000
S'What'
p6001
aS'is'
p6002
aS'west'
p6003
aS'of'
p6004
aS'the'
p6005
aS'garden'
p6006
asI859
(lp6007
S'What'
p6008
aS'is'
p6009
aS'the'
p6010
aS'bathroom'
p6011
aS'west'
p6012
aS'of'
p6013
asI860
(lp6014
S'What'
p6015
aS'is'
p6016
aS'the'
p6017
aS'bedroom'
p6018
aS'west'
p6019
aS'of'
p6020
asI861
(lp6021
S'What'
p6022
aS'is'
p6023
aS'south'
p6024
aS'of'
p6025
aS'the'
p6026
aS'kitchen'
p6027
asI862
(lp6028
S'What'
p6029
aS'is'
p6030
aS'south'
p6031
aS'of'
p6032
aS'the'
p6033
aS'garden'
p6034
asI863
(lp6035
S'What'
p6036
aS'is'
p6037
aS'north'
p6038
aS'of'
p6039
aS'the'
p6040
aS'bedroom'
p6041
asI864
(lp6042
S'What'
p6043
aS'is'
p6044
aS'west'
p6045
aS'of'
p6046
aS'the'
p6047
aS'kitchen'
p6048
asI865
(lp6049
S'What'
p6050
aS'is'
p6051
aS'the'
p6052
aS'kitchen'
p6053
aS'north'
p6054
aS'of'
p6055
asI866
(lp6056
S'What'
p6057
aS'is'
p6058
aS'west'
p6059
aS'of'
p6060
aS'the'
p6061
aS'bathroom'
p6062
asI867
(lp6063
S'What'
p6064
aS'is'
p6065
aS'the'
p6066
aS'kitchen'
p6067
aS'west'
p6068
aS'of'
p6069
asI868
(lp6070
S'What'
p6071
aS'is'
p6072
aS'east'
p6073
aS'of'
p6074
aS'the'
p6075
aS'hallway'
p6076
asI869
(lp6077
S'What'
p6078
aS'is'
p6079
aS'north'
p6080
aS'of'
p6081
aS'the'
p6082
aS'bathroom'
p6083
asI870
(lp6084
S'What'
p6085
aS'is'
p6086
aS'south'
p6087
aS'of'
p6088
aS'the'
p6089
aS'garden'
p6090
asI871
(lp6091
S'What'
p6092
aS'is'
p6093
aS'north'
p6094
aS'of'
p6095
aS'the'
p6096
aS'office'
p6097
asI872
(lp6098
S'What'
p6099
aS'is'
p6100
aS'east'
p6101
aS'of'
p6102
aS'the'
p6103
aS'garden'
p6104
asI873
(lp6105
S'What'
p6106
aS'is'
p6107
aS'the'
p6108
aS'office'
p6109
aS'west'
p6110
aS'of'
p6111
asI874
(lp6112
S'What'
p6113
aS'is'
p6114
aS'east'
p6115
aS'of'
p6116
aS'the'
p6117
aS'kitchen'
p6118
asI875
(lp6119
S'What'
p6120
aS'is'
p6121
aS'the'
p6122
aS'garden'
p6123
aS'east'
p6124
aS'of'
p6125
asI876
(lp6126
S'What'
p6127
aS'is'
p6128
aS'the'
p6129
aS'office'
p6130
aS'north'
p6131
aS'of'
p6132
asI877
(lp6133
S'What'
p6134
aS'is'
p6135
aS'the'
p6136
aS'hallway'
p6137
aS'west'
p6138
aS'of'
p6139
asI878
(lp6140
S'What'
p6141
aS'is'
p6142
aS'south'
p6143
aS'of'
p6144
aS'the'
p6145
aS'bathroom'
p6146
asI879
(lp6147
S'What'
p6148
aS'is'
p6149
aS'the'
p6150
aS'garden'
p6151
aS'south'
p6152
aS'of'
p6153
asI880
(lp6154
S'What'
p6155
aS'is'
p6156
aS'the'
p6157
aS'kitchen'
p6158
aS'south'
p6159
aS'of'
p6160
asI881
(lp6161
S'What'
p6162
aS'is'
p6163
aS'west'
p6164
aS'of'
p6165
aS'the'
p6166
aS'hallway'
p6167
asI882
(lp6168
S'What'
p6169
aS'is'
p6170
aS'west'
p6171
aS'of'
p6172
aS'the'
p6173
aS'kitchen'
p6174
asI883
(lp6175
S'What'
p6176
aS'is'
p6177
aS'the'
p6178
aS'bedroom'
p6179
aS'west'
p6180
aS'of'
p6181
asI884
(lp6182
S'What'
p6183
aS'is'
p6184
aS'the'
p6185
aS'office'
p6186
aS'north'
p6187
aS'of'
p6188
asI885
(lp6189
S'What'
p6190
aS'is'
p6191
aS'west'
p6192
aS'of'
p6193
aS'the'
p6194
aS'bedroom'
p6195
asI886
(lp6196
S'What'
p6197
aS'is'
p6198
aS'north'
p6199
aS'of'
p6200
aS'the'
p6201
aS'hallway'
p6202
asI887
(lp6203
S'What'
p6204
aS'is'
p6205
aS'the'
p6206
aS'hallway'
p6207
aS'north'
p6208
aS'of'
p6209
asI888
(lp6210
S'What'
p6211
aS'is'
p6212
aS'east'
p6213
aS'of'
p6214
aS'the'
p6215
aS'garden'
p6216
asI889
(lp6217
S'What'
p6218
aS'is'
p6219
aS'the'
p6220
aS'hallway'
p6221
aS'north'
p6222
aS'of'
p6223
asI890
(lp6224
S'What'
p6225
aS'is'
p6226
aS'east'
p6227
aS'of'
p6228
aS'the'
p6229
aS'office'
p6230
asI891
(lp6231
S'What'
p6232
aS'is'
p6233
aS'the'
p6234
aS'garden'
p6235
aS'south'
p6236
aS'of'
p6237
asI892
(lp6238
S'What'
p6239
aS'is'
p6240
aS'west'
p6241
aS'of'
p6242
aS'the'
p6243
aS'kitchen'
p6244
asI893
(lp6245
S'What'
p6246
aS'is'
p6247
aS'the'
p6248
aS'kitchen'
p6249
aS'south'
p6250
aS'of'
p6251
asI894
(lp6252
S'What'
p6253
aS'is'
p6254
aS'the'
p6255
aS'office'
p6256
aS'north'
p6257
aS'of'
p6258
asI895
(lp6259
S'What'
p6260
aS'is'
p6261
aS'south'
p6262
aS'of'
p6263
aS'the'
p6264
aS'hallway'
p6265
asI896
(lp6266
S'What'
p6267
aS'is'
p6268
aS'north'
p6269
aS'of'
p6270
aS'the'
p6271
aS'kitchen'
p6272
asI897
(lp6273
S'What'
p6274
aS'is'
p6275
aS'the'
p6276
aS'office'
p6277
aS'south'
p6278
aS'of'
p6279
asI898
(lp6280
S'What'
p6281
aS'is'
p6282
aS'the'
p6283
aS'bedroom'
p6284
aS'west'
p6285
aS'of'
p6286
asI899
(lp6287
S'What'
p6288
aS'is'
p6289
aS'the'
p6290
aS'bathroom'
p6291
aS'south'
p6292
aS'of'
p6293
asI900
(lp6294
S'What'
p6295
aS'is'
p6296
aS'south'
p6297
aS'of'
p6298
aS'the'
p6299
aS'bathroom'
p6300
asI901
(lp6301
S'What'
p6302
aS'is'
p6303
aS'the'
p6304
aS'bedroom'
p6305
aS'north'
p6306
aS'of'
p6307
asI902
(lp6308
S'What'
p6309
aS'is'
p6310
aS'north'
p6311
aS'of'
p6312
aS'the'
p6313
aS'kitchen'
p6314
asI903
(lp6315
S'What'
p6316
aS'is'
p6317
aS'the'
p6318
aS'hallway'
p6319
aS'north'
p6320
aS'of'
p6321
asI904
(lp6322
S'What'
p6323
aS'is'
p6324
aS'the'
p6325
aS'bedroom'
p6326
aS'south'
p6327
aS'of'
p6328
asI905
(lp6329
S'What'
p6330
aS'is'
p6331
aS'the'
p6332
aS'kitchen'
p6333
aS'west'
p6334
aS'of'
p6335
asI906
(lp6336
S'What'
p6337
aS'is'
p6338
aS'south'
p6339
aS'of'
p6340
aS'the'
p6341
aS'bedroom'
p6342
asI907
(lp6343
S'What'
p6344
aS'is'
p6345
aS'east'
p6346
aS'of'
p6347
aS'the'
p6348
aS'office'
p6349
asI908
(lp6350
S'What'
p6351
aS'is'
p6352
aS'the'
p6353
aS'bedroom'
p6354
aS'east'
p6355
aS'of'
p6356
asI909
(lp6357
S'What'
p6358
aS'is'
p6359
aS'south'
p6360
aS'of'
p6361
aS'the'
p6362
aS'bathroom'
p6363
asI910
(lp6364
S'What'
p6365
aS'is'
p6366
aS'the'
p6367
aS'bedroom'
p6368
aS'south'
p6369
aS'of'
p6370
asI911
(lp6371
S'What'
p6372
aS'is'
p6373
aS'the'
p6374
aS'kitchen'
p6375
aS'west'
p6376
aS'of'
p6377
asI912
(lp6378
S'What'
p6379
aS'is'
p6380
aS'west'
p6381
aS'of'
p6382
aS'the'
p6383
aS'kitchen'
p6384
asI913
(lp6385
S'What'
p6386
aS'is'
p6387
aS'north'
p6388
aS'of'
p6389
aS'the'
p6390
aS'bathroom'
p6391
asI914
(lp6392
S'What'
p6393
aS'is'
p6394
aS'west'
p6395
aS'of'
p6396
aS'the'
p6397
aS'kitchen'
p6398
asI915
(lp6399
S'What'
p6400
aS'is'
p6401
aS'the'
p6402
aS'office'
p6403
aS'east'
p6404
aS'of'
p6405
asI916
(lp6406
S'What'
p6407
aS'is'
p6408
aS'the'
p6409
aS'office'
p6410
aS'north'
p6411
aS'of'
p6412
asI917
(lp6413
S'What'
p6414
aS'is'
p6415
aS'south'
p6416
aS'of'
p6417
aS'the'
p6418
aS'garden'
p6419
asI918
(lp6420
S'What'
p6421
aS'is'
p6422
aS'south'
p6423
aS'of'
p6424
aS'the'
p6425
aS'garden'
p6426
asI919
(lp6427
S'What'
p6428
aS'is'
p6429
aS'north'
p6430
aS'of'
p6431
aS'the'
p6432
aS'kitchen'
p6433
asI920
(lp6434
S'What'
p6435
aS'is'
p6436
aS'the'
p6437
aS'office'
p6438
aS'west'
p6439
aS'of'
p6440
asI921
(lp6441
S'What'
p6442
aS'is'
p6443
aS'the'
p6444
aS'garden'
p6445
aS'south'
p6446
aS'of'
p6447
asI922
(lp6448
S'What'
p6449
aS'is'
p6450
aS'north'
p6451
aS'of'
p6452
aS'the'
p6453
aS'office'
p6454
asI923
(lp6455
S'What'
p6456
aS'is'
p6457
aS'east'
p6458
aS'of'
p6459
aS'the'
p6460
aS'garden'
p6461
asI924
(lp6462
S'What'
p6463
aS'is'
p6464
aS'the'
p6465
aS'bedroom'
p6466
aS'east'
p6467
aS'of'
p6468
asI925
(lp6469
S'What'
p6470
aS'is'
p6471
aS'the'
p6472
aS'garden'
p6473
aS'west'
p6474
aS'of'
p6475
asI926
(lp6476
S'What'
p6477
aS'is'
p6478
aS'the'
p6479
aS'bathroom'
p6480
aS'west'
p6481
aS'of'
p6482
asI927
(lp6483
S'What'
p6484
aS'is'
p6485
aS'west'
p6486
aS'of'
p6487
aS'the'
p6488
aS'hallway'
p6489
asI928
(lp6490
S'What'
p6491
aS'is'
p6492
aS'east'
p6493
aS'of'
p6494
aS'the'
p6495
aS'office'
p6496
asI929
(lp6497
S'What'
p6498
aS'is'
p6499
aS'south'
p6500
aS'of'
p6501
aS'the'
p6502
aS'kitchen'
p6503
asI930
(lp6504
S'What'
p6505
aS'is'
p6506
aS'the'
p6507
aS'garden'
p6508
aS'south'
p6509
aS'of'
p6510
asI931
(lp6511
S'What'
p6512
aS'is'
p6513
aS'north'
p6514
aS'of'
p6515
aS'the'
p6516
aS'bedroom'
p6517
asI932
(lp6518
S'What'
p6519
aS'is'
p6520
aS'east'
p6521
aS'of'
p6522
aS'the'
p6523
aS'office'
p6524
asI933
(lp6525
S'What'
p6526
aS'is'
p6527
aS'the'
p6528
aS'kitchen'
p6529
aS'south'
p6530
aS'of'
p6531
asI934
(lp6532
S'What'
p6533
aS'is'
p6534
aS'south'
p6535
aS'of'
p6536
aS'the'
p6537
aS'bedroom'
p6538
asI935
(lp6539
S'What'
p6540
aS'is'
p6541
aS'west'
p6542
aS'of'
p6543
aS'the'
p6544
aS'office'
p6545
asI936
(lp6546
S'What'
p6547
aS'is'
p6548
aS'the'
p6549
aS'hallway'
p6550
aS'east'
p6551
aS'of'
p6552
asI937
(lp6553
S'What'
p6554
aS'is'
p6555
aS'east'
p6556
aS'of'
p6557
aS'the'
p6558
aS'bedroom'
p6559
asI938
(lp6560
S'What'
p6561
aS'is'
p6562
aS'west'
p6563
aS'of'
p6564
aS'the'
p6565
aS'garden'
p6566
asI939
(lp6567
S'What'
p6568
aS'is'
p6569
aS'west'
p6570
aS'of'
p6571
aS'the'
p6572
aS'bedroom'
p6573
asI940
(lp6574
S'What'
p6575
aS'is'
p6576
aS'the'
p6577
aS'kitchen'
p6578
aS'west'
p6579
aS'of'
p6580
asI941
(lp6581
S'What'
p6582
aS'is'
p6583
aS'the'
p6584
aS'bedroom'
p6585
aS'north'
p6586
aS'of'
p6587
asI942
(lp6588
S'What'
p6589
aS'is'
p6590
aS'the'
p6591
aS'office'
p6592
aS'north'
p6593
aS'of'
p6594
asI943
(lp6595
S'What'
p6596
aS'is'
p6597
aS'north'
p6598
aS'of'
p6599
aS'the'
p6600
aS'bathroom'
p6601
asI944
(lp6602
S'What'
p6603
aS'is'
p6604
aS'the'
p6605
aS'office'
p6606
aS'north'
p6607
aS'of'
p6608
asI945
(lp6609
S'What'
p6610
aS'is'
p6611
aS'the'
p6612
aS'office'
p6613
aS'north'
p6614
aS'of'
p6615
asI946
(lp6616
S'What'
p6617
aS'is'
p6618
aS'north'
p6619
aS'of'
p6620
aS'the'
p6621
aS'bathroom'
p6622
asI947
(lp6623
S'What'
p6624
aS'is'
p6625
aS'the'
p6626
aS'kitchen'
p6627
aS'west'
p6628
aS'of'
p6629
asI948
(lp6630
S'What'
p6631
aS'is'
p6632
aS'the'
p6633
aS'kitchen'
p6634
aS'south'
p6635
aS'of'
p6636
asI949
(lp6637
S'What'
p6638
aS'is'
p6639
aS'the'
p6640
aS'bedroom'
p6641
aS'north'
p6642
aS'of'
p6643
asI950
(lp6644
S'What'
p6645
aS'is'
p6646
aS'west'
p6647
aS'of'
p6648
aS'the'
p6649
aS'office'
p6650
asI951
(lp6651
S'What'
p6652
aS'is'
p6653
aS'the'
p6654
aS'kitchen'
p6655
aS'south'
p6656
aS'of'
p6657
asI952
(lp6658
S'What'
p6659
aS'is'
p6660
aS'west'
p6661
aS'of'
p6662
aS'the'
p6663
aS'bedroom'
p6664
asI953
(lp6665
S'What'
p6666
aS'is'
p6667
aS'south'
p6668
aS'of'
p6669
aS'the'
p6670
aS'hallway'
p6671
asI954
(lp6672
S'What'
p6673
aS'is'
p6674
aS'east'
p6675
aS'of'
p6676
aS'the'
p6677
aS'kitchen'
p6678
asI955
(lp6679
S'What'
p6680
aS'is'
p6681
aS'south'
p6682
aS'of'
p6683
aS'the'
p6684
aS'kitchen'
p6685
asI956
(lp6686
S'What'
p6687
aS'is'
p6688
aS'the'
p6689
aS'bedroom'
p6690
aS'west'
p6691
aS'of'
p6692
asI957
(lp6693
S'What'
p6694
aS'is'
p6695
aS'the'
p6696
aS'hallway'
p6697
aS'west'
p6698
aS'of'
p6699
asI958
(lp6700
S'What'
p6701
aS'is'
p6702
aS'east'
p6703
aS'of'
p6704
aS'the'
p6705
aS'hallway'
p6706
asI959
(lp6707
S'What'
p6708
aS'is'
p6709
aS'the'
p6710
aS'kitchen'
p6711
aS'east'
p6712
aS'of'
p6713
asI960
(lp6714
S'What'
p6715
aS'is'
p6716
aS'the'
p6717
aS'bedroom'
p6718
aS'south'
p6719
aS'of'
p6720
asI961
(lp6721
S'What'
p6722
aS'is'
p6723
aS'east'
p6724
aS'of'
p6725
aS'the'
p6726
aS'garden'
p6727
asI962
(lp6728
S'What'
p6729
aS'is'
p6730
aS'north'
p6731
aS'of'
p6732
aS'the'
p6733
aS'bedroom'
p6734
asI963
(lp6735
S'What'
p6736
aS'is'
p6737
aS'west'
p6738
aS'of'
p6739
aS'the'
p6740
aS'bathroom'
p6741
asI964
(lp6742
S'What'
p6743
aS'is'
p6744
aS'south'
p6745
aS'of'
p6746
aS'the'
p6747
aS'hallway'
p6748
asI965
(lp6749
S'What'
p6750
aS'is'
p6751
aS'the'
p6752
aS'kitchen'
p6753
aS'west'
p6754
aS'of'
p6755
asI966
(lp6756
S'What'
p6757
aS'is'
p6758
aS'the'
p6759
aS'kitchen'
p6760
aS'west'
p6761
aS'of'
p6762
asI967
(lp6763
S'What'
p6764
aS'is'
p6765
aS'the'
p6766
aS'kitchen'
p6767
aS'east'
p6768
aS'of'
p6769
asI968
(lp6770
S'What'
p6771
aS'is'
p6772
aS'south'
p6773
aS'of'
p6774
aS'the'
p6775
aS'bedroom'
p6776
asI969
(lp6777
S'What'
p6778
aS'is'
p6779
aS'south'
p6780
aS'of'
p6781
aS'the'
p6782
aS'kitchen'
p6783
asI970
(lp6784
S'What'
p6785
aS'is'
p6786
aS'east'
p6787
aS'of'
p6788
aS'the'
p6789
aS'office'
p6790
asI971
(lp6791
S'What'
p6792
aS'is'
p6793
aS'east'
p6794
aS'of'
p6795
aS'the'
p6796
aS'bathroom'
p6797
asI972
(lp6798
S'What'
p6799
aS'is'
p6800
aS'the'
p6801
aS'bedroom'
p6802
aS'north'
p6803
aS'of'
p6804
asI973
(lp6805
S'What'
p6806
aS'is'
p6807
aS'the'
p6808
aS'office'
p6809
aS'west'
p6810
aS'of'
p6811
asI974
(lp6812
S'What'
p6813
aS'is'
p6814
aS'the'
p6815
aS'hallway'
p6816
aS'east'
p6817
aS'of'
p6818
asI975
(lp6819
S'What'
p6820
aS'is'
p6821
aS'the'
p6822
aS'hallway'
p6823
aS'east'
p6824
aS'of'
p6825
asI976
(lp6826
S'What'
p6827
aS'is'
p6828
aS'the'
p6829
aS'bathroom'
p6830
aS'west'
p6831
aS'of'
p6832
asI977
(lp6833
S'What'
p6834
aS'is'
p6835
aS'the'
p6836
aS'bathroom'
p6837
aS'east'
p6838
aS'of'
p6839
asI978
(lp6840
S'What'
p6841
aS'is'
p6842
aS'north'
p6843
aS'of'
p6844
aS'the'
p6845
aS'bathroom'
p6846
asI979
(lp6847
S'What'
p6848
aS'is'
p6849
aS'south'
p6850
aS'of'
p6851
aS'the'
p6852
aS'office'
p6853
asI980
(lp6854
S'What'
p6855
aS'is'
p6856
aS'north'
p6857
aS'of'
p6858
aS'the'
p6859
aS'garden'
p6860
asI981
(lp6861
S'What'
p6862
aS'is'
p6863
aS'west'
p6864
aS'of'
p6865
aS'the'
p6866
aS'bedroom'
p6867
asI982
(lp6868
S'What'
p6869
aS'is'
p6870
aS'north'
p6871
aS'of'
p6872
aS'the'
p6873
aS'kitchen'
p6874
asI983
(lp6875
S'What'
p6876
aS'is'
p6877
aS'south'
p6878
aS'of'
p6879
aS'the'
p6880
aS'bedroom'
p6881
asI984
(lp6882
S'What'
p6883
aS'is'
p6884
aS'the'
p6885
aS'bedroom'
p6886
aS'south'
p6887
aS'of'
p6888
asI985
(lp6889
S'What'
p6890
aS'is'
p6891
aS'the'
p6892
aS'bedroom'
p6893
aS'west'
p6894
aS'of'
p6895
asI986
(lp6896
S'What'
p6897
aS'is'
p6898
aS'east'
p6899
aS'of'
p6900
aS'the'
p6901
aS'office'
p6902
asI987
(lp6903
S'What'
p6904
aS'is'
p6905
aS'the'
p6906
aS'office'
p6907
aS'west'
p6908
aS'of'
p6909
asI988
(lp6910
S'What'
p6911
aS'is'
p6912
aS'the'
p6913
aS'office'
p6914
aS'north'
p6915
aS'of'
p6916
asI989
(lp6917
S'What'
p6918
aS'is'
p6919
aS'south'
p6920
aS'of'
p6921
aS'the'
p6922
aS'kitchen'
p6923
asI990
(lp6924
S'What'
p6925
aS'is'
p6926
aS'the'
p6927
aS'bedroom'
p6928
aS'east'
p6929
aS'of'
p6930
asI991
(lp6931
S'What'
p6932
aS'is'
p6933
aS'west'
p6934
aS'of'
p6935
aS'the'
p6936
aS'kitchen'
p6937
asI992
(lp6938
S'What'
p6939
aS'is'
p6940
aS'the'
p6941
aS'bathroom'
p6942
aS'south'
p6943
aS'of'
p6944
asI993
(lp6945
S'What'
p6946
aS'is'
p6947
aS'east'
p6948
aS'of'
p6949
aS'the'
p6950
aS'bathroom'
p6951
asI994
(lp6952
S'What'
p6953
aS'is'
p6954
aS'the'
p6955
aS'bedroom'
p6956
aS'south'
p6957
aS'of'
p6958
asI995
(lp6959
S'What'
p6960
aS'is'
p6961
aS'the'
p6962
aS'bedroom'
p6963
aS'west'
p6964
aS'of'
p6965
asI996
(lp6966
S'What'
p6967
aS'is'
p6968
aS'west'
p6969
aS'of'
p6970
aS'the'
p6971
aS'office'
p6972
asI997
(lp6973
S'What'
p6974
aS'is'
p6975
aS'the'
p6976
aS'office'
p6977
aS'south'
p6978
aS'of'
p6979
asI998
(lp6980
S'What'
p6981
aS'is'
p6982
aS'north'
p6983
aS'of'
p6984
aS'the'
p6985
aS'bedroom'
p6986
asI999
(lp6987
S'What'
p6988
aS'is'
p6989
aS'south'
p6990
aS'of'
p6991
aS'the'
p6992
aS'bathroom'
p6993
asI1000
(lp6994
S'What'
p6995
aS'is'
p6996
aS'the'
p6997
aS'garden'
p6998
aS'south'
p6999
aS'of'
p7000
as.