(dp0
I1
(lp1
S'Mary'
p2
aS'moved'
p3
aS'to'
p4
aS'the'
p5
aS'bathroom'
p6
asI2
(lp7
S'John'
p8
aS'went'
p9
aS'to'
p10
aS'the'
p11
aS'hallway'
p12
asI3
(lp13
S'Daniel'
p14
aS'went'
p15
aS'back'
p16
aS'to'
p17
aS'the'
p18
aS'hallway'
p19
asI4
(lp20
S'Sandra'
p21
aS'moved'
p22
aS'to'
p23
aS'the'
p24
aS'garden'
p25
asI5
(lp26
S'John'
p27
aS'moved'
p28
aS'to'
p29
aS'the'
p30
aS'office'
p31
asI6
(lp32
S'Sandra'
p33
aS'journeyed'
p34
aS'to'
p35
aS'the'
p36
aS'bathroom'
p37
asI7
(lp38
S'Mary'
p39
aS'moved'
p40
aS'to'
p41
aS'the'
p42
aS'hallway'
p43
asI8
(lp44
S'Daniel'
p45
aS'travelled'
p46
aS'to'
p47
aS'the'
p48
aS'office'
p49
asI9
(lp50
S'John'
p51
aS'went'
p52
aS'back'
p53
aS'to'
p54
aS'the'
p55
aS'garden'
p56
asI10
(lp57
S'John'
p58
aS'moved'
p59
aS'to'
p60
aS'the'
p61
aS'bedroom'
p62
asI11
(lp63
S'Sandra'
p64
aS'travelled'
p65
aS'to'
p66
aS'the'
p67
aS'office'
p68
asI12
(lp69
S'Sandra'
p70
aS'went'
p71
aS'to'
p72
aS'the'
p73
aS'bathroom'
p74
asI13
(lp75
S'Mary'
p76
aS'went'
p77
aS'to'
p78
aS'the'
p79
aS'bedroom'
p80
asI14
(lp81
S'Daniel'
p82
aS'moved'
p83
aS'to'
p84
aS'the'
p85
aS'hallway'
p86
asI15
(lp87
S'John'
p88
aS'went'
p89
aS'to'
p90
aS'the'
p91
aS'garden'
p92
asI16
(lp93
S'John'
p94
aS'travelled'
p95
aS'to'
p96
aS'the'
p97
aS'office'
p98
asI17
(lp99
S'Daniel'
p100
aS'journeyed'
p101
aS'to'
p102
aS'the'
p103
aS'bedroom'
p104
asI18
(lp105
S'Daniel'
p106
aS'travelled'
p107
aS'to'
p108
aS'the'
p109
aS'hallway'
p110
asI19
(lp111
S'John'
p112
aS'went'
p113
aS'to'
p114
aS'the'
p115
aS'bedroom'
p116
asI20
(lp117
S'John'
p118
aS'travelled'
p119
aS'to'
p120
aS'the'
p121
aS'office'
p122
asI21
(lp123
S'Mary'
p124
aS'went'
p125
aS'to'
p126
aS'the'
p127
aS'bedroom'
p128
asI22
(lp129
S'John'
p130
aS'journeyed'
p131
aS'to'
p132
aS'the'
p133
aS'bathroom'
p134
asI23
(lp135
S'Sandra'
p136
aS'journeyed'
p137
aS'to'
p138
aS'the'
p139
aS'hallway'
p140
asI24
(lp141
S'John'
p142
aS'journeyed'
p143
aS'to'
p144
aS'the'
p145
aS'garden'
p146
asI25
(lp147
S'John'
p148
aS'journeyed'
p149
aS'to'
p150
aS'the'
p151
aS'bathroom'
p152
asI26
(lp153
S'Sandra'
p154
aS'journeyed'
p155
aS'to'
p156
aS'the'
p157
aS'garden'
p158
asI27
(lp159
S'Sandra'
p160
aS'went'
p161
aS'back'
p162
aS'to'
p163
aS'the'
p164
aS'bedroom'
p165
asI28
(lp166
S'Daniel'
p167
aS'travelled'
p168
aS'to'
p169
aS'the'
p170
aS'bathroom'
p171
asI29
(lp172
S'John'
p173
aS'went'
p174
aS'to'
p175
aS'the'
p176
aS'office'
p177
asI30
(lp178
S'Mary'
p179
aS'moved'
p180
aS'to'
p181
aS'the'
p182
aS'office'
p183
asI31
(lp184
S'Daniel'
p185
aS'journeyed'
p186
aS'to'
p187
aS'the'
p188
aS'kitchen'
p189
asI32
(lp190
S'Daniel'
p191
aS'journeyed'
p192
aS'to'
p193
aS'the'
p194
aS'bedroom'
p195
asI33
(lp196
S'Sandra'
p197
aS'moved'
p198
aS'to'
p199
aS'the'
p200
aS'garden'
p201
asI34
(lp202
S'Sandra'
p203
aS'went'
p204
aS'back'
p205
aS'to'
p206
aS'the'
p207
aS'kitchen'
p208
asI35
(lp209
S'Daniel'
p210
aS'travelled'
p211
aS'to'
p212
aS'the'
p213
aS'office'
p214
asI36
(lp215
S'Sandra'
p216
aS'went'
p217
aS'back'
p218
aS'to'
p219
aS'the'
p220
aS'hallway'
p221
asI37
(lp222
S'Daniel'
p223
aS'journeyed'
p224
aS'to'
p225
aS'the'
p226
aS'hallway'
p227
asI38
(lp228
S'Daniel'
p229
aS'went'
p230
aS'to'
p231
aS'the'
p232
aS'bathroom'
p233
asI39
(lp234
S'John'
p235
aS'travelled'
p236
aS'to'
p237
aS'the'
p238
aS'garden'
p239
asI40
(lp240
S'Daniel'
p241
aS'moved'
p242
aS'to'
p243
aS'the'
p244
aS'hallway'
p245
asI41
(lp246
S'Mary'
p247
aS'moved'
p248
aS'to'
p249
aS'the'
p250
aS'garden'
p251
asI42
(lp252
S'John'
p253
aS'journeyed'
p254
aS'to'
p255
aS'the'
p256
aS'bathroom'
p257
asI43
(lp258
S'Sandra'
p259
aS'moved'
p260
aS'to'
p261
aS'the'
p262
aS'office'
p263
asI44
(lp264
S'John'
p265
aS'moved'
p266
aS'to'
p267
aS'the'
p268
aS'kitchen'
p269
asI45
(lp270
S'Sandra'
p271
aS'went'
p272
aS'to'
p273
aS'the'
p274
aS'hallway'
p275
asI46
(lp276
S'Mary'
p277
aS'travelled'
p278
aS'to'
p279
aS'the'
p280
aS'bedroom'
p281
asI47
(lp282
S'Mary'
p283
aS'moved'
p284
aS'to'
p285
aS'the'
p286
aS'office'
p287
asI48
(lp288
S'John'
p289
aS'moved'
p290
aS'to'
p291
aS'the'
p292
aS'garden'
p293
asI49
(lp294
S'John'
p295
aS'journeyed'
p296
aS'to'
p297
aS'the'
p298
aS'office'
p299
asI50
(lp300
S'Sandra'
p301
aS'went'
p302
aS'to'
p303
aS'the'
p304
aS'office'
p305
asI51
(lp306
S'Mary'
p307
aS'moved'
p308
aS'to'
p309
aS'the'
p310
aS'garden'
p311
asI52
(lp312
S'Daniel'
p313
aS'journeyed'
p314
aS'to'
p315
aS'the'
p316
aS'bathroom'
p317
asI53
(lp318
S'John'
p319
aS'travelled'
p320
aS'to'
p321
aS'the'
p322
aS'kitchen'
p323
asI54
(lp324
S'John'
p325
aS'went'
p326
aS'back'
p327
aS'to'
p328
aS'the'
p329
aS'bedroom'
p330
asI55
(lp331
S'John'
p332
aS'moved'
p333
aS'to'
p334
aS'the'
p335
aS'office'
p336
asI56
(lp337
S'Daniel'
p338
aS'went'
p339
aS'back'
p340
aS'to'
p341
aS'the'
p342
aS'garden'
p343
asI57
(lp344
S'John'
p345
aS'went'
p346
aS'back'
p347
aS'to'
p348
aS'the'
p349
aS'hallway'
p350
asI58
(lp351
S'Mary'
p352
aS'went'
p353
aS'to'
p354
aS'the'
p355
aS'office'
p356
asI59
(lp357
S'Sandra'
p358
aS'travelled'
p359
aS'to'
p360
aS'the'
p361
aS'bedroom'
p362
asI60
(lp363
S'John'
p364
aS'travelled'
p365
aS'to'
p366
aS'the'
p367
aS'garden'
p368
asI61
(lp369
S'John'
p370
aS'moved'
p371
aS'to'
p372
aS'the'
p373
aS'bedroom'
p374
asI62
(lp375
S'Mary'
p376
aS'moved'
p377
aS'to'
p378
aS'the'
p379
aS'hallway'
p380
asI63
(lp381
S'Sandra'
p382
aS'moved'
p383
aS'to'
p384
aS'the'
p385
aS'bedroom'
p386
asI64
(lp387
S'Sandra'
p388
aS'travelled'
p389
aS'to'
p390
aS'the'
p391
aS'kitchen'
p392
asI65
(lp393
S'Daniel'
p394
aS'journeyed'
p395
aS'to'
p396
aS'the'
p397
aS'bathroom'
p398
asI66
(lp399
S'Sandra'
p400
aS'moved'
p401
aS'to'
p402
aS'the'
p403
aS'bathroom'
p404
asI67
(lp405
S'Daniel'
p406
aS'went'
p407
aS'back'
p408
aS'to'
p409
aS'the'
p410
aS'garden'
p411
asI68
(lp412
S'John'
p413
aS'moved'
p414
aS'to'
p415
aS'the'
p416
aS'kitchen'
p417
asI69
(lp418
S'Daniel'
p419
aS'journeyed'
p420
aS'to'
p421
aS'the'
p422
aS'kitchen'
p423
asI70
(lp424
S'Daniel'
p425
aS'journeyed'
p426
aS'to'
p427
aS'the'
p428
aS'garden'
p429
asI71
(lp430
S'Mary'
p431
aS'went'
p432
aS'to'
p433
aS'the'
p434
aS'kitchen'
p435
asI72
(lp436
S'John'
p437
aS'went'
p438
aS'back'
p439
aS'to'
p440
aS'the'
p441
aS'bedroom'
p442
asI73
(lp443
S'Mary'
p444
aS'went'
p445
aS'back'
p446
aS'to'
p447
aS'the'
p448
aS'bathroom'
p449
asI74
(lp450
S'Mary'
p451
aS'moved'
p452
aS'to'
p453
aS'the'
p454
aS'hallway'
p455
asI75
(lp456
S'John'
p457
aS'went'
p458
aS'to'
p459
aS'the'
p460
aS'kitchen'
p461
asI76
(lp462
S'Daniel'
p463
aS'travelled'
p464
aS'to'
p465
aS'the'
p466
aS'bedroom'
p467
asI77
(lp468
S'Mary'
p469
aS'travelled'
p470
aS'to'
p471
aS'the'
p472
aS'office'
p473
asI78
(lp474
S'Sandra'
p475
aS'moved'
p476
aS'to'
p477
aS'the'
p478
aS'bedroom'
p479
asI79
(lp480
S'John'
p481
aS'moved'
p482
aS'to'
p483
aS'the'
p484
aS'bedroom'
p485
asI80
(lp486
S'Sandra'
p487
aS'journeyed'
p488
aS'to'
p489
aS'the'
p490
aS'kitchen'
p491
asI81
(lp492
S'Daniel'
p493
aS'moved'
p494
aS'to'
p495
aS'the'
p496
aS'hallway'
p497
asI82
(lp498
S'Daniel'
p499
aS'travelled'
p500
aS'to'
p501
aS'the'
p502
aS'office'
p503
asI83
(lp504
S'Daniel'
p505
aS'went'
p506
aS'to'
p507
aS'the'
p508
aS'bedroom'
p509
asI84
(lp510
S'Daniel'
p511
aS'journeyed'
p512
aS'to'
p513
aS'the'
p514
aS'office'
p515
asI85
(lp516
S'Sandra'
p517
aS'went'
p518
aS'back'
p519
aS'to'
p520
aS'the'
p521
aS'bathroom'
p522
asI86
(lp523
S'Sandra'
p524
aS'journeyed'
p525
aS'to'
p526
aS'the'
p527
aS'kitchen'
p528
asI87
(lp529
S'Daniel'
p530
aS'moved'
p531
aS'to'
p532
aS'the'
p533
aS'bedroom'
p534
asI88
(lp535
S'Daniel'
p536
aS'journeyed'
p537
aS'to'
p538
aS'the'
p539
aS'hallway'
p540
asI89
(lp541
S'Sandra'
p542
aS'travelled'
p543
aS'to'
p544
aS'the'
p545
aS'garden'
p546
asI90
(lp547
S'Sandra'
p548
aS'went'
p549
aS'back'
p550
aS'to'
p551
aS'the'
p552
aS'bathroom'
p553
asI91
(lp554
S'Sandra'
p555
aS'went'
p556
aS'to'
p557
aS'the'
p558
aS'garden'
p559
asI92
(lp560
S'Sandra'
p561
aS'journeyed'
p562
aS'to'
p563
aS'the'
p564
aS'bedroom'
p565
asI93
(lp566
S'Mary'
p567
aS'travelled'
p568
aS'to'
p569
aS'the'
p570
aS'bathroom'
p571
asI94
(lp572
S'John'
p573
aS'journeyed'
p574
aS'to'
p575
aS'the'
p576
aS'bedroom'
p577
asI95
(lp578
S'Mary'
p579
aS'went'
p580
aS'back'
p581
aS'to'
p582
aS'the'
p583
aS'kitchen'
p584
asI96
(lp585
S'John'
p586
aS'went'
p587
aS'to'
p588
aS'the'
p589
aS'kitchen'
p590
asI97
(lp591
S'Daniel'
p592
aS'travelled'
p593
aS'to'
p594
aS'the'
p595
aS'kitchen'
p596
asI98
(lp597
S'Sandra'
p598
aS'travelled'
p599
aS'to'
p600
aS'the'
p601
aS'bathroom'
p602
asI99
(lp603
S'Sandra'
p604
aS'went'
p605
aS'back'
p606
aS'to'
p607
aS'the'
p608
aS'garden'
p609
asI100
(lp610
S'John'
p611
aS'went'
p612
aS'back'
p613
aS'to'
p614
aS'the'
p615
aS'garden'
p616
asI101
(lp617
S'Sandra'
p618
aS'went'
p619
aS'back'
p620
aS'to'
p621
aS'the'
p622
aS'bathroom'
p623
asI102
(lp624
S'Mary'
p625
aS'moved'
p626
aS'to'
p627
aS'the'
p628
aS'garden'
p629
asI103
(lp630
S'Mary'
p631
aS'went'
p632
aS'back'
p633
aS'to'
p634
aS'the'
p635
aS'hallway'
p636
asI104
(lp637
S'Sandra'
p638
aS'went'
p639
aS'to'
p640
aS'the'
p641
aS'office'
p642
asI105
(lp643
S'John'
p644
aS'went'
p645
aS'back'
p646
aS'to'
p647
aS'the'
p648
aS'hallway'
p649
asI106
(lp650
S'John'
p651
aS'travelled'
p652
aS'to'
p653
aS'the'
p654
aS'office'
p655
asI107
(lp656
S'Sandra'
p657
aS'journeyed'
p658
aS'to'
p659
aS'the'
p660
aS'hallway'
p661
asI108
(lp662
S'Daniel'
p663
aS'moved'
p664
aS'to'
p665
aS'the'
p666
aS'office'
p667
asI109
(lp668
S'Mary'
p669
aS'went'
p670
aS'to'
p671
aS'the'
p672
aS'office'
p673
asI110
(lp674
S'Sandra'
p675
aS'went'
p676
aS'to'
p677
aS'the'
p678
aS'office'
p679
asI111
(lp680
S'Mary'
p681
aS'went'
p682
aS'back'
p683
aS'to'
p684
aS'the'
p685
aS'office'
p686
asI112
(lp687
S'John'
p688
aS'went'
p689
aS'back'
p690
aS'to'
p691
aS'the'
p692
aS'bathroom'
p693
asI113
(lp694
S'John'
p695
aS'went'
p696
aS'to'
p697
aS'the'
p698
aS'hallway'
p699
asI114
(lp700
S'Mary'
p701
aS'journeyed'
p702
aS'to'
p703
aS'the'
p704
aS'hallway'
p705
asI115
(lp706
S'Sandra'
p707
aS'travelled'
p708
aS'to'
p709
aS'the'
p710
aS'hallway'
p711
asI116
(lp712
S'Mary'
p713
aS'travelled'
p714
aS'to'
p715
aS'the'
p716
aS'office'
p717
asI117
(lp718
S'Mary'
p719
aS'went'
p720
aS'back'
p721
aS'to'
p722
aS'the'
p723
aS'hallway'
p724
asI118
(lp725
S'Sandra'
p726
aS'travelled'
p727
aS'to'
p728
aS'the'
p729
aS'office'
p730
asI119
(lp731
S'John'
p732
aS'went'
p733
aS'to'
p734
aS'the'
p735
aS'kitchen'
p736
asI120
(lp737
S'Sandra'
p738
aS'went'
p739
aS'to'
p740
aS'the'
p741
aS'hallway'
p742
asI121
(lp743
S'Sandra'
p744
aS'moved'
p745
aS'to'
p746
aS'the'
p747
aS'hallway'
p748
asI122
(lp749
S'John'
p750
aS'moved'
p751
aS'to'
p752
aS'the'
p753
aS'hallway'
p754
asI123
(lp755
S'John'
p756
aS'journeyed'
p757
aS'to'
p758
aS'the'
p759
aS'bathroom'
p760
asI124
(lp761
S'Daniel'
p762
aS'went'
p763
aS'back'
p764
aS'to'
p765
aS'the'
p766
aS'bedroom'
p767
asI125
(lp768
S'Mary'
p769
aS'travelled'
p770
aS'to'
p771
aS'the'
p772
aS'bedroom'
p773
asI126
(lp774
S'Mary'
p775
aS'journeyed'
p776
aS'to'
p777
aS'the'
p778
aS'garden'
p779
asI127
(lp780
S'John'
p781
aS'travelled'
p782
aS'to'
p783
aS'the'
p784
aS'bedroom'
p785
asI128
(lp786
S'Sandra'
p787
aS'journeyed'
p788
aS'to'
p789
aS'the'
p790
aS'garden'
p791
asI129
(lp792
S'John'
p793
aS'journeyed'
p794
aS'to'
p795
aS'the'
p796
aS'kitchen'
p797
asI130
(lp798
S'Sandra'
p799
aS'went'
p800
aS'to'
p801
aS'the'
p802
aS'kitchen'
p803
asI131
(lp804
S'Daniel'
p805
aS'went'
p806
aS'to'
p807
aS'the'
p808
aS'kitchen'
p809
asI132
(lp810
S'Mary'
p811
aS'travelled'
p812
aS'to'
p813
aS'the'
p814
aS'hallway'
p815
asI133
(lp816
S'Daniel'
p817
aS'went'
p818
aS'back'
p819
aS'to'
p820
aS'the'
p821
aS'garden'
p822
asI134
(lp823
S'Mary'
p824
aS'went'
p825
aS'back'
p826
aS'to'
p827
aS'the'
p828
aS'bathroom'
p829
asI135
(lp830
S'Sandra'
p831
aS'moved'
p832
aS'to'
p833
aS'the'
p834
aS'hallway'
p835
asI136
(lp836
S'John'
p837
aS'moved'
p838
aS'to'
p839
aS'the'
p840
aS'garden'
p841
asI137
(lp842
S'Daniel'
p843
aS'moved'
p844
aS'to'
p845
aS'the'
p846
aS'kitchen'
p847
asI138
(lp848
S'Mary'
p849
aS'travelled'
p850
aS'to'
p851
aS'the'
p852
aS'office'
p853
asI139
(lp854
S'Daniel'
p855
aS'travelled'
p856
aS'to'
p857
aS'the'
p858
aS'hallway'
p859
asI140
(lp860
S'Sandra'
p861
aS'travelled'
p862
aS'to'
p863
aS'the'
p864
aS'bathroom'
p865
asI141
(lp866
S'Sandra'
p867
aS'moved'
p868
aS'to'
p869
aS'the'
p870
aS'kitchen'
p871
asI142
(lp872
S'Sandra'
p873
aS'went'
p874
aS'back'
p875
aS'to'
p876
aS'the'
p877
aS'garden'
p878
asI143
(lp879
S'Sandra'
p880
aS'journeyed'
p881
aS'to'
p882
aS'the'
p883
aS'office'
p884
asI144
(lp885
S'Mary'
p886
aS'moved'
p887
aS'to'
p888
aS'the'
p889
aS'office'
p890
asI145
(lp891
S'Sandra'
p892
aS'journeyed'
p893
aS'to'
p894
aS'the'
p895
aS'bathroom'
p896
asI146
(lp897
S'Daniel'
p898
aS'moved'
p899
aS'to'
p900
aS'the'
p901
aS'office'
p902
asI147
(lp903
S'Daniel'
p904
aS'went'
p905
aS'back'
p906
aS'to'
p907
aS'the'
p908
aS'kitchen'
p909
asI148
(lp910
S'Mary'
p911
aS'moved'
p912
aS'to'
p913
aS'the'
p914
aS'hallway'
p915
asI149
(lp916
S'John'
p917
aS'went'
p918
aS'to'
p919
aS'the'
p920
aS'office'
p921
asI150
(lp922
S'Sandra'
p923
aS'went'
p924
aS'to'
p925
aS'the'
p926
aS'office'
p927
asI151
(lp928
S'Sandra'
p929
aS'went'
p930
aS'to'
p931
aS'the'
p932
aS'garden'
p933
asI152
(lp934
S'Mary'
p935
aS'travelled'
p936
aS'to'
p937
aS'the'
p938
aS'bathroom'
p939
asI153
(lp940
S'Sandra'
p941
aS'moved'
p942
aS'to'
p943
aS'the'
p944
aS'bathroom'
p945
asI154
(lp946
S'Mary'
p947
aS'travelled'
p948
aS'to'
p949
aS'the'
p950
aS'hallway'
p951
asI155
(lp952
S'Mary'
p953
aS'went'
p954
aS'back'
p955
aS'to'
p956
aS'the'
p957
aS'kitchen'
p958
asI156
(lp959
S'Daniel'
p960
aS'travelled'
p961
aS'to'
p962
aS'the'
p963
aS'bedroom'
p964
asI157
(lp965
S'Mary'
p966
aS'journeyed'
p967
aS'to'
p968
aS'the'
p969
aS'bedroom'
p970
asI158
(lp971
S'Mary'
p972
aS'journeyed'
p973
aS'to'
p974
aS'the'
p975
aS'office'
p976
asI159
(lp977
S'Mary'
p978
aS'went'
p979
aS'back'
p980
aS'to'
p981
aS'the'
p982
aS'bedroom'
p983
asI160
(lp984
S'Daniel'
p985
aS'went'
p986
aS'to'
p987
aS'the'
p988
aS'garden'
p989
asI161
(lp990
S'Mary'
p991
aS'journeyed'
p992
aS'to'
p993
aS'the'
p994
aS'garden'
p995
asI162
(lp996
S'Sandra'
p997
aS'went'
p998
aS'back'
p999
aS'to'
p1000
aS'the'
p1001
aS'office'
p1002
asI163
(lp1003
S'Sandra'
p1004
aS'went'
p1005
aS'to'
p1006
aS'the'
p1007
aS'bathroom'
p1008
asI164
(lp1009
S'John'
p1010
aS'travelled'
p1011
aS'to'
p1012
aS'the'
p1013
aS'bathroom'
p1014
asI165
(lp1015
S'Sandra'
p1016
aS'moved'
p1017
aS'to'
p1018
aS'the'
p1019
aS'bedroom'
p1020
asI166
(lp1021
S'Sandra'
p1022
aS'travelled'
p1023
aS'to'
p1024
aS'the'
p1025
aS'hallway'
p1026
asI167
(lp1027
S'Mary'
p1028
aS'moved'
p1029
aS'to'
p1030
aS'the'
p1031
aS'bathroom'
p1032
asI168
(lp1033
S'John'
p1034
aS'went'
p1035
aS'to'
p1036
aS'the'
p1037
aS'kitchen'
p1038
asI169
(lp1039
S'Daniel'
p1040
aS'moved'
p1041
aS'to'
p1042
aS'the'
p1043
aS'bathroom'
p1044
asI170
(lp1045
S'Daniel'
p1046
aS'went'
p1047
aS'to'
p1048
aS'the'
p1049
aS'office'
p1050
asI171
(lp1051
S'Mary'
p1052
aS'moved'
p1053
aS'to'
p1054
aS'the'
p1055
aS'office'
p1056
asI172
(lp1057
S'Daniel'
p1058
aS'went'
p1059
aS'to'
p1060
aS'the'
p1061
aS'kitchen'
p1062
asI173
(lp1063
S'Sandra'
p1064
aS'went'
p1065
aS'to'
p1066
aS'the'
p1067
aS'bathroom'
p1068
asI174
(lp1069
S'Daniel'
p1070
aS'moved'
p1071
aS'to'
p1072
aS'the'
p1073
aS'office'
p1074
asI175
(lp1075
S'Sandra'
p1076
aS'went'
p1077
aS'to'
p1078
aS'the'
p1079
aS'office'
p1080
asI176
(lp1081
S'Sandra'
p1082
aS'went'
p1083
aS'to'
p1084
aS'the'
p1085
aS'hallway'
p1086
asI177
(lp1087
S'Mary'
p1088
aS'went'
p1089
aS'to'
p1090
aS'the'
p1091
aS'garden'
p1092
asI178
(lp1093
S'Daniel'
p1094
aS'moved'
p1095
aS'to'
p1096
aS'the'
p1097
aS'kitchen'
p1098
asI179
(lp1099
S'Mary'
p1100
aS'went'
p1101
aS'back'
p1102
aS'to'
p1103
aS'the'
p1104
aS'kitchen'
p1105
asI180
(lp1106
S'John'
p1107
aS'journeyed'
p1108
aS'to'
p1109
aS'the'
p1110
aS'hallway'
p1111
asI181
(lp1112
S'John'
p1113
aS'went'
p1114
aS'back'
p1115
aS'to'
p1116
aS'the'
p1117
aS'bathroom'
p1118
asI182
(lp1119
S'Mary'
p1120
aS'travelled'
p1121
aS'to'
p1122
aS'the'
p1123
aS'bathroom'
p1124
asI183
(lp1125
S'Mary'
p1126
aS'went'
p1127
aS'to'
p1128
aS'the'
p1129
aS'garden'
p1130
asI184
(lp1131
S'Sandra'
p1132
aS'moved'
p1133
aS'to'
p1134
aS'the'
p1135
aS'garden'
p1136
asI185
(lp1137
S'John'
p1138
aS'went'
p1139
aS'to'
p1140
aS'the'
p1141
aS'kitchen'
p1142
asI186
(lp1143
S'Daniel'
p1144
aS'moved'
p1145
aS'to'
p1146
aS'the'
p1147
aS'bathroom'
p1148
asI187
(lp1149
S'Daniel'
p1150
aS'went'
p1151
aS'back'
p1152
aS'to'
p1153
aS'the'
p1154
aS'hallway'
p1155
asI188
(lp1156
S'Mary'
p1157
aS'went'
p1158
aS'to'
p1159
aS'the'
p1160
aS'kitchen'
p1161
asI189
(lp1162
S'Daniel'
p1163
aS'went'
p1164
aS'to'
p1165
aS'the'
p1166
aS'garden'
p1167
asI190
(lp1168
S'Daniel'
p1169
aS'travelled'
p1170
aS'to'
p1171
aS'the'
p1172
aS'hallway'
p1173
asI191
(lp1174
S'Mary'
p1175
aS'went'
p1176
aS'back'
p1177
aS'to'
p1178
aS'the'
p1179
aS'bedroom'
p1180
asI192
(lp1181
S'Mary'
p1182
aS'travelled'
p1183
aS'to'
p1184
aS'the'
p1185
aS'bathroom'
p1186
asI193
(lp1187
S'John'
p1188
aS'travelled'
p1189
aS'to'
p1190
aS'the'
p1191
aS'office'
p1192
asI194
(lp1193
S'Mary'
p1194
aS'travelled'
p1195
aS'to'
p1196
aS'the'
p1197
aS'bedroom'
p1198
asI195
(lp1199
S'John'
p1200
aS'journeyed'
p1201
aS'to'
p1202
aS'the'
p1203
aS'kitchen'
p1204
asI196
(lp1205
S'John'
p1206
aS'moved'
p1207
aS'to'
p1208
aS'the'
p1209
aS'hallway'
p1210
asI197
(lp1211
S'Daniel'
p1212
aS'moved'
p1213
aS'to'
p1214
aS'the'
p1215
aS'hallway'
p1216
asI198
(lp1217
S'Mary'
p1218
aS'went'
p1219
aS'back'
p1220
aS'to'
p1221
aS'the'
p1222
aS'garden'
p1223
asI199
(lp1224
S'Daniel'
p1225
aS'went'
p1226
aS'back'
p1227
aS'to'
p1228
aS'the'
p1229
aS'office'
p1230
asI200
(lp1231
S'Daniel'
p1232
aS'travelled'
p1233
aS'to'
p1234
aS'the'
p1235
aS'kitchen'
p1236
asI201
(lp1237
S'Daniel'
p1238
aS'moved'
p1239
aS'to'
p1240
aS'the'
p1241
aS'garden'
p1242
asI202
(lp1243
S'Mary'
p1244
aS'went'
p1245
aS'back'
p1246
aS'to'
p1247
aS'the'
p1248
aS'bathroom'
p1249
asI203
(lp1250
S'Daniel'
p1251
aS'travelled'
p1252
aS'to'
p1253
aS'the'
p1254
aS'kitchen'
p1255
asI204
(lp1256
S'Sandra'
p1257
aS'went'
p1258
aS'to'
p1259
aS'the'
p1260
aS'kitchen'
p1261
asI205
(lp1262
S'Daniel'
p1263
aS'journeyed'
p1264
aS'to'
p1265
aS'the'
p1266
aS'garden'
p1267
asI206
(lp1268
S'Mary'
p1269
aS'journeyed'
p1270
aS'to'
p1271
aS'the'
p1272
aS'kitchen'
p1273
asI207
(lp1274
S'Mary'
p1275
aS'moved'
p1276
aS'to'
p1277
aS'the'
p1278
aS'hallway'
p1279
asI208
(lp1280
S'John'
p1281
aS'went'
p1282
aS'back'
p1283
aS'to'
p1284
aS'the'
p1285
aS'bedroom'
p1286
asI209
(lp1287
S'John'
p1288
aS'moved'
p1289
aS'to'
p1290
aS'the'
p1291
aS'office'
p1292
asI210
(lp1293
S'John'
p1294
aS'travelled'
p1295
aS'to'
p1296
aS'the'
p1297
aS'bathroom'
p1298
asI211
(lp1299
S'Mary'
p1300
aS'went'
p1301
aS'back'
p1302
aS'to'
p1303
aS'the'
p1304
aS'hallway'
p1305
asI212
(lp1306
S'Sandra'
p1307
aS'journeyed'
p1308
aS'to'
p1309
aS'the'
p1310
aS'garden'
p1311
asI213
(lp1312
S'Sandra'
p1313
aS'travelled'
p1314
aS'to'
p1315
aS'the'
p1316
aS'bathroom'
p1317
asI214
(lp1318
S'John'
p1319
aS'travelled'
p1320
aS'to'
p1321
aS'the'
p1322
aS'hallway'
p1323
asI215
(lp1324
S'John'
p1325
aS'travelled'
p1326
aS'to'
p1327
aS'the'
p1328
aS'garden'
p1329
asI216
(lp1330
S'Mary'
p1331
aS'journeyed'
p1332
aS'to'
p1333
aS'the'
p1334
aS'bedroom'
p1335
asI217
(lp1336
S'Sandra'
p1337
aS'journeyed'
p1338
aS'to'
p1339
aS'the'
p1340
aS'office'
p1341
asI218
(lp1342
S'Daniel'
p1343
aS'journeyed'
p1344
aS'to'
p1345
aS'the'
p1346
aS'hallway'
p1347
asI219
(lp1348
S'Mary'
p1349
aS'journeyed'
p1350
aS'to'
p1351
aS'the'
p1352
aS'hallway'
p1353
asI220
(lp1354
S'Mary'
p1355
aS'moved'
p1356
aS'to'
p1357
aS'the'
p1358
aS'bedroom'
p1359
asI221
(lp1360
S'Sandra'
p1361
aS'journeyed'
p1362
aS'to'
p1363
aS'the'
p1364
aS'kitchen'
p1365
asI222
(lp1366
S'Sandra'
p1367
aS'journeyed'
p1368
aS'to'
p1369
aS'the'
p1370
aS'garden'
p1371
asI223
(lp1372
S'Daniel'
p1373
aS'travelled'
p1374
aS'to'
p1375
aS'the'
p1376
aS'kitchen'
p1377
asI224
(lp1378
S'Mary'
p1379
aS'moved'
p1380
aS'to'
p1381
aS'the'
p1382
aS'bedroom'
p1383
asI225
(lp1384
S'Sandra'
p1385
aS'moved'
p1386
aS'to'
p1387
aS'the'
p1388
aS'bedroom'
p1389
asI226
(lp1390
S'John'
p1391
aS'travelled'
p1392
aS'to'
p1393
aS'the'
p1394
aS'garden'
p1395
asI227
(lp1396
S'Sandra'
p1397
aS'went'
p1398
aS'back'
p1399
aS'to'
p1400
aS'the'
p1401
aS'kitchen'
p1402
asI228
(lp1403
S'John'
p1404
aS'journeyed'
p1405
aS'to'
p1406
aS'the'
p1407
aS'bedroom'
p1408
asI229
(lp1409
S'Daniel'
p1410
aS'went'
p1411
aS'back'
p1412
aS'to'
p1413
aS'the'
p1414
aS'bathroom'
p1415
asI230
(lp1416
S'Sandra'
p1417
aS'journeyed'
p1418
aS'to'
p1419
aS'the'
p1420
aS'bedroom'
p1421
asI231
(lp1422
S'Mary'
p1423
aS'went'
p1424
aS'back'
p1425
aS'to'
p1426
aS'the'
p1427
aS'hallway'
p1428
asI232
(lp1429
S'Daniel'
p1430
aS'went'
p1431
aS'back'
p1432
aS'to'
p1433
aS'the'
p1434
aS'bedroom'
p1435
asI233
(lp1436
S'Sandra'
p1437
aS'moved'
p1438
aS'to'
p1439
aS'the'
p1440
aS'bathroom'
p1441
asI234
(lp1442
S'Sandra'
p1443
aS'journeyed'
p1444
aS'to'
p1445
aS'the'
p1446
aS'hallway'
p1447
asI235
(lp1448
S'Mary'
p1449
aS'went'
p1450
aS'back'
p1451
aS'to'
p1452
aS'the'
p1453
aS'bedroom'
p1454
asI236
(lp1455
S'Mary'
p1456
aS'went'
p1457
aS'back'
p1458
aS'to'
p1459
aS'the'
p1460
aS'garden'
p1461
asI237
(lp1462
S'Sandra'
p1463
aS'went'
p1464
aS'back'
p1465
aS'to'
p1466
aS'the'
p1467
aS'bathroom'
p1468
asI238
(lp1469
S'John'
p1470
aS'went'
p1471
aS'to'
p1472
aS'the'
p1473
aS'office'
p1474
asI239
(lp1475
S'Daniel'
p1476
aS'travelled'
p1477
aS'to'
p1478
aS'the'
p1479
aS'garden'
p1480
asI240
(lp1481
S'Sandra'
p1482
aS'travelled'
p1483
aS'to'
p1484
aS'the'
p1485
aS'hallway'
p1486
asI241
(lp1487
S'John'
p1488
aS'went'
p1489
aS'back'
p1490
aS'to'
p1491
aS'the'
p1492
aS'hallway'
p1493
asI242
(lp1494
S'Sandra'
p1495
aS'journeyed'
p1496
aS'to'
p1497
aS'the'
p1498
aS'kitchen'
p1499
asI243
(lp1500
S'Daniel'
p1501
aS'journeyed'
p1502
aS'to'
p1503
aS'the'
p1504
aS'office'
p1505
asI244
(lp1506
S'John'
p1507
aS'went'
p1508
aS'to'
p1509
aS'the'
p1510
aS'kitchen'
p1511
asI245
(lp1512
S'Daniel'
p1513
aS'journeyed'
p1514
aS'to'
p1515
aS'the'
p1516
aS'garden'
p1517
asI246
(lp1518
S'John'
p1519
aS'travelled'
p1520
aS'to'
p1521
aS'the'
p1522
aS'bedroom'
p1523
asI247
(lp1524
S'Daniel'
p1525
aS'journeyed'
p1526
aS'to'
p1527
aS'the'
p1528
aS'office'
p1529
asI248
(lp1530
S'Daniel'
p1531
aS'went'
p1532
aS'to'
p1533
aS'the'
p1534
aS'bedroom'
p1535
asI249
(lp1536
S'Sandra'
p1537
aS'travelled'
p1538
aS'to'
p1539
aS'the'
p1540
aS'hallway'
p1541
asI250
(lp1542
S'Sandra'
p1543
aS'journeyed'
p1544
aS'to'
p1545
aS'the'
p1546
aS'bedroom'
p1547
asI251
(lp1548
S'John'
p1549
aS'moved'
p1550
aS'to'
p1551
aS'the'
p1552
aS'kitchen'
p1553
asI252
(lp1554
S'Daniel'
p1555
aS'travelled'
p1556
aS'to'
p1557
aS'the'
p1558
aS'garden'
p1559
asI253
(lp1560
S'Daniel'
p1561
aS'went'
p1562
aS'to'
p1563
aS'the'
p1564
aS'kitchen'
p1565
asI254
(lp1566
S'Daniel'
p1567
aS'travelled'
p1568
aS'to'
p1569
aS'the'
p1570
aS'bathroom'
p1571
asI255
(lp1572
S'John'
p1573
aS'moved'
p1574
aS'to'
p1575
aS'the'
p1576
aS'bathroom'
p1577
asI256
(lp1578
S'Mary'
p1579
aS'journeyed'
p1580
aS'to'
p1581
aS'the'
p1582
aS'bathroom'
p1583
asI257
(lp1584
S'Mary'
p1585
aS'went'
p1586
aS'to'
p1587
aS'the'
p1588
aS'kitchen'
p1589
asI258
(lp1590
S'Daniel'
p1591
aS'journeyed'
p1592
aS'to'
p1593
aS'the'
p1594
aS'garden'
p1595
asI259
(lp1596
S'Daniel'
p1597
aS'went'
p1598
aS'to'
p1599
aS'the'
p1600
aS'kitchen'
p1601
asI260
(lp1602
S'John'
p1603
aS'went'
p1604
aS'to'
p1605
aS'the'
p1606
aS'hallway'
p1607
asI261
(lp1608
S'Sandra'
p1609
aS'went'
p1610
aS'back'
p1611
aS'to'
p1612
aS'the'
p1613
aS'kitchen'
p1614
asI262
(lp1615
S'Sandra'
p1616
aS'travelled'
p1617
aS'to'
p1618
aS'the'
p1619
aS'bathroom'
p1620
asI263
(lp1621
S'John'
p1622
aS'travelled'
p1623
aS'to'
p1624
aS'the'
p1625
aS'garden'
p1626
asI264
(lp1627
S'Daniel'
p1628
aS'moved'
p1629
aS'to'
p1630
aS'the'
p1631
aS'hallway'
p1632
asI265
(lp1633
S'John'
p1634
aS'went'
p1635
aS'to'
p1636
aS'the'
p1637
aS'kitchen'
p1638
asI266
(lp1639
S'Daniel'
p1640
aS'journeyed'
p1641
aS'to'
p1642
aS'the'
p1643
aS'garden'
p1644
asI267
(lp1645
S'Daniel'
p1646
aS'journeyed'
p1647
aS'to'
p1648
aS'the'
p1649
aS'hallway'
p1650
asI268
(lp1651
S'Sandra'
p1652
aS'journeyed'
p1653
aS'to'
p1654
aS'the'
p1655
aS'garden'
p1656
asI269
(lp1657
S'John'
p1658
aS'went'
p1659
aS'back'
p1660
aS'to'
p1661
aS'the'
p1662
aS'hallway'
p1663
asI270
(lp1664
S'Mary'
p1665
aS'travelled'
p1666
aS'to'
p1667
aS'the'
p1668
aS'office'
p1669
asI271
(lp1670
S'Daniel'
p1671
aS'moved'
p1672
aS'to'
p1673
aS'the'
p1674
aS'bedroom'
p1675
asI272
(lp1676
S'John'
p1677
aS'went'
p1678
aS'back'
p1679
aS'to'
p1680
aS'the'
p1681
aS'garden'
p1682
asI273
(lp1683
S'John'
p1684
aS'travelled'
p1685
aS'to'
p1686
aS'the'
p1687
aS'bathroom'
p1688
asI274
(lp1689
S'John'
p1690
aS'travelled'
p1691
aS'to'
p1692
aS'the'
p1693
aS'garden'
p1694
asI275
(lp1695
S'John'
p1696
aS'went'
p1697
aS'to'
p1698
aS'the'
p1699
aS'kitchen'
p1700
asI276
(lp1701
S'Daniel'
p1702
aS'journeyed'
p1703
aS'to'
p1704
aS'the'
p1705
aS'garden'
p1706
asI277
(lp1707
S'John'
p1708
aS'went'
p1709
aS'back'
p1710
aS'to'
p1711
aS'the'
p1712
aS'garden'
p1713
asI278
(lp1714
S'Sandra'
p1715
aS'went'
p1716
aS'back'
p1717
aS'to'
p1718
aS'the'
p1719
aS'kitchen'
p1720
asI279
(lp1721
S'Daniel'
p1722
aS'journeyed'
p1723
aS'to'
p1724
aS'the'
p1725
aS'hallway'
p1726
asI280
(lp1727
S'Daniel'
p1728
aS'moved'
p1729
aS'to'
p1730
aS'the'
p1731
aS'bathroom'
p1732
asI281
(lp1733
S'Mary'
p1734
aS'travelled'
p1735
aS'to'
p1736
aS'the'
p1737
aS'hallway'
p1738
asI282
(lp1739
S'Mary'
p1740
aS'moved'
p1741
aS'to'
p1742
aS'the'
p1743
aS'garden'
p1744
asI283
(lp1745
S'Sandra'
p1746
aS'went'
p1747
aS'to'
p1748
aS'the'
p1749
aS'kitchen'
p1750
asI284
(lp1751
S'Sandra'
p1752
aS'moved'
p1753
aS'to'
p1754
aS'the'
p1755
aS'bathroom'
p1756
asI285
(lp1757
S'Daniel'
p1758
aS'went'
p1759
aS'back'
p1760
aS'to'
p1761
aS'the'
p1762
aS'bedroom'
p1763
asI286
(lp1764
S'John'
p1765
aS'went'
p1766
aS'back'
p1767
aS'to'
p1768
aS'the'
p1769
aS'office'
p1770
asI287
(lp1771
S'Mary'
p1772
aS'went'
p1773
aS'back'
p1774
aS'to'
p1775
aS'the'
p1776
aS'office'
p1777
asI288
(lp1778
S'Mary'
p1779
aS'went'
p1780
aS'to'
p1781
aS'the'
p1782
aS'bathroom'
p1783
asI289
(lp1784
S'Daniel'
p1785
aS'went'
p1786
aS'back'
p1787
aS'to'
p1788
aS'the'
p1789
aS'kitchen'
p1790
asI290
(lp1791
S'Mary'
p1792
aS'moved'
p1793
aS'to'
p1794
aS'the'
p1795
aS'kitchen'
p1796
asI291
(lp1797
S'Daniel'
p1798
aS'went'
p1799
aS'to'
p1800
aS'the'
p1801
aS'office'
p1802
asI292
(lp1803
S'John'
p1804
aS'journeyed'
p1805
aS'to'
p1806
aS'the'
p1807
aS'garden'
p1808
asI293
(lp1809
S'John'
p1810
aS'travelled'
p1811
aS'to'
p1812
aS'the'
p1813
aS'bathroom'
p1814
asI294
(lp1815
S'Daniel'
p1816
aS'moved'
p1817
aS'to'
p1818
aS'the'
p1819
aS'bedroom'
p1820
asI295
(lp1821
S'Mary'
p1822
aS'travelled'
p1823
aS'to'
p1824
aS'the'
p1825
aS'kitchen'
p1826
asI296
(lp1827
S'John'
p1828
aS'journeyed'
p1829
aS'to'
p1830
aS'the'
p1831
aS'kitchen'
p1832
asI297
(lp1833
S'John'
p1834
aS'travelled'
p1835
aS'to'
p1836
aS'the'
p1837
aS'office'
p1838
asI298
(lp1839
S'Sandra'
p1840
aS'moved'
p1841
aS'to'
p1842
aS'the'
p1843
aS'office'
p1844
asI299
(lp1845
S'John'
p1846
aS'moved'
p1847
aS'to'
p1848
aS'the'
p1849
aS'garden'
p1850
asI300
(lp1851
S'Mary'
p1852
aS'journeyed'
p1853
aS'to'
p1854
aS'the'
p1855
aS'bedroom'
p1856
asI301
(lp1857
S'Sandra'
p1858
aS'journeyed'
p1859
aS'to'
p1860
aS'the'
p1861
aS'hallway'
p1862
asI302
(lp1863
S'Daniel'
p1864
aS'travelled'
p1865
aS'to'
p1866
aS'the'
p1867
aS'hallway'
p1868
asI303
(lp1869
S'John'
p1870
aS'travelled'
p1871
aS'to'
p1872
aS'the'
p1873
aS'hallway'
p1874
asI304
(lp1875
S'Sandra'
p1876
aS'went'
p1877
aS'to'
p1878
aS'the'
p1879
aS'bedroom'
p1880
asI305
(lp1881
S'John'
p1882
aS'travelled'
p1883
aS'to'
p1884
aS'the'
p1885
aS'office'
p1886
asI306
(lp1887
S'Sandra'
p1888
aS'went'
p1889
aS'to'
p1890
aS'the'
p1891
aS'kitchen'
p1892
asI307
(lp1893
S'Mary'
p1894
aS'moved'
p1895
aS'to'
p1896
aS'the'
p1897
aS'office'
p1898
asI308
(lp1899
S'Daniel'
p1900
aS'moved'
p1901
aS'to'
p1902
aS'the'
p1903
aS'office'
p1904
asI309
(lp1905
S'Daniel'
p1906
aS'went'
p1907
aS'back'
p1908
aS'to'
p1909
aS'the'
p1910
aS'bathroom'
p1911
asI310
(lp1912
S'Daniel'
p1913
aS'travelled'
p1914
aS'to'
p1915
aS'the'
p1916
aS'office'
p1917
asI311
(lp1918
S'Mary'
p1919
aS'went'
p1920
aS'to'
p1921
aS'the'
p1922
aS'bathroom'
p1923
asI312
(lp1924
S'John'
p1925
aS'travelled'
p1926
aS'to'
p1927
aS'the'
p1928
aS'hallway'
p1929
asI313
(lp1930
S'John'
p1931
aS'moved'
p1932
aS'to'
p1933
aS'the'
p1934
aS'kitchen'
p1935
asI314
(lp1936
S'Mary'
p1937
aS'went'
p1938
aS'back'
p1939
aS'to'
p1940
aS'the'
p1941
aS'hallway'
p1942
asI315
(lp1943
S'Daniel'
p1944
aS'went'
p1945
aS'back'
p1946
aS'to'
p1947
aS'the'
p1948
aS'bedroom'
p1949
asI316
(lp1950
S'Mary'
p1951
aS'journeyed'
p1952
aS'to'
p1953
aS'the'
p1954
aS'garden'
p1955
asI317
(lp1956
S'Mary'
p1957
aS'went'
p1958
aS'back'
p1959
aS'to'
p1960
aS'the'
p1961
aS'office'
p1962
asI318
(lp1963
S'Daniel'
p1964
aS'went'
p1965
aS'back'
p1966
aS'to'
p1967
aS'the'
p1968
aS'bathroom'
p1969
asI319
(lp1970
S'Sandra'
p1971
aS'moved'
p1972
aS'to'
p1973
aS'the'
p1974
aS'hallway'
p1975
asI320
(lp1976
S'John'
p1977
aS'went'
p1978
aS'back'
p1979
aS'to'
p1980
aS'the'
p1981
aS'bedroom'
p1982
asI321
(lp1983
S'Daniel'
p1984
aS'journeyed'
p1985
aS'to'
p1986
aS'the'
p1987
aS'bedroom'
p1988
asI322
(lp1989
S'John'
p1990
aS'went'
p1991
aS'to'
p1992
aS'the'
p1993
aS'kitchen'
p1994
asI323
(lp1995
S'Mary'
p1996
aS'moved'
p1997
aS'to'
p1998
aS'the'
p1999
aS'office'
p2000
asI324
(lp2001
S'Sandra'
p2002
aS'travelled'
p2003
aS'to'
p2004
aS'the'
p2005
aS'bathroom'
p2006
asI325
(lp2007
S'Mary'
p2008
aS'went'
p2009
aS'to'
p2010
aS'the'
p2011
aS'kitchen'
p2012
asI326
(lp2013
S'Sandra'
p2014
aS'journeyed'
p2015
aS'to'
p2016
aS'the'
p2017
aS'bedroom'
p2018
asI327
(lp2019
S'Sandra'
p2020
aS'journeyed'
p2021
aS'to'
p2022
aS'the'
p2023
aS'office'
p2024
asI328
(lp2025
S'Daniel'
p2026
aS'went'
p2027
aS'back'
p2028
aS'to'
p2029
aS'the'
p2030
aS'bathroom'
p2031
asI329
(lp2032
S'Mary'
p2033
aS'went'
p2034
aS'back'
p2035
aS'to'
p2036
aS'the'
p2037
aS'office'
p2038
asI330
(lp2039
S'John'
p2040
aS'went'
p2041
aS'back'
p2042
aS'to'
p2043
aS'the'
p2044
aS'office'
p2045
asI331
(lp2046
S'Mary'
p2047
aS'moved'
p2048
aS'to'
p2049
aS'the'
p2050
aS'garden'
p2051
asI332
(lp2052
S'John'
p2053
aS'went'
p2054
aS'to'
p2055
aS'the'
p2056
aS'bedroom'
p2057
asI333
(lp2058
S'Daniel'
p2059
aS'journeyed'
p2060
aS'to'
p2061
aS'the'
p2062
aS'kitchen'
p2063
asI334
(lp2064
S'Sandra'
p2065
aS'went'
p2066
aS'to'
p2067
aS'the'
p2068
aS'bathroom'
p2069
asI335
(lp2070
S'Daniel'
p2071
aS'journeyed'
p2072
aS'to'
p2073
aS'the'
p2074
aS'bathroom'
p2075
asI336
(lp2076
S'Daniel'
p2077
aS'moved'
p2078
aS'to'
p2079
aS'the'
p2080
aS'garden'
p2081
asI337
(lp2082
S'Daniel'
p2083
aS'went'
p2084
aS'to'
p2085
aS'the'
p2086
aS'kitchen'
p2087
asI338
(lp2088
S'Mary'
p2089
aS'journeyed'
p2090
aS'to'
p2091
aS'the'
p2092
aS'bathroom'
p2093
asI339
(lp2094
S'Sandra'
p2095
aS'travelled'
p2096
aS'to'
p2097
aS'the'
p2098
aS'garden'
p2099
asI340
(lp2100
S'Sandra'
p2101
aS'went'
p2102
aS'to'
p2103
aS'the'
p2104
aS'hallway'
p2105
asI341
(lp2106
S'Sandra'
p2107
aS'travelled'
p2108
aS'to'
p2109
aS'the'
p2110
aS'office'
p2111
asI342
(lp2112
S'Sandra'
p2113
aS'travelled'
p2114
aS'to'
p2115
aS'the'
p2116
aS'bathroom'
p2117
asI343
(lp2118
S'Mary'
p2119
aS'went'
p2120
aS'back'
p2121
aS'to'
p2122
aS'the'
p2123
aS'hallway'
p2124
asI344
(lp2125
S'Mary'
p2126
aS'travelled'
p2127
aS'to'
p2128
aS'the'
p2129
aS'bathroom'
p2130
asI345
(lp2131
S'Daniel'
p2132
aS'went'
p2133
aS'to'
p2134
aS'the'
p2135
aS'bedroom'
p2136
asI346
(lp2137
S'Mary'
p2138
aS'went'
p2139
aS'to'
p2140
aS'the'
p2141
aS'office'
p2142
asI347
(lp2143
S'Mary'
p2144
aS'travelled'
p2145
aS'to'
p2146
aS'the'
p2147
aS'hallway'
p2148
asI348
(lp2149
S'John'
p2150
aS'moved'
p2151
aS'to'
p2152
aS'the'
p2153
aS'garden'
p2154
asI349
(lp2155
S'Sandra'
p2156
aS'journeyed'
p2157
aS'to'
p2158
aS'the'
p2159
aS'office'
p2160
asI350
(lp2161
S'Sandra'
p2162
aS'moved'
p2163
aS'to'
p2164
aS'the'
p2165
aS'bathroom'
p2166
asI351
(lp2167
S'Sandra'
p2168
aS'journeyed'
p2169
aS'to'
p2170
aS'the'
p2171
aS'garden'
p2172
asI352
(lp2173
S'Mary'
p2174
aS'travelled'
p2175
aS'to'
p2176
aS'the'
p2177
aS'hallway'
p2178
asI353
(lp2179
S'John'
p2180
aS'travelled'
p2181
aS'to'
p2182
aS'the'
p2183
aS'bathroom'
p2184
asI354
(lp2185
S'Sandra'
p2186
aS'went'
p2187
aS'back'
p2188
aS'to'
p2189
aS'the'
p2190
aS'kitchen'
p2191
asI355
(lp2192
S'Daniel'
p2193
aS'travelled'
p2194
aS'to'
p2195
aS'the'
p2196
aS'bathroom'
p2197
asI356
(lp2198
S'Daniel'
p2199
aS'travelled'
p2200
aS'to'
p2201
aS'the'
p2202
aS'kitchen'
p2203
asI357
(lp2204
S'John'
p2205
aS'went'
p2206
aS'back'
p2207
aS'to'
p2208
aS'the'
p2209
aS'hallway'
p2210
asI358
(lp2211
S'John'
p2212
aS'travelled'
p2213
aS'to'
p2214
aS'the'
p2215
aS'bathroom'
p2216
asI359
(lp2217
S'Mary'
p2218
aS'journeyed'
p2219
aS'to'
p2220
aS'the'
p2221
aS'bathroom'
p2222
asI360
(lp2223
S'Mary'
p2224
aS'travelled'
p2225
aS'to'
p2226
aS'the'
p2227
aS'bedroom'
p2228
asI361
(lp2229
S'John'
p2230
aS'went'
p2231
aS'to'
p2232
aS'the'
p2233
aS'office'
p2234
asI362
(lp2235
S'Daniel'
p2236
aS'journeyed'
p2237
aS'to'
p2238
aS'the'
p2239
aS'kitchen'
p2240
asI363
(lp2241
S'John'
p2242
aS'travelled'
p2243
aS'to'
p2244
aS'the'
p2245
aS'bedroom'
p2246
asI364
(lp2247
S'John'
p2248
aS'moved'
p2249
aS'to'
p2250
aS'the'
p2251
aS'garden'
p2252
asI365
(lp2253
S'Daniel'
p2254
aS'journeyed'
p2255
aS'to'
p2256
aS'the'
p2257
aS'bathroom'
p2258
asI366
(lp2259
S'John'
p2260
aS'journeyed'
p2261
aS'to'
p2262
aS'the'
p2263
aS'bedroom'
p2264
asI367
(lp2265
S'Sandra'
p2266
aS'journeyed'
p2267
aS'to'
p2268
aS'the'
p2269
aS'kitchen'
p2270
asI368
(lp2271
S'Mary'
p2272
aS'moved'
p2273
aS'to'
p2274
aS'the'
p2275
aS'garden'
p2276
asI369
(lp2277
S'Sandra'
p2278
aS'journeyed'
p2279
aS'to'
p2280
aS'the'
p2281
aS'bathroom'
p2282
asI370
(lp2283
S'Sandra'
p2284
aS'went'
p2285
aS'back'
p2286
aS'to'
p2287
aS'the'
p2288
aS'bedroom'
p2289
asI371
(lp2290
S'Daniel'
p2291
aS'went'
p2292
aS'back'
p2293
aS'to'
p2294
aS'the'
p2295
aS'bedroom'
p2296
asI372
(lp2297
S'Sandra'
p2298
aS'travelled'
p2299
aS'to'
p2300
aS'the'
p2301
aS'bedroom'
p2302
asI373
(lp2303
S'Sandra'
p2304
aS'went'
p2305
aS'to'
p2306
aS'the'
p2307
aS'office'
p2308
asI374
(lp2309
S'Mary'
p2310
aS'went'
p2311
aS'to'
p2312
aS'the'
p2313
aS'office'
p2314
asI375
(lp2315
S'John'
p2316
aS'journeyed'
p2317
aS'to'
p2318
aS'the'
p2319
aS'garden'
p2320
asI376
(lp2321
S'Mary'
p2322
aS'journeyed'
p2323
aS'to'
p2324
aS'the'
p2325
aS'garden'
p2326
asI377
(lp2327
S'Daniel'
p2328
aS'travelled'
p2329
aS'to'
p2330
aS'the'
p2331
aS'bathroom'
p2332
asI378
(lp2333
S'John'
p2334
aS'moved'
p2335
aS'to'
p2336
aS'the'
p2337
aS'kitchen'
p2338
asI379
(lp2339
S'Sandra'
p2340
aS'went'
p2341
aS'back'
p2342
aS'to'
p2343
aS'the'
p2344
aS'kitchen'
p2345
asI380
(lp2346
S'Daniel'
p2347
aS'journeyed'
p2348
aS'to'
p2349
aS'the'
p2350
aS'hallway'
p2351
asI381
(lp2352
S'Daniel'
p2353
aS'moved'
p2354
aS'to'
p2355
aS'the'
p2356
aS'bathroom'
p2357
asI382
(lp2358
S'John'
p2359
aS'moved'
p2360
aS'to'
p2361
aS'the'
p2362
aS'office'
p2363
asI383
(lp2364
S'Mary'
p2365
aS'went'
p2366
aS'back'
p2367
aS'to'
p2368
aS'the'
p2369
aS'office'
p2370
asI384
(lp2371
S'John'
p2372
aS'went'
p2373
aS'back'
p2374
aS'to'
p2375
aS'the'
p2376
aS'hallway'
p2377
asI385
(lp2378
S'Mary'
p2379
aS'moved'
p2380
aS'to'
p2381
aS'the'
p2382
aS'hallway'
p2383
asI386
(lp2384
S'Mary'
p2385
aS'journeyed'
p2386
aS'to'
p2387
aS'the'
p2388
aS'kitchen'
p2389
asI387
(lp2390
S'Daniel'
p2391
aS'went'
p2392
aS'to'
p2393
aS'the'
p2394
aS'office'
p2395
asI388
(lp2396
S'Daniel'
p2397
aS'moved'
p2398
aS'to'
p2399
aS'the'
p2400
aS'bedroom'
p2401
asI389
(lp2402
S'Sandra'
p2403
aS'journeyed'
p2404
aS'to'
p2405
aS'the'
p2406
aS'hallway'
p2407
asI390
(lp2408
S'Daniel'
p2409
aS'travelled'
p2410
aS'to'
p2411
aS'the'
p2412
aS'garden'
p2413
asI391
(lp2414
S'Mary'
p2415
aS'travelled'
p2416
aS'to'
p2417
aS'the'
p2418
aS'hallway'
p2419
asI392
(lp2420
S'Sandra'
p2421
aS'went'
p2422
aS'to'
p2423
aS'the'
p2424
aS'garden'
p2425
asI393
(lp2426
S'Daniel'
p2427
aS'travelled'
p2428
aS'to'
p2429
aS'the'
p2430
aS'bedroom'
p2431
asI394
(lp2432
S'Mary'
p2433
aS'went'
p2434
aS'to'
p2435
aS'the'
p2436
aS'bedroom'
p2437
asI395
(lp2438
S'Daniel'
p2439
aS'moved'
p2440
aS'to'
p2441
aS'the'
p2442
aS'hallway'
p2443
asI396
(lp2444
S'John'
p2445
aS'travelled'
p2446
aS'to'
p2447
aS'the'
p2448
aS'bathroom'
p2449
asI397
(lp2450
S'Daniel'
p2451
aS'journeyed'
p2452
aS'to'
p2453
aS'the'
p2454
aS'bathroom'
p2455
asI398
(lp2456
S'John'
p2457
aS'journeyed'
p2458
aS'to'
p2459
aS'the'
p2460
aS'office'
p2461
asI399
(lp2462
S'Mary'
p2463
aS'went'
p2464
aS'back'
p2465
aS'to'
p2466
aS'the'
p2467
aS'garden'
p2468
asI400
(lp2469
S'John'
p2470
aS'went'
p2471
aS'to'
p2472
aS'the'
p2473
aS'kitchen'
p2474
asI401
(lp2475
S'Daniel'
p2476
aS'travelled'
p2477
aS'to'
p2478
aS'the'
p2479
aS'kitchen'
p2480
asI402
(lp2481
S'Daniel'
p2482
aS'journeyed'
p2483
aS'to'
p2484
aS'the'
p2485
aS'garden'
p2486
asI403
(lp2487
S'John'
p2488
aS'journeyed'
p2489
aS'to'
p2490
aS'the'
p2491
aS'office'
p2492
asI404
(lp2493
S'John'
p2494
aS'travelled'
p2495
aS'to'
p2496
aS'the'
p2497
aS'garden'
p2498
asI405
(lp2499
S'Daniel'
p2500
aS'moved'
p2501
aS'to'
p2502
aS'the'
p2503
aS'office'
p2504
asI406
(lp2505
S'John'
p2506
aS'went'
p2507
aS'to'
p2508
aS'the'
p2509
aS'hallway'
p2510
asI407
(lp2511
S'John'
p2512
aS'moved'
p2513
aS'to'
p2514
aS'the'
p2515
aS'office'
p2516
asI408
(lp2517
S'Daniel'
p2518
aS'journeyed'
p2519
aS'to'
p2520
aS'the'
p2521
aS'kitchen'
p2522
asI409
(lp2523
S'Daniel'
p2524
aS'went'
p2525
aS'to'
p2526
aS'the'
p2527
aS'garden'
p2528
asI410
(lp2529
S'John'
p2530
aS'went'
p2531
aS'back'
p2532
aS'to'
p2533
aS'the'
p2534
aS'bathroom'
p2535
asI411
(lp2536
S'Mary'
p2537
aS'went'
p2538
aS'to'
p2539
aS'the'
p2540
aS'bathroom'
p2541
asI412
(lp2542
S'John'
p2543
aS'went'
p2544
aS'to'
p2545
aS'the'
p2546
aS'kitchen'
p2547
asI413
(lp2548
S'Daniel'
p2549
aS'moved'
p2550
aS'to'
p2551
aS'the'
p2552
aS'office'
p2553
asI414
(lp2554
S'Daniel'
p2555
aS'moved'
p2556
aS'to'
p2557
aS'the'
p2558
aS'bathroom'
p2559
asI415
(lp2560
S'Sandra'
p2561
aS'travelled'
p2562
aS'to'
p2563
aS'the'
p2564
aS'bathroom'
p2565
asI416
(lp2566
S'Mary'
p2567
aS'travelled'
p2568
aS'to'
p2569
aS'the'
p2570
aS'kitchen'
p2571
asI417
(lp2572
S'Mary'
p2573
aS'went'
p2574
aS'to'
p2575
aS'the'
p2576
aS'garden'
p2577
asI418
(lp2578
S'Sandra'
p2579
aS'moved'
p2580
aS'to'
p2581
aS'the'
p2582
aS'bedroom'
p2583
asI419
(lp2584
S'Sandra'
p2585
aS'journeyed'
p2586
aS'to'
p2587
aS'the'
p2588
aS'kitchen'
p2589
asI420
(lp2590
S'Daniel'
p2591
aS'travelled'
p2592
aS'to'
p2593
aS'the'
p2594
aS'garden'
p2595
asI421
(lp2596
S'Daniel'
p2597
aS'moved'
p2598
aS'to'
p2599
aS'the'
p2600
aS'garden'
p2601
asI422
(lp2602
S'John'
p2603
aS'went'
p2604
aS'to'
p2605
aS'the'
p2606
aS'kitchen'
p2607
asI423
(lp2608
S'Mary'
p2609
aS'went'
p2610
aS'to'
p2611
aS'the'
p2612
aS'office'
p2613
asI424
(lp2614
S'Sandra'
p2615
aS'travelled'
p2616
aS'to'
p2617
aS'the'
p2618
aS'bedroom'
p2619
asI425
(lp2620
S'Mary'
p2621
aS'went'
p2622
aS'to'
p2623
aS'the'
p2624
aS'bathroom'
p2625
asI426
(lp2626
S'John'
p2627
aS'journeyed'
p2628
aS'to'
p2629
aS'the'
p2630
aS'bathroom'
p2631
asI427
(lp2632
S'Mary'
p2633
aS'went'
p2634
aS'back'
p2635
aS'to'
p2636
aS'the'
p2637
aS'office'
p2638
asI428
(lp2639
S'John'
p2640
aS'went'
p2641
aS'back'
p2642
aS'to'
p2643
aS'the'
p2644
aS'kitchen'
p2645
asI429
(lp2646
S'John'
p2647
aS'moved'
p2648
aS'to'
p2649
aS'the'
p2650
aS'office'
p2651
asI430
(lp2652
S'Mary'
p2653
aS'journeyed'
p2654
aS'to'
p2655
aS'the'
p2656
aS'bathroom'
p2657
asI431
(lp2658
S'Mary'
p2659
aS'travelled'
p2660
aS'to'
p2661
aS'the'
p2662
aS'kitchen'
p2663
asI432
(lp2664
S'Mary'
p2665
aS'moved'
p2666
aS'to'
p2667
aS'the'
p2668
aS'bedroom'
p2669
asI433
(lp2670
S'Mary'
p2671
aS'went'
p2672
aS'to'
p2673
aS'the'
p2674
aS'hallway'
p2675
asI434
(lp2676
S'Sandra'
p2677
aS'went'
p2678
aS'back'
p2679
aS'to'
p2680
aS'the'
p2681
aS'bathroom'
p2682
asI435
(lp2683
S'John'
p2684
aS'went'
p2685
aS'to'
p2686
aS'the'
p2687
aS'bedroom'
p2688
asI436
(lp2689
S'Daniel'
p2690
aS'travelled'
p2691
aS'to'
p2692
aS'the'
p2693
aS'garden'
p2694
asI437
(lp2695
S'Daniel'
p2696
aS'went'
p2697
aS'to'
p2698
aS'the'
p2699
aS'hallway'
p2700
asI438
(lp2701
S'Sandra'
p2702
aS'went'
p2703
aS'to'
p2704
aS'the'
p2705
aS'office'
p2706
asI439
(lp2707
S'Sandra'
p2708
aS'journeyed'
p2709
aS'to'
p2710
aS'the'
p2711
aS'bedroom'
p2712
asI440
(lp2713
S'John'
p2714
aS'travelled'
p2715
aS'to'
p2716
aS'the'
p2717
aS'bathroom'
p2718
asI441
(lp2719
S'John'
p2720
aS'journeyed'
p2721
aS'to'
p2722
aS'the'
p2723
aS'kitchen'
p2724
asI442
(lp2725
S'John'
p2726
aS'journeyed'
p2727
aS'to'
p2728
aS'the'
p2729
aS'garden'
p2730
asI443
(lp2731
S'Mary'
p2732
aS'went'
p2733
aS'back'
p2734
aS'to'
p2735
aS'the'
p2736
aS'bathroom'
p2737
asI444
(lp2738
S'Mary'
p2739
aS'moved'
p2740
aS'to'
p2741
aS'the'
p2742
aS'garden'
p2743
asI445
(lp2744
S'Daniel'
p2745
aS'travelled'
p2746
aS'to'
p2747
aS'the'
p2748
aS'bedroom'
p2749
asI446
(lp2750
S'John'
p2751
aS'moved'
p2752
aS'to'
p2753
aS'the'
p2754
aS'kitchen'
p2755
asI447
(lp2756
S'John'
p2757
aS'journeyed'
p2758
aS'to'
p2759
aS'the'
p2760
aS'hallway'
p2761
asI448
(lp2762
S'Mary'
p2763
aS'went'
p2764
aS'back'
p2765
aS'to'
p2766
aS'the'
p2767
aS'bathroom'
p2768
asI449
(lp2769
S'John'
p2770
aS'journeyed'
p2771
aS'to'
p2772
aS'the'
p2773
aS'bathroom'
p2774
asI450
(lp2775
S'Sandra'
p2776
aS'moved'
p2777
aS'to'
p2778
aS'the'
p2779
aS'kitchen'
p2780
asI451
(lp2781
S'Mary'
p2782
aS'journeyed'
p2783
aS'to'
p2784
aS'the'
p2785
aS'office'
p2786
asI452
(lp2787
S'Daniel'
p2788
aS'journeyed'
p2789
aS'to'
p2790
aS'the'
p2791
aS'bedroom'
p2792
asI453
(lp2793
S'Mary'
p2794
aS'went'
p2795
aS'to'
p2796
aS'the'
p2797
aS'bedroom'
p2798
asI454
(lp2799
S'Sandra'
p2800
aS'went'
p2801
aS'to'
p2802
aS'the'
p2803
aS'bedroom'
p2804
asI455
(lp2805
S'John'
p2806
aS'went'
p2807
aS'back'
p2808
aS'to'
p2809
aS'the'
p2810
aS'hallway'
p2811
asI456
(lp2812
S'Daniel'
p2813
aS'went'
p2814
aS'back'
p2815
aS'to'
p2816
aS'the'
p2817
aS'bathroom'
p2818
asI457
(lp2819
S'Mary'
p2820
aS'travelled'
p2821
aS'to'
p2822
aS'the'
p2823
aS'garden'
p2824
asI458
(lp2825
S'Daniel'
p2826
aS'moved'
p2827
aS'to'
p2828
aS'the'
p2829
aS'hallway'
p2830
asI459
(lp2831
S'Sandra'
p2832
aS'travelled'
p2833
aS'to'
p2834
aS'the'
p2835
aS'office'
p2836
asI460
(lp2837
S'Daniel'
p2838
aS'moved'
p2839
aS'to'
p2840
aS'the'
p2841
aS'bathroom'
p2842
asI461
(lp2843
S'Mary'
p2844
aS'moved'
p2845
aS'to'
p2846
aS'the'
p2847
aS'kitchen'
p2848
asI462
(lp2849
S'Sandra'
p2850
aS'moved'
p2851
aS'to'
p2852
aS'the'
p2853
aS'kitchen'
p2854
asI463
(lp2855
S'Mary'
p2856
aS'went'
p2857
aS'to'
p2858
aS'the'
p2859
aS'garden'
p2860
asI464
(lp2861
S'John'
p2862
aS'moved'
p2863
aS'to'
p2864
aS'the'
p2865
aS'bedroom'
p2866
asI465
(lp2867
S'Mary'
p2868
aS'journeyed'
p2869
aS'to'
p2870
aS'the'
p2871
aS'office'
p2872
asI466
(lp2873
S'Mary'
p2874
aS'went'
p2875
aS'to'
p2876
aS'the'
p2877
aS'bathroom'
p2878
asI467
(lp2879
S'Sandra'
p2880
aS'travelled'
p2881
aS'to'
p2882
aS'the'
p2883
aS'garden'
p2884
asI468
(lp2885
S'Daniel'
p2886
aS'went'
p2887
aS'back'
p2888
aS'to'
p2889
aS'the'
p2890
aS'hallway'
p2891
asI469
(lp2892
S'Daniel'
p2893
aS'went'
p2894
aS'to'
p2895
aS'the'
p2896
aS'bedroom'
p2897
asI470
(lp2898
S'Sandra'
p2899
aS'journeyed'
p2900
aS'to'
p2901
aS'the'
p2902
aS'hallway'
p2903
asI471
(lp2904
S'John'
p2905
aS'went'
p2906
aS'to'
p2907
aS'the'
p2908
aS'kitchen'
p2909
asI472
(lp2910
S'John'
p2911
aS'went'
p2912
aS'to'
p2913
aS'the'
p2914
aS'hallway'
p2915
asI473
(lp2916
S'John'
p2917
aS'travelled'
p2918
aS'to'
p2919
aS'the'
p2920
aS'bathroom'
p2921
asI474
(lp2922
S'Sandra'
p2923
aS'travelled'
p2924
aS'to'
p2925
aS'the'
p2926
aS'kitchen'
p2927
asI475
(lp2928
S'John'
p2929
aS'journeyed'
p2930
aS'to'
p2931
aS'the'
p2932
aS'garden'
p2933
asI476
(lp2934
S'Sandra'
p2935
aS'went'
p2936
aS'back'
p2937
aS'to'
p2938
aS'the'
p2939
aS'bedroom'
p2940
asI477
(lp2941
S'Mary'
p2942
aS'moved'
p2943
aS'to'
p2944
aS'the'
p2945
aS'hallway'
p2946
asI478
(lp2947
S'Mary'
p2948
aS'went'
p2949
aS'to'
p2950
aS'the'
p2951
aS'bedroom'
p2952
asI479
(lp2953
S'Mary'
p2954
aS'went'
p2955
aS'back'
p2956
aS'to'
p2957
aS'the'
p2958
aS'garden'
p2959
asI480
(lp2960
S'Sandra'
p2961
aS'travelled'
p2962
aS'to'
p2963
aS'the'
p2964
aS'hallway'
p2965
asI481
(lp2966
S'Daniel'
p2967
aS'went'
p2968
aS'back'
p2969
aS'to'
p2970
aS'the'
p2971
aS'bathroom'
p2972
asI482
(lp2973
S'Mary'
p2974
aS'journeyed'
p2975
aS'to'
p2976
aS'the'
p2977
aS'office'
p2978
asI483
(lp2979
S'Sandra'
p2980
aS'went'
p2981
aS'back'
p2982
aS'to'
p2983
aS'the'
p2984
aS'garden'
p2985
asI484
(lp2986
S'Daniel'
p2987
aS'moved'
p2988
aS'to'
p2989
aS'the'
p2990
aS'garden'
p2991
asI485
(lp2992
S'Daniel'
p2993
aS'journeyed'
p2994
aS'to'
p2995
aS'the'
p2996
aS'hallway'
p2997
asI486
(lp2998
S'John'
p2999
aS'moved'
p3000
aS'to'
p3001
aS'the'
p3002
aS'garden'
p3003
asI487
(lp3004
S'Sandra'
p3005
aS'went'
p3006
aS'back'
p3007
aS'to'
p3008
aS'the'
p3009
aS'hallway'
p3010
asI488
(lp3011
S'Mary'
p3012
aS'went'
p3013
aS'back'
p3014
aS'to'
p3015
aS'the'
p3016
aS'bedroom'
p3017
asI489
(lp3018
S'John'
p3019
aS'journeyed'
p3020
aS'to'
p3021
aS'the'
p3022
aS'office'
p3023
asI490
(lp3024
S'John'
p3025
aS'went'
p3026
aS'to'
p3027
aS'the'
p3028
aS'bathroom'
p3029
asI491
(lp3030
S'Sandra'
p3031
aS'moved'
p3032
aS'to'
p3033
aS'the'
p3034
aS'bathroom'
p3035
asI492
(lp3036
S'Daniel'
p3037
aS'journeyed'
p3038
aS'to'
p3039
aS'the'
p3040
aS'garden'
p3041
asI493
(lp3042
S'Mary'
p3043
aS'journeyed'
p3044
aS'to'
p3045
aS'the'
p3046
aS'bathroom'
p3047
asI494
(lp3048
S'Sandra'
p3049
aS'moved'
p3050
aS'to'
p3051
aS'the'
p3052
aS'hallway'
p3053
asI495
(lp3054
S'Daniel'
p3055
aS'moved'
p3056
aS'to'
p3057
aS'the'
p3058
aS'office'
p3059
asI496
(lp3060
S'Daniel'
p3061
aS'went'
p3062
aS'to'
p3063
aS'the'
p3064
aS'garden'
p3065
asI497
(lp3066
S'John'
p3067
aS'travelled'
p3068
aS'to'
p3069
aS'the'
p3070
aS'bathroom'
p3071
asI498
(lp3072
S'Mary'
p3073
aS'moved'
p3074
aS'to'
p3075
aS'the'
p3076
aS'bedroom'
p3077
asI499
(lp3078
S'Sandra'
p3079
aS'went'
p3080
aS'back'
p3081
aS'to'
p3082
aS'the'
p3083
aS'bathroom'
p3084
asI500
(lp3085
S'Sandra'
p3086
aS'went'
p3087
aS'to'
p3088
aS'the'
p3089
aS'garden'
p3090
asI501
(lp3091
S'John'
p3092
aS'journeyed'
p3093
aS'to'
p3094
aS'the'
p3095
aS'hallway'
p3096
asI502
(lp3097
S'Daniel'
p3098
aS'journeyed'
p3099
aS'to'
p3100
aS'the'
p3101
aS'hallway'
p3102
asI503
(lp3103
S'Daniel'
p3104
aS'went'
p3105
aS'to'
p3106
aS'the'
p3107
aS'office'
p3108
asI504
(lp3109
S'Sandra'
p3110
aS'moved'
p3111
aS'to'
p3112
aS'the'
p3113
aS'bedroom'
p3114
asI505
(lp3115
S'John'
p3116
aS'went'
p3117
aS'to'
p3118
aS'the'
p3119
aS'bedroom'
p3120
asI506
(lp3121
S'Daniel'
p3122
aS'went'
p3123
aS'back'
p3124
aS'to'
p3125
aS'the'
p3126
aS'kitchen'
p3127
asI507
(lp3128
S'John'
p3129
aS'journeyed'
p3130
aS'to'
p3131
aS'the'
p3132
aS'kitchen'
p3133
asI508
(lp3134
S'Mary'
p3135
aS'went'
p3136
aS'to'
p3137
aS'the'
p3138
aS'hallway'
p3139
asI509
(lp3140
S'Sandra'
p3141
aS'went'
p3142
aS'back'
p3143
aS'to'
p3144
aS'the'
p3145
aS'bathroom'
p3146
asI510
(lp3147
S'Mary'
p3148
aS'went'
p3149
aS'to'
p3150
aS'the'
p3151
aS'office'
p3152
asI511
(lp3153
S'Daniel'
p3154
aS'journeyed'
p3155
aS'to'
p3156
aS'the'
p3157
aS'office'
p3158
asI512
(lp3159
S'Mary'
p3160
aS'went'
p3161
aS'back'
p3162
aS'to'
p3163
aS'the'
p3164
aS'garden'
p3165
asI513
(lp3166
S'Daniel'
p3167
aS'went'
p3168
aS'back'
p3169
aS'to'
p3170
aS'the'
p3171
aS'garden'
p3172
asI514
(lp3173
S'John'
p3174
aS'moved'
p3175
aS'to'
p3176
aS'the'
p3177
aS'hallway'
p3178
asI515
(lp3179
S'John'
p3180
aS'travelled'
p3181
aS'to'
p3182
aS'the'
p3183
aS'bathroom'
p3184
asI516
(lp3185
S'Mary'
p3186
aS'moved'
p3187
aS'to'
p3188
aS'the'
p3189
aS'kitchen'
p3190
asI517
(lp3191
S'Daniel'
p3192
aS'travelled'
p3193
aS'to'
p3194
aS'the'
p3195
aS'bathroom'
p3196
asI518
(lp3197
S'Sandra'
p3198
aS'journeyed'
p3199
aS'to'
p3200
aS'the'
p3201
aS'bedroom'
p3202
asI519
(lp3203
S'Daniel'
p3204
aS'journeyed'
p3205
aS'to'
p3206
aS'the'
p3207
aS'garden'
p3208
asI520
(lp3209
S'Sandra'
p3210
aS'travelled'
p3211
aS'to'
p3212
aS'the'
p3213
aS'office'
p3214
asI521
(lp3215
S'Daniel'
p3216
aS'went'
p3217
aS'back'
p3218
aS'to'
p3219
aS'the'
p3220
aS'bathroom'
p3221
asI522
(lp3222
S'John'
p3223
aS'moved'
p3224
aS'to'
p3225
aS'the'
p3226
aS'bathroom'
p3227
asI523
(lp3228
S'Mary'
p3229
aS'journeyed'
p3230
aS'to'
p3231
aS'the'
p3232
aS'bathroom'
p3233
asI524
(lp3234
S'Sandra'
p3235
aS'went'
p3236
aS'to'
p3237
aS'the'
p3238
aS'kitchen'
p3239
asI525
(lp3240
S'Mary'
p3241
aS'went'
p3242
aS'back'
p3243
aS'to'
p3244
aS'the'
p3245
aS'kitchen'
p3246
asI526
(lp3247
S'Daniel'
p3248
aS'travelled'
p3249
aS'to'
p3250
aS'the'
p3251
aS'office'
p3252
asI527
(lp3253
S'Sandra'
p3254
aS'went'
p3255
aS'back'
p3256
aS'to'
p3257
aS'the'
p3258
aS'office'
p3259
asI528
(lp3260
S'Mary'
p3261
aS'went'
p3262
aS'back'
p3263
aS'to'
p3264
aS'the'
p3265
aS'garden'
p3266
asI529
(lp3267
S'Mary'
p3268
aS'moved'
p3269
aS'to'
p3270
aS'the'
p3271
aS'bedroom'
p3272
asI530
(lp3273
S'Daniel'
p3274
aS'moved'
p3275
aS'to'
p3276
aS'the'
p3277
aS'hallway'
p3278
asI531
(lp3279
S'Sandra'
p3280
aS'went'
p3281
aS'to'
p3282
aS'the'
p3283
aS'hallway'
p3284
asI532
(lp3285
S'Sandra'
p3286
aS'journeyed'
p3287
aS'to'
p3288
aS'the'
p3289
aS'kitchen'
p3290
asI533
(lp3291
S'Sandra'
p3292
aS'travelled'
p3293
aS'to'
p3294
aS'the'
p3295
aS'garden'
p3296
asI534
(lp3297
S'Mary'
p3298
aS'journeyed'
p3299
aS'to'
p3300
aS'the'
p3301
aS'garden'
p3302
asI535
(lp3303
S'Daniel'
p3304
aS'went'
p3305
aS'back'
p3306
aS'to'
p3307
aS'the'
p3308
aS'bathroom'
p3309
asI536
(lp3310
S'Daniel'
p3311
aS'went'
p3312
aS'to'
p3313
aS'the'
p3314
aS'garden'
p3315
asI537
(lp3316
S'John'
p3317
aS'went'
p3318
aS'back'
p3319
aS'to'
p3320
aS'the'
p3321
aS'garden'
p3322
asI538
(lp3323
S'John'
p3324
aS'travelled'
p3325
aS'to'
p3326
aS'the'
p3327
aS'bedroom'
p3328
asI539
(lp3329
S'Mary'
p3330
aS'went'
p3331
aS'to'
p3332
aS'the'
p3333
aS'kitchen'
p3334
asI540
(lp3335
S'Sandra'
p3336
aS'moved'
p3337
aS'to'
p3338
aS'the'
p3339
aS'hallway'
p3340
asI541
(lp3341
S'John'
p3342
aS'went'
p3343
aS'back'
p3344
aS'to'
p3345
aS'the'
p3346
aS'garden'
p3347
asI542
(lp3348
S'Sandra'
p3349
aS'went'
p3350
aS'back'
p3351
aS'to'
p3352
aS'the'
p3353
aS'bedroom'
p3354
asI543
(lp3355
S'Sandra'
p3356
aS'went'
p3357
aS'to'
p3358
aS'the'
p3359
aS'bathroom'
p3360
asI544
(lp3361
S'John'
p3362
aS'went'
p3363
aS'back'
p3364
aS'to'
p3365
aS'the'
p3366
aS'kitchen'
p3367
asI545
(lp3368
S'Mary'
p3369
aS'went'
p3370
aS'back'
p3371
aS'to'
p3372
aS'the'
p3373
aS'hallway'
p3374
asI546
(lp3375
S'Daniel'
p3376
aS'travelled'
p3377
aS'to'
p3378
aS'the'
p3379
aS'kitchen'
p3380
asI547
(lp3381
S'Sandra'
p3382
aS'went'
p3383
aS'back'
p3384
aS'to'
p3385
aS'the'
p3386
aS'bedroom'
p3387
asI548
(lp3388
S'Sandra'
p3389
aS'went'
p3390
aS'to'
p3391
aS'the'
p3392
aS'office'
p3393
asI549
(lp3394
S'Sandra'
p3395
aS'went'
p3396
aS'to'
p3397
aS'the'
p3398
aS'kitchen'
p3399
asI550
(lp3400
S'Daniel'
p3401
aS'travelled'
p3402
aS'to'
p3403
aS'the'
p3404
aS'hallway'
p3405
asI551
(lp3406
S'Sandra'
p3407
aS'journeyed'
p3408
aS'to'
p3409
aS'the'
p3410
aS'office'
p3411
asI552
(lp3412
S'John'
p3413
aS'moved'
p3414
aS'to'
p3415
aS'the'
p3416
aS'bathroom'
p3417
asI553
(lp3418
S'Daniel'
p3419
aS'moved'
p3420
aS'to'
p3421
aS'the'
p3422
aS'hallway'
p3423
asI554
(lp3424
S'John'
p3425
aS'moved'
p3426
aS'to'
p3427
aS'the'
p3428
aS'hallway'
p3429
asI555
(lp3430
S'John'
p3431
aS'travelled'
p3432
aS'to'
p3433
aS'the'
p3434
aS'kitchen'
p3435
asI556
(lp3436
S'John'
p3437
aS'went'
p3438
aS'to'
p3439
aS'the'
p3440
aS'bedroom'
p3441
asI557
(lp3442
S'Daniel'
p3443
aS'journeyed'
p3444
aS'to'
p3445
aS'the'
p3446
aS'kitchen'
p3447
asI558
(lp3448
S'John'
p3449
aS'journeyed'
p3450
aS'to'
p3451
aS'the'
p3452
aS'kitchen'
p3453
asI559
(lp3454
S'John'
p3455
aS'travelled'
p3456
aS'to'
p3457
aS'the'
p3458
aS'bathroom'
p3459
asI560
(lp3460
S'John'
p3461
aS'travelled'
p3462
aS'to'
p3463
aS'the'
p3464
aS'kitchen'
p3465
asI561
(lp3466
S'Mary'
p3467
aS'moved'
p3468
aS'to'
p3469
aS'the'
p3470
aS'hallway'
p3471
asI562
(lp3472
S'John'
p3473
aS'travelled'
p3474
aS'to'
p3475
aS'the'
p3476
aS'hallway'
p3477
asI563
(lp3478
S'Daniel'
p3479
aS'travelled'
p3480
aS'to'
p3481
aS'the'
p3482
aS'bedroom'
p3483
asI564
(lp3484
S'Daniel'
p3485
aS'went'
p3486
aS'to'
p3487
aS'the'
p3488
aS'garden'
p3489
asI565
(lp3490
S'John'
p3491
aS'went'
p3492
aS'back'
p3493
aS'to'
p3494
aS'the'
p3495
aS'bathroom'
p3496
asI566
(lp3497
S'Sandra'
p3498
aS'moved'
p3499
aS'to'
p3500
aS'the'
p3501
aS'hallway'
p3502
asI567
(lp3503
S'Daniel'
p3504
aS'moved'
p3505
aS'to'
p3506
aS'the'
p3507
aS'hallway'
p3508
asI568
(lp3509
S'Mary'
p3510
aS'went'
p3511
aS'to'
p3512
aS'the'
p3513
aS'office'
p3514
asI569
(lp3515
S'Mary'
p3516
aS'journeyed'
p3517
aS'to'
p3518
aS'the'
p3519
aS'garden'
p3520
asI570
(lp3521
S'John'
p3522
aS'went'
p3523
aS'to'
p3524
aS'the'
p3525
aS'hallway'
p3526
asI571
(lp3527
S'John'
p3528
aS'journeyed'
p3529
aS'to'
p3530
aS'the'
p3531
aS'bathroom'
p3532
asI572
(lp3533
S'Daniel'
p3534
aS'went'
p3535
aS'back'
p3536
aS'to'
p3537
aS'the'
p3538
aS'kitchen'
p3539
asI573
(lp3540
S'John'
p3541
aS'journeyed'
p3542
aS'to'
p3543
aS'the'
p3544
aS'office'
p3545
asI574
(lp3546
S'Sandra'
p3547
aS'travelled'
p3548
aS'to'
p3549
aS'the'
p3550
aS'bedroom'
p3551
asI575
(lp3552
S'Daniel'
p3553
aS'moved'
p3554
aS'to'
p3555
aS'the'
p3556
aS'bathroom'
p3557
asI576
(lp3558
S'Daniel'
p3559
aS'went'
p3560
aS'to'
p3561
aS'the'
p3562
aS'hallway'
p3563
asI577
(lp3564
S'Mary'
p3565
aS'went'
p3566
aS'back'
p3567
aS'to'
p3568
aS'the'
p3569
aS'office'
p3570
asI578
(lp3571
S'Mary'
p3572
aS'went'
p3573
aS'to'
p3574
aS'the'
p3575
aS'bathroom'
p3576
asI579
(lp3577
S'Mary'
p3578
aS'journeyed'
p3579
aS'to'
p3580
aS'the'
p3581
aS'kitchen'
p3582
asI580
(lp3583
S'Mary'
p3584
aS'moved'
p3585
aS'to'
p3586
aS'the'
p3587
aS'bedroom'
p3588
asI581
(lp3589
S'Mary'
p3590
aS'journeyed'
p3591
aS'to'
p3592
aS'the'
p3593
aS'bathroom'
p3594
asI582
(lp3595
S'Mary'
p3596
aS'moved'
p3597
aS'to'
p3598
aS'the'
p3599
aS'hallway'
p3600
asI583
(lp3601
S'Daniel'
p3602
aS'moved'
p3603
aS'to'
p3604
aS'the'
p3605
aS'bathroom'
p3606
asI584
(lp3607
S'Sandra'
p3608
aS'went'
p3609
aS'back'
p3610
aS'to'
p3611
aS'the'
p3612
aS'bathroom'
p3613
asI585
(lp3614
S'Sandra'
p3615
aS'went'
p3616
aS'to'
p3617
aS'the'
p3618
aS'kitchen'
p3619
asI586
(lp3620
S'Mary'
p3621
aS'travelled'
p3622
aS'to'
p3623
aS'the'
p3624
aS'kitchen'
p3625
asI587
(lp3626
S'Daniel'
p3627
aS'journeyed'
p3628
aS'to'
p3629
aS'the'
p3630
aS'kitchen'
p3631
asI588
(lp3632
S'Sandra'
p3633
aS'went'
p3634
aS'to'
p3635
aS'the'
p3636
aS'garden'
p3637
asI589
(lp3638
S'Daniel'
p3639
aS'went'
p3640
aS'to'
p3641
aS'the'
p3642
aS'bedroom'
p3643
asI590
(lp3644
S'Sandra'
p3645
aS'went'
p3646
aS'to'
p3647
aS'the'
p3648
aS'bathroom'
p3649
asI591
(lp3650
S'Mary'
p3651
aS'travelled'
p3652
aS'to'
p3653
aS'the'
p3654
aS'garden'
p3655
asI592
(lp3656
S'John'
p3657
aS'journeyed'
p3658
aS'to'
p3659
aS'the'
p3660
aS'bathroom'
p3661
asI593
(lp3662
S'Mary'
p3663
aS'journeyed'
p3664
aS'to'
p3665
aS'the'
p3666
aS'kitchen'
p3667
asI594
(lp3668
S'John'
p3669
aS'travelled'
p3670
aS'to'
p3671
aS'the'
p3672
aS'kitchen'
p3673
asI595
(lp3674
S'Mary'
p3675
aS'moved'
p3676
aS'to'
p3677
aS'the'
p3678
aS'bedroom'
p3679
asI596
(lp3680
S'Mary'
p3681
aS'travelled'
p3682
aS'to'
p3683
aS'the'
p3684
aS'garden'
p3685
asI597
(lp3686
S'John'
p3687
aS'went'
p3688
aS'back'
p3689
aS'to'
p3690
aS'the'
p3691
aS'bedroom'
p3692
asI598
(lp3693
S'Daniel'
p3694
aS'went'
p3695
aS'back'
p3696
aS'to'
p3697
aS'the'
p3698
aS'bedroom'
p3699
asI599
(lp3700
S'John'
p3701
aS'went'
p3702
aS'back'
p3703
aS'to'
p3704
aS'the'
p3705
aS'kitchen'
p3706
asI600
(lp3707
S'Mary'
p3708
aS'went'
p3709
aS'to'
p3710
aS'the'
p3711
aS'bedroom'
p3712
asI601
(lp3713
S'Mary'
p3714
aS'went'
p3715
aS'back'
p3716
aS'to'
p3717
aS'the'
p3718
aS'bedroom'
p3719
asI602
(lp3720
S'Daniel'
p3721
aS'travelled'
p3722
aS'to'
p3723
aS'the'
p3724
aS'office'
p3725
asI603
(lp3726
S'Mary'
p3727
aS'journeyed'
p3728
aS'to'
p3729
aS'the'
p3730
aS'hallway'
p3731
asI604
(lp3732
S'Sandra'
p3733
aS'went'
p3734
aS'back'
p3735
aS'to'
p3736
aS'the'
p3737
aS'garden'
p3738
asI605
(lp3739
S'Mary'
p3740
aS'moved'
p3741
aS'to'
p3742
aS'the'
p3743
aS'garden'
p3744
asI606
(lp3745
S'Daniel'
p3746
aS'moved'
p3747
aS'to'
p3748
aS'the'
p3749
aS'kitchen'
p3750
asI607
(lp3751
S'John'
p3752
aS'went'
p3753
aS'to'
p3754
aS'the'
p3755
aS'office'
p3756
asI608
(lp3757
S'Sandra'
p3758
aS'journeyed'
p3759
aS'to'
p3760
aS'the'
p3761
aS'office'
p3762
asI609
(lp3763
S'John'
p3764
aS'travelled'
p3765
aS'to'
p3766
aS'the'
p3767
aS'hallway'
p3768
asI610
(lp3769
S'Sandra'
p3770
aS'travelled'
p3771
aS'to'
p3772
aS'the'
p3773
aS'bathroom'
p3774
asI611
(lp3775
S'Sandra'
p3776
aS'journeyed'
p3777
aS'to'
p3778
aS'the'
p3779
aS'bathroom'
p3780
asI612
(lp3781
S'John'
p3782
aS'went'
p3783
aS'to'
p3784
aS'the'
p3785
aS'hallway'
p3786
asI613
(lp3787
S'Mary'
p3788
aS'travelled'
p3789
aS'to'
p3790
aS'the'
p3791
aS'garden'
p3792
asI614
(lp3793
S'Mary'
p3794
aS'went'
p3795
aS'back'
p3796
aS'to'
p3797
aS'the'
p3798
aS'kitchen'
p3799
asI615
(lp3800
S'Daniel'
p3801
aS'travelled'
p3802
aS'to'
p3803
aS'the'
p3804
aS'bathroom'
p3805
asI616
(lp3806
S'John'
p3807
aS'moved'
p3808
aS'to'
p3809
aS'the'
p3810
aS'garden'
p3811
asI617
(lp3812
S'Daniel'
p3813
aS'moved'
p3814
aS'to'
p3815
aS'the'
p3816
aS'kitchen'
p3817
asI618
(lp3818
S'Sandra'
p3819
aS'journeyed'
p3820
aS'to'
p3821
aS'the'
p3822
aS'hallway'
p3823
asI619
(lp3824
S'Daniel'
p3825
aS'moved'
p3826
aS'to'
p3827
aS'the'
p3828
aS'bedroom'
p3829
asI620
(lp3830
S'John'
p3831
aS'went'
p3832
aS'back'
p3833
aS'to'
p3834
aS'the'
p3835
aS'office'
p3836
asI621
(lp3837
S'John'
p3838
aS'went'
p3839
aS'back'
p3840
aS'to'
p3841
aS'the'
p3842
aS'kitchen'
p3843
asI622
(lp3844
S'John'
p3845
aS'moved'
p3846
aS'to'
p3847
aS'the'
p3848
aS'office'
p3849
asI623
(lp3850
S'John'
p3851
aS'journeyed'
p3852
aS'to'
p3853
aS'the'
p3854
aS'garden'
p3855
asI624
(lp3856
S'Sandra'
p3857
aS'journeyed'
p3858
aS'to'
p3859
aS'the'
p3860
aS'bedroom'
p3861
asI625
(lp3862
S'Mary'
p3863
aS'went'
p3864
aS'back'
p3865
aS'to'
p3866
aS'the'
p3867
aS'garden'
p3868
asI626
(lp3869
S'John'
p3870
aS'journeyed'
p3871
aS'to'
p3872
aS'the'
p3873
aS'bedroom'
p3874
asI627
(lp3875
S'John'
p3876
aS'went'
p3877
aS'to'
p3878
aS'the'
p3879
aS'hallway'
p3880
asI628
(lp3881
S'Sandra'
p3882
aS'went'
p3883
aS'back'
p3884
aS'to'
p3885
aS'the'
p3886
aS'hallway'
p3887
asI629
(lp3888
S'John'
p3889
aS'journeyed'
p3890
aS'to'
p3891
aS'the'
p3892
aS'bathroom'
p3893
asI630
(lp3894
S'Mary'
p3895
aS'went'
p3896
aS'to'
p3897
aS'the'
p3898
aS'hallway'
p3899
asI631
(lp3900
S'John'
p3901
aS'went'
p3902
aS'back'
p3903
aS'to'
p3904
aS'the'
p3905
aS'bedroom'
p3906
asI632
(lp3907
S'John'
p3908
aS'moved'
p3909
aS'to'
p3910
aS'the'
p3911
aS'kitchen'
p3912
asI633
(lp3913
S'John'
p3914
aS'journeyed'
p3915
aS'to'
p3916
aS'the'
p3917
aS'garden'
p3918
asI634
(lp3919
S'Mary'
p3920
aS'went'
p3921
aS'back'
p3922
aS'to'
p3923
aS'the'
p3924
aS'hallway'
p3925
asI635
(lp3926
S'Daniel'
p3927
aS'went'
p3928
aS'back'
p3929
aS'to'
p3930
aS'the'
p3931
aS'bedroom'
p3932
asI636
(lp3933
S'John'
p3934
aS'went'
p3935
aS'to'
p3936
aS'the'
p3937
aS'bedroom'
p3938
asI637
(lp3939
S'Sandra'
p3940
aS'travelled'
p3941
aS'to'
p3942
aS'the'
p3943
aS'garden'
p3944
asI638
(lp3945
S'Daniel'
p3946
aS'went'
p3947
aS'back'
p3948
aS'to'
p3949
aS'the'
p3950
aS'office'
p3951
asI639
(lp3952
S'Mary'
p3953
aS'went'
p3954
aS'back'
p3955
aS'to'
p3956
aS'the'
p3957
aS'bedroom'
p3958
asI640
(lp3959
S'Daniel'
p3960
aS'journeyed'
p3961
aS'to'
p3962
aS'the'
p3963
aS'kitchen'
p3964
asI641
(lp3965
S'Mary'
p3966
aS'went'
p3967
aS'to'
p3968
aS'the'
p3969
aS'garden'
p3970
asI642
(lp3971
S'Daniel'
p3972
aS'journeyed'
p3973
aS'to'
p3974
aS'the'
p3975
aS'bathroom'
p3976
asI643
(lp3977
S'John'
p3978
aS'went'
p3979
aS'to'
p3980
aS'the'
p3981
aS'office'
p3982
asI644
(lp3983
S'Mary'
p3984
aS'moved'
p3985
aS'to'
p3986
aS'the'
p3987
aS'hallway'
p3988
asI645
(lp3989
S'John'
p3990
aS'went'
p3991
aS'to'
p3992
aS'the'
p3993
aS'bathroom'
p3994
asI646
(lp3995
S'Daniel'
p3996
aS'moved'
p3997
aS'to'
p3998
aS'the'
p3999
aS'kitchen'
p4000
asI647
(lp4001
S'John'
p4002
aS'went'
p4003
aS'to'
p4004
aS'the'
p4005
aS'kitchen'
p4006
asI648
(lp4007
S'Daniel'
p4008
aS'went'
p4009
aS'to'
p4010
aS'the'
p4011
aS'bedroom'
p4012
asI649
(lp4013
S'Mary'
p4014
aS'went'
p4015
aS'to'
p4016
aS'the'
p4017
aS'kitchen'
p4018
asI650
(lp4019
S'Sandra'
p4020
aS'journeyed'
p4021
aS'to'
p4022
aS'the'
p4023
aS'garden'
p4024
asI651
(lp4025
S'Daniel'
p4026
aS'went'
p4027
aS'back'
p4028
aS'to'
p4029
aS'the'
p4030
aS'kitchen'
p4031
asI652
(lp4032
S'Daniel'
p4033
aS'moved'
p4034
aS'to'
p4035
aS'the'
p4036
aS'garden'
p4037
asI653
(lp4038
S'Sandra'
p4039
aS'journeyed'
p4040
aS'to'
p4041
aS'the'
p4042
aS'bedroom'
p4043
asI654
(lp4044
S'Mary'
p4045
aS'moved'
p4046
aS'to'
p4047
aS'the'
p4048
aS'bathroom'
p4049
asI655
(lp4050
S'John'
p4051
aS'went'
p4052
aS'back'
p4053
aS'to'
p4054
aS'the'
p4055
aS'office'
p4056
asI656
(lp4057
S'Daniel'
p4058
aS'went'
p4059
aS'back'
p4060
aS'to'
p4061
aS'the'
p4062
aS'bathroom'
p4063
asI657
(lp4064
S'Daniel'
p4065
aS'travelled'
p4066
aS'to'
p4067
aS'the'
p4068
aS'bedroom'
p4069
asI658
(lp4070
S'Sandra'
p4071
aS'went'
p4072
aS'to'
p4073
aS'the'
p4074
aS'bathroom'
p4075
asI659
(lp4076
S'Daniel'
p4077
aS'went'
p4078
aS'back'
p4079
aS'to'
p4080
aS'the'
p4081
aS'hallway'
p4082
asI660
(lp4083
S'Sandra'
p4084
aS'travelled'
p4085
aS'to'
p4086
aS'the'
p4087
aS'kitchen'
p4088
asI661
(lp4089
S'Sandra'
p4090
aS'moved'
p4091
aS'to'
p4092
aS'the'
p4093
aS'bedroom'
p4094
asI662
(lp4095
S'Mary'
p4096
aS'journeyed'
p4097
aS'to'
p4098
aS'the'
p4099
aS'bedroom'
p4100
asI663
(lp4101
S'Mary'
p4102
aS'moved'
p4103
aS'to'
p4104
aS'the'
p4105
aS'bathroom'
p4106
asI664
(lp4107
S'Daniel'
p4108
aS'travelled'
p4109
aS'to'
p4110
aS'the'
p4111
aS'bedroom'
p4112
asI665
(lp4113
S'Mary'
p4114
aS'moved'
p4115
aS'to'
p4116
aS'the'
p4117
aS'bedroom'
p4118
asI666
(lp4119
S'Sandra'
p4120
aS'went'
p4121
aS'to'
p4122
aS'the'
p4123
aS'kitchen'
p4124
asI667
(lp4125
S'Sandra'
p4126
aS'went'
p4127
aS'to'
p4128
aS'the'
p4129
aS'garden'
p4130
asI668
(lp4131
S'Daniel'
p4132
aS'moved'
p4133
aS'to'
p4134
aS'the'
p4135
aS'kitchen'
p4136
asI669
(lp4137
S'Sandra'
p4138
aS'went'
p4139
aS'back'
p4140
aS'to'
p4141
aS'the'
p4142
aS'bedroom'
p4143
asI670
(lp4144
S'Sandra'
p4145
aS'went'
p4146
aS'to'
p4147
aS'the'
p4148
aS'hallway'
p4149
asI671
(lp4150
S'John'
p4151
aS'journeyed'
p4152
aS'to'
p4153
aS'the'
p4154
aS'bedroom'
p4155
asI672
(lp4156
S'Daniel'
p4157
aS'moved'
p4158
aS'to'
p4159
aS'the'
p4160
aS'office'
p4161
asI673
(lp4162
S'John'
p4163
aS'went'
p4164
aS'to'
p4165
aS'the'
p4166
aS'hallway'
p4167
asI674
(lp4168
S'John'
p4169
aS'journeyed'
p4170
aS'to'
p4171
aS'the'
p4172
aS'kitchen'
p4173
asI675
(lp4174
S'Mary'
p4175
aS'went'
p4176
aS'to'
p4177
aS'the'
p4178
aS'office'
p4179
asI676
(lp4180
S'Daniel'
p4181
aS'went'
p4182
aS'back'
p4183
aS'to'
p4184
aS'the'
p4185
aS'bedroom'
p4186
asI677
(lp4187
S'Daniel'
p4188
aS'moved'
p4189
aS'to'
p4190
aS'the'
p4191
aS'hallway'
p4192
asI678
(lp4193
S'John'
p4194
aS'went'
p4195
aS'to'
p4196
aS'the'
p4197
aS'bedroom'
p4198
asI679
(lp4199
S'Sandra'
p4200
aS'moved'
p4201
aS'to'
p4202
aS'the'
p4203
aS'kitchen'
p4204
asI680
(lp4205
S'Daniel'
p4206
aS'moved'
p4207
aS'to'
p4208
aS'the'
p4209
aS'office'
p4210
asI681
(lp4211
S'Mary'
p4212
aS'journeyed'
p4213
aS'to'
p4214
aS'the'
p4215
aS'office'
p4216
asI682
(lp4217
S'Daniel'
p4218
aS'went'
p4219
aS'to'
p4220
aS'the'
p4221
aS'bedroom'
p4222
asI683
(lp4223
S'Daniel'
p4224
aS'journeyed'
p4225
aS'to'
p4226
aS'the'
p4227
aS'bathroom'
p4228
asI684
(lp4229
S'Sandra'
p4230
aS'went'
p4231
aS'to'
p4232
aS'the'
p4233
aS'bedroom'
p4234
asI685
(lp4235
S'Mary'
p4236
aS'journeyed'
p4237
aS'to'
p4238
aS'the'
p4239
aS'hallway'
p4240
asI686
(lp4241
S'Daniel'
p4242
aS'travelled'
p4243
aS'to'
p4244
aS'the'
p4245
aS'kitchen'
p4246
asI687
(lp4247
S'Sandra'
p4248
aS'journeyed'
p4249
aS'to'
p4250
aS'the'
p4251
aS'bathroom'
p4252
asI688
(lp4253
S'Sandra'
p4254
aS'moved'
p4255
aS'to'
p4256
aS'the'
p4257
aS'bedroom'
p4258
asI689
(lp4259
S'John'
p4260
aS'moved'
p4261
aS'to'
p4262
aS'the'
p4263
aS'garden'
p4264
asI690
(lp4265
S'Daniel'
p4266
aS'travelled'
p4267
aS'to'
p4268
aS'the'
p4269
aS'bathroom'
p4270
asI691
(lp4271
S'John'
p4272
aS'journeyed'
p4273
aS'to'
p4274
aS'the'
p4275
aS'garden'
p4276
asI692
(lp4277
S'John'
p4278
aS'travelled'
p4279
aS'to'
p4280
aS'the'
p4281
aS'office'
p4282
asI693
(lp4283
S'Mary'
p4284
aS'travelled'
p4285
aS'to'
p4286
aS'the'
p4287
aS'hallway'
p4288
asI694
(lp4289
S'John'
p4290
aS'journeyed'
p4291
aS'to'
p4292
aS'the'
p4293
aS'bedroom'
p4294
asI695
(lp4295
S'Daniel'
p4296
aS'moved'
p4297
aS'to'
p4298
aS'the'
p4299
aS'garden'
p4300
asI696
(lp4301
S'Mary'
p4302
aS'journeyed'
p4303
aS'to'
p4304
aS'the'
p4305
aS'bedroom'
p4306
asI697
(lp4307
S'Daniel'
p4308
aS'went'
p4309
aS'to'
p4310
aS'the'
p4311
aS'office'
p4312
asI698
(lp4313
S'Daniel'
p4314
aS'journeyed'
p4315
aS'to'
p4316
aS'the'
p4317
aS'kitchen'
p4318
asI699
(lp4319
S'John'
p4320
aS'travelled'
p4321
aS'to'
p4322
aS'the'
p4323
aS'hallway'
p4324
asI700
(lp4325
S'Daniel'
p4326
aS'went'
p4327
aS'back'
p4328
aS'to'
p4329
aS'the'
p4330
aS'garden'
p4331
asI701
(lp4332
S'Daniel'
p4333
aS'journeyed'
p4334
aS'to'
p4335
aS'the'
p4336
aS'garden'
p4337
asI702
(lp4338
S'John'
p4339
aS'moved'
p4340
aS'to'
p4341
aS'the'
p4342
aS'garden'
p4343
asI703
(lp4344
S'Daniel'
p4345
aS'travelled'
p4346
aS'to'
p4347
aS'the'
p4348
aS'bathroom'
p4349
asI704
(lp4350
S'Sandra'
p4351
aS'went'
p4352
aS'back'
p4353
aS'to'
p4354
aS'the'
p4355
aS'garden'
p4356
asI705
(lp4357
S'Daniel'
p4358
aS'went'
p4359
aS'back'
p4360
aS'to'
p4361
aS'the'
p4362
aS'office'
p4363
asI706
(lp4364
S'Mary'
p4365
aS'journeyed'
p4366
aS'to'
p4367
aS'the'
p4368
aS'bedroom'
p4369
asI707
(lp4370
S'Daniel'
p4371
aS'went'
p4372
aS'to'
p4373
aS'the'
p4374
aS'kitchen'
p4375
asI708
(lp4376
S'John'
p4377
aS'journeyed'
p4378
aS'to'
p4379
aS'the'
p4380
aS'kitchen'
p4381
asI709
(lp4382
S'Sandra'
p4383
aS'journeyed'
p4384
aS'to'
p4385
aS'the'
p4386
aS'kitchen'
p4387
asI710
(lp4388
S'Sandra'
p4389
aS'went'
p4390
aS'back'
p4391
aS'to'
p4392
aS'the'
p4393
aS'office'
p4394
asI711
(lp4395
S'Sandra'
p4396
aS'moved'
p4397
aS'to'
p4398
aS'the'
p4399
aS'bathroom'
p4400
asI712
(lp4401
S'John'
p4402
aS'journeyed'
p4403
aS'to'
p4404
aS'the'
p4405
aS'office'
p4406
asI713
(lp4407
S'Sandra'
p4408
aS'went'
p4409
aS'back'
p4410
aS'to'
p4411
aS'the'
p4412
aS'hallway'
p4413
asI714
(lp4414
S'John'
p4415
aS'moved'
p4416
aS'to'
p4417
aS'the'
p4418
aS'bedroom'
p4419
asI715
(lp4420
S'Daniel'
p4421
aS'moved'
p4422
aS'to'
p4423
aS'the'
p4424
aS'garden'
p4425
asI716
(lp4426
S'Daniel'
p4427
aS'went'
p4428
aS'back'
p4429
aS'to'
p4430
aS'the'
p4431
aS'kitchen'
p4432
asI717
(lp4433
S'Mary'
p4434
aS'went'
p4435
aS'back'
p4436
aS'to'
p4437
aS'the'
p4438
aS'bedroom'
p4439
asI718
(lp4440
S'John'
p4441
aS'went'
p4442
aS'back'
p4443
aS'to'
p4444
aS'the'
p4445
aS'office'
p4446
asI719
(lp4447
S'Mary'
p4448
aS'travelled'
p4449
aS'to'
p4450
aS'the'
p4451
aS'office'
p4452
asI720
(lp4453
S'Sandra'
p4454
aS'went'
p4455
aS'back'
p4456
aS'to'
p4457
aS'the'
p4458
aS'bedroom'
p4459
asI721
(lp4460
S'Sandra'
p4461
aS'journeyed'
p4462
aS'to'
p4463
aS'the'
p4464
aS'bathroom'
p4465
asI722
(lp4466
S'Mary'
p4467
aS'travelled'
p4468
aS'to'
p4469
aS'the'
p4470
aS'hallway'
p4471
asI723
(lp4472
S'Sandra'
p4473
aS'moved'
p4474
aS'to'
p4475
aS'the'
p4476
aS'kitchen'
p4477
asI724
(lp4478
S'Mary'
p4479
aS'journeyed'
p4480
aS'to'
p4481
aS'the'
p4482
aS'garden'
p4483
asI725
(lp4484
S'John'
p4485
aS'travelled'
p4486
aS'to'
p4487
aS'the'
p4488
aS'office'
p4489
asI726
(lp4490
S'John'
p4491
aS'went'
p4492
aS'to'
p4493
aS'the'
p4494
aS'hallway'
p4495
asI727
(lp4496
S'Daniel'
p4497
aS'travelled'
p4498
aS'to'
p4499
aS'the'
p4500
aS'bedroom'
p4501
asI728
(lp4502
S'John'
p4503
aS'went'
p4504
aS'back'
p4505
aS'to'
p4506
aS'the'
p4507
aS'office'
p4508
asI729
(lp4509
S'Sandra'
p4510
aS'went'
p4511
aS'back'
p4512
aS'to'
p4513
aS'the'
p4514
aS'bedroom'
p4515
asI730
(lp4516
S'John'
p4517
aS'went'
p4518
aS'to'
p4519
aS'the'
p4520
aS'bedroom'
p4521
asI731
(lp4522
S'Mary'
p4523
aS'went'
p4524
aS'to'
p4525
aS'the'
p4526
aS'hallway'
p4527
asI732
(lp4528
S'Daniel'
p4529
aS'went'
p4530
aS'to'
p4531
aS'the'
p4532
aS'bathroom'
p4533
asI733
(lp4534
S'Mary'
p4535
aS'went'
p4536
aS'to'
p4537
aS'the'
p4538
aS'bedroom'
p4539
asI734
(lp4540
S'Mary'
p4541
aS'went'
p4542
aS'to'
p4543
aS'the'
p4544
aS'kitchen'
p4545
asI735
(lp4546
S'Daniel'
p4547
aS'moved'
p4548
aS'to'
p4549
aS'the'
p4550
aS'garden'
p4551
asI736
(lp4552
S'Daniel'
p4553
aS'went'
p4554
aS'to'
p4555
aS'the'
p4556
aS'office'
p4557
asI737
(lp4558
S'John'
p4559
aS'went'
p4560
aS'to'
p4561
aS'the'
p4562
aS'kitchen'
p4563
asI738
(lp4564
S'Sandra'
p4565
aS'travelled'
p4566
aS'to'
p4567
aS'the'
p4568
aS'garden'
p4569
asI739
(lp4570
S'Mary'
p4571
aS'journeyed'
p4572
aS'to'
p4573
aS'the'
p4574
aS'hallway'
p4575
asI740
(lp4576
S'Sandra'
p4577
aS'went'
p4578
aS'back'
p4579
aS'to'
p4580
aS'the'
p4581
aS'hallway'
p4582
asI741
(lp4583
S'Mary'
p4584
aS'went'
p4585
aS'back'
p4586
aS'to'
p4587
aS'the'
p4588
aS'hallway'
p4589
asI742
(lp4590
S'Sandra'
p4591
aS'journeyed'
p4592
aS'to'
p4593
aS'the'
p4594
aS'bedroom'
p4595
asI743
(lp4596
S'Sandra'
p4597
aS'travelled'
p4598
aS'to'
p4599
aS'the'
p4600
aS'kitchen'
p4601
asI744
(lp4602
S'John'
p4603
aS'went'
p4604
aS'back'
p4605
aS'to'
p4606
aS'the'
p4607
aS'hallway'
p4608
asI745
(lp4609
S'Daniel'
p4610
aS'went'
p4611
aS'back'
p4612
aS'to'
p4613
aS'the'
p4614
aS'office'
p4615
asI746
(lp4616
S'Mary'
p4617
aS'moved'
p4618
aS'to'
p4619
aS'the'
p4620
aS'kitchen'
p4621
asI747
(lp4622
S'Daniel'
p4623
aS'went'
p4624
aS'back'
p4625
aS'to'
p4626
aS'the'
p4627
aS'bathroom'
p4628
asI748
(lp4629
S'Daniel'
p4630
aS'travelled'
p4631
aS'to'
p4632
aS'the'
p4633
aS'office'
p4634
asI749
(lp4635
S'Daniel'
p4636
aS'went'
p4637
aS'to'
p4638
aS'the'
p4639
aS'hallway'
p4640
asI750
(lp4641
S'Daniel'
p4642
aS'went'
p4643
aS'to'
p4644
aS'the'
p4645
aS'bathroom'
p4646
asI751
(lp4647
S'Daniel'
p4648
aS'went'
p4649
aS'to'
p4650
aS'the'
p4651
aS'office'
p4652
asI752
(lp4653
S'Mary'
p4654
aS'went'
p4655
aS'back'
p4656
aS'to'
p4657
aS'the'
p4658
aS'office'
p4659
asI753
(lp4660
S'Sandra'
p4661
aS'travelled'
p4662
aS'to'
p4663
aS'the'
p4664
aS'bedroom'
p4665
asI754
(lp4666
S'John'
p4667
aS'journeyed'
p4668
aS'to'
p4669
aS'the'
p4670
aS'bedroom'
p4671
asI755
(lp4672
S'Mary'
p4673
aS'moved'
p4674
aS'to'
p4675
aS'the'
p4676
aS'bedroom'
p4677
asI756
(lp4678
S'Daniel'
p4679
aS'travelled'
p4680
aS'to'
p4681
aS'the'
p4682
aS'kitchen'
p4683
asI757
(lp4684
S'Sandra'
p4685
aS'journeyed'
p4686
aS'to'
p4687
aS'the'
p4688
aS'garden'
p4689
asI758
(lp4690
S'Sandra'
p4691
aS'journeyed'
p4692
aS'to'
p4693
aS'the'
p4694
aS'office'
p4695
asI759
(lp4696
S'Sandra'
p4697
aS'journeyed'
p4698
aS'to'
p4699
aS'the'
p4700
aS'garden'
p4701
asI760
(lp4702
S'Sandra'
p4703
aS'travelled'
p4704
aS'to'
p4705
aS'the'
p4706
aS'hallway'
p4707
asI761
(lp4708
S'John'
p4709
aS'travelled'
p4710
aS'to'
p4711
aS'the'
p4712
aS'bedroom'
p4713
asI762
(lp4714
S'Mary'
p4715
aS'moved'
p4716
aS'to'
p4717
aS'the'
p4718
aS'bedroom'
p4719
asI763
(lp4720
S'John'
p4721
aS'went'
p4722
aS'back'
p4723
aS'to'
p4724
aS'the'
p4725
aS'bathroom'
p4726
asI764
(lp4727
S'Sandra'
p4728
aS'moved'
p4729
aS'to'
p4730
aS'the'
p4731
aS'bathroom'
p4732
asI765
(lp4733
S'John'
p4734
aS'journeyed'
p4735
aS'to'
p4736
aS'the'
p4737
aS'office'
p4738
asI766
(lp4739
S'Daniel'
p4740
aS'journeyed'
p4741
aS'to'
p4742
aS'the'
p4743
aS'office'
p4744
asI767
(lp4745
S'John'
p4746
aS'went'
p4747
aS'back'
p4748
aS'to'
p4749
aS'the'
p4750
aS'garden'
p4751
asI768
(lp4752
S'John'
p4753
aS'journeyed'
p4754
aS'to'
p4755
aS'the'
p4756
aS'bedroom'
p4757
asI769
(lp4758
S'John'
p4759
aS'went'
p4760
aS'to'
p4761
aS'the'
p4762
aS'bathroom'
p4763
asI770
(lp4764
S'Mary'
p4765
aS'moved'
p4766
aS'to'
p4767
aS'the'
p4768
aS'office'
p4769
asI771
(lp4770
S'John'
p4771
aS'went'
p4772
aS'to'
p4773
aS'the'
p4774
aS'bathroom'
p4775
asI772
(lp4776
S'John'
p4777
aS'moved'
p4778
aS'to'
p4779
aS'the'
p4780
aS'office'
p4781
asI773
(lp4782
S'John'
p4783
aS'went'
p4784
aS'to'
p4785
aS'the'
p4786
aS'hallway'
p4787
asI774
(lp4788
S'Sandra'
p4789
aS'journeyed'
p4790
aS'to'
p4791
aS'the'
p4792
aS'hallway'
p4793
asI775
(lp4794
S'John'
p4795
aS'journeyed'
p4796
aS'to'
p4797
aS'the'
p4798
aS'bathroom'
p4799
asI776
(lp4800
S'Daniel'
p4801
aS'went'
p4802
aS'to'
p4803
aS'the'
p4804
aS'bathroom'
p4805
asI777
(lp4806
S'Sandra'
p4807
aS'moved'
p4808
aS'to'
p4809
aS'the'
p4810
aS'garden'
p4811
asI778
(lp4812
S'John'
p4813
aS'moved'
p4814
aS'to'
p4815
aS'the'
p4816
aS'office'
p4817
asI779
(lp4818
S'Sandra'
p4819
aS'moved'
p4820
aS'to'
p4821
aS'the'
p4822
aS'hallway'
p4823
asI780
(lp4824
S'Daniel'
p4825
aS'went'
p4826
aS'to'
p4827
aS'the'
p4828
aS'kitchen'
p4829
asI781
(lp4830
S'Mary'
p4831
aS'travelled'
p4832
aS'to'
p4833
aS'the'
p4834
aS'garden'
p4835
asI782
(lp4836
S'Daniel'
p4837
aS'moved'
p4838
aS'to'
p4839
aS'the'
p4840
aS'bathroom'
p4841
asI783
(lp4842
S'John'
p4843
aS'went'
p4844
aS'to'
p4845
aS'the'
p4846
aS'hallway'
p4847
asI784
(lp4848
S'Sandra'
p4849
aS'went'
p4850
aS'back'
p4851
aS'to'
p4852
aS'the'
p4853
aS'kitchen'
p4854
asI785
(lp4855
S'Daniel'
p4856
aS'went'
p4857
aS'back'
p4858
aS'to'
p4859
aS'the'
p4860
aS'garden'
p4861
asI786
(lp4862
S'John'
p4863
aS'travelled'
p4864
aS'to'
p4865
aS'the'
p4866
aS'garden'
p4867
asI787
(lp4868
S'Mary'
p4869
aS'went'
p4870
aS'to'
p4871
aS'the'
p4872
aS'bathroom'
p4873
asI788
(lp4874
S'Sandra'
p4875
aS'went'
p4876
aS'back'
p4877
aS'to'
p4878
aS'the'
p4879
aS'hallway'
p4880
asI789
(lp4881
S'Daniel'
p4882
aS'travelled'
p4883
aS'to'
p4884
aS'the'
p4885
aS'office'
p4886
asI790
(lp4887
S'Daniel'
p4888
aS'travelled'
p4889
aS'to'
p4890
aS'the'
p4891
aS'bathroom'
p4892
asI791
(lp4893
S'John'
p4894
aS'moved'
p4895
aS'to'
p4896
aS'the'
p4897
aS'hallway'
p4898
asI792
(lp4899
S'Mary'
p4900
aS'travelled'
p4901
aS'to'
p4902
aS'the'
p4903
aS'hallway'
p4904
asI793
(lp4905
S'Sandra'
p4906
aS'went'
p4907
aS'to'
p4908
aS'the'
p4909
aS'bedroom'
p4910
asI794
(lp4911
S'Sandra'
p4912
aS'went'
p4913
aS'back'
p4914
aS'to'
p4915
aS'the'
p4916
aS'hallway'
p4917
asI795
(lp4918
S'John'
p4919
aS'went'
p4920
aS'back'
p4921
aS'to'
p4922
aS'the'
p4923
aS'office'
p4924
asI796
(lp4925
S'Daniel'
p4926
aS'travelled'
p4927
aS'to'
p4928
aS'the'
p4929
aS'kitchen'
p4930
asI797
(lp4931
S'John'
p4932
aS'travelled'
p4933
aS'to'
p4934
aS'the'
p4935
aS'hallway'
p4936
asI798
(lp4937
S'Mary'
p4938
aS'journeyed'
p4939
aS'to'
p4940
aS'the'
p4941
aS'kitchen'
p4942
asI799
(lp4943
S'John'
p4944
aS'travelled'
p4945
aS'to'
p4946
aS'the'
p4947
aS'office'
p4948
asI800
(lp4949
S'John'
p4950
aS'travelled'
p4951
aS'to'
p4952
aS'the'
p4953
aS'kitchen'
p4954
asI801
(lp4955
S'Mary'
p4956
aS'moved'
p4957
aS'to'
p4958
aS'the'
p4959
aS'bedroom'
p4960
asI802
(lp4961
S'Sandra'
p4962
aS'went'
p4963
aS'back'
p4964
aS'to'
p4965
aS'the'
p4966
aS'garden'
p4967
asI803
(lp4968
S'Daniel'
p4969
aS'went'
p4970
aS'to'
p4971
aS'the'
p4972
aS'bedroom'
p4973
asI804
(lp4974
S'Mary'
p4975
aS'journeyed'
p4976
aS'to'
p4977
aS'the'
p4978
aS'hallway'
p4979
asI805
(lp4980
S'Mary'
p4981
aS'went'
p4982
aS'back'
p4983
aS'to'
p4984
aS'the'
p4985
aS'bathroom'
p4986
asI806
(lp4987
S'Daniel'
p4988
aS'journeyed'
p4989
aS'to'
p4990
aS'the'
p4991
aS'office'
p4992
asI807
(lp4993
S'Daniel'
p4994
aS'went'
p4995
aS'back'
p4996
aS'to'
p4997
aS'the'
p4998
aS'bedroom'
p4999
asI808
(lp5000
S'Mary'
p5001
aS'went'
p5002
aS'back'
p5003
aS'to'
p5004
aS'the'
p5005
aS'office'
p5006
asI809
(lp5007
S'John'
p5008
aS'journeyed'
p5009
aS'to'
p5010
aS'the'
p5011
aS'garden'
p5012
asI810
(lp5013
S'John'
p5014
aS'moved'
p5015
aS'to'
p5016
aS'the'
p5017
aS'office'
p5018
asI811
(lp5019
S'John'
p5020
aS'travelled'
p5021
aS'to'
p5022
aS'the'
p5023
aS'bathroom'
p5024
asI812
(lp5025
S'Sandra'
p5026
aS'moved'
p5027
aS'to'
p5028
aS'the'
p5029
aS'hallway'
p5030
asI813
(lp5031
S'Daniel'
p5032
aS'travelled'
p5033
aS'to'
p5034
aS'the'
p5035
aS'kitchen'
p5036
asI814
(lp5037
S'Daniel'
p5038
aS'travelled'
p5039
aS'to'
p5040
aS'the'
p5041
aS'hallway'
p5042
asI815
(lp5043
S'John'
p5044
aS'moved'
p5045
aS'to'
p5046
aS'the'
p5047
aS'hallway'
p5048
asI816
(lp5049
S'Mary'
p5050
aS'went'
p5051
aS'to'
p5052
aS'the'
p5053
aS'hallway'
p5054
asI817
(lp5055
S'Daniel'
p5056
aS'journeyed'
p5057
aS'to'
p5058
aS'the'
p5059
aS'office'
p5060
asI818
(lp5061
S'Daniel'
p5062
aS'journeyed'
p5063
aS'to'
p5064
aS'the'
p5065
aS'kitchen'
p5066
asI819
(lp5067
S'Mary'
p5068
aS'moved'
p5069
aS'to'
p5070
aS'the'
p5071
aS'office'
p5072
asI820
(lp5073
S'Mary'
p5074
aS'went'
p5075
aS'to'
p5076
aS'the'
p5077
aS'bedroom'
p5078
asI821
(lp5079
S'Daniel'
p5080
aS'journeyed'
p5081
aS'to'
p5082
aS'the'
p5083
aS'hallway'
p5084
asI822
(lp5085
S'Sandra'
p5086
aS'travelled'
p5087
aS'to'
p5088
aS'the'
p5089
aS'kitchen'
p5090
asI823
(lp5091
S'John'
p5092
aS'journeyed'
p5093
aS'to'
p5094
aS'the'
p5095
aS'hallway'
p5096
asI824
(lp5097
S'Sandra'
p5098
aS'travelled'
p5099
aS'to'
p5100
aS'the'
p5101
aS'office'
p5102
asI825
(lp5103
S'Sandra'
p5104
aS'went'
p5105
aS'to'
p5106
aS'the'
p5107
aS'hallway'
p5108
asI826
(lp5109
S'Daniel'
p5110
aS'journeyed'
p5111
aS'to'
p5112
aS'the'
p5113
aS'office'
p5114
asI827
(lp5115
S'Daniel'
p5116
aS'went'
p5117
aS'back'
p5118
aS'to'
p5119
aS'the'
p5120
aS'bedroom'
p5121
asI828
(lp5122
S'Sandra'
p5123
aS'moved'
p5124
aS'to'
p5125
aS'the'
p5126
aS'bedroom'
p5127
asI829
(lp5128
S'John'
p5129
aS'moved'
p5130
aS'to'
p5131
aS'the'
p5132
aS'office'
p5133
asI830
(lp5134
S'Daniel'
p5135
aS'travelled'
p5136
aS'to'
p5137
aS'the'
p5138
aS'kitchen'
p5139
asI831
(lp5140
S'Sandra'
p5141
aS'travelled'
p5142
aS'to'
p5143
aS'the'
p5144
aS'bedroom'
p5145
asI832
(lp5146
S'Mary'
p5147
aS'went'
p5148
aS'to'
p5149
aS'the'
p5150
aS'hallway'
p5151
asI833
(lp5152
S'Sandra'
p5153
aS'went'
p5154
aS'to'
p5155
aS'the'
p5156
aS'office'
p5157
asI834
(lp5158
S'Sandra'
p5159
aS'journeyed'
p5160
aS'to'
p5161
aS'the'
p5162
aS'kitchen'
p5163
asI835
(lp5164
S'Sandra'
p5165
aS'travelled'
p5166
aS'to'
p5167
aS'the'
p5168
aS'bathroom'
p5169
asI836
(lp5170
S'Daniel'
p5171
aS'journeyed'
p5172
aS'to'
p5173
aS'the'
p5174
aS'office'
p5175
asI837
(lp5176
S'John'
p5177
aS'went'
p5178
aS'back'
p5179
aS'to'
p5180
aS'the'
p5181
aS'hallway'
p5182
asI838
(lp5183
S'Daniel'
p5184
aS'journeyed'
p5185
aS'to'
p5186
aS'the'
p5187
aS'bedroom'
p5188
asI839
(lp5189
S'Sandra'
p5190
aS'moved'
p5191
aS'to'
p5192
aS'the'
p5193
aS'garden'
p5194
asI840
(lp5195
S'Mary'
p5196
aS'went'
p5197
aS'back'
p5198
aS'to'
p5199
aS'the'
p5200
aS'bathroom'
p5201
asI841
(lp5202
S'Daniel'
p5203
aS'journeyed'
p5204
aS'to'
p5205
aS'the'
p5206
aS'bathroom'
p5207
asI842
(lp5208
S'Daniel'
p5209
aS'travelled'
p5210
aS'to'
p5211
aS'the'
p5212
aS'hallway'
p5213
asI843
(lp5214
S'Sandra'
p5215
aS'went'
p5216
aS'back'
p5217
aS'to'
p5218
aS'the'
p5219
aS'bedroom'
p5220
asI844
(lp5221
S'Sandra'
p5222
aS'travelled'
p5223
aS'to'
p5224
aS'the'
p5225
aS'bathroom'
p5226
asI845
(lp5227
S'John'
p5228
aS'went'
p5229
aS'to'
p5230
aS'the'
p5231
aS'bathroom'
p5232
asI846
(lp5233
S'Sandra'
p5234
aS'went'
p5235
aS'to'
p5236
aS'the'
p5237
aS'garden'
p5238
asI847
(lp5239
S'Mary'
p5240
aS'journeyed'
p5241
aS'to'
p5242
aS'the'
p5243
aS'hallway'
p5244
asI848
(lp5245
S'Mary'
p5246
aS'travelled'
p5247
aS'to'
p5248
aS'the'
p5249
aS'garden'
p5250
asI849
(lp5251
S'Mary'
p5252
aS'went'
p5253
aS'back'
p5254
aS'to'
p5255
aS'the'
p5256
aS'bedroom'
p5257
asI850
(lp5258
S'John'
p5259
aS'went'
p5260
aS'back'
p5261
aS'to'
p5262
aS'the'
p5263
aS'bedroom'
p5264
asI851
(lp5265
S'John'
p5266
aS'moved'
p5267
aS'to'
p5268
aS'the'
p5269
aS'bedroom'
p5270
asI852
(lp5271
S'Mary'
p5272
aS'went'
p5273
aS'back'
p5274
aS'to'
p5275
aS'the'
p5276
aS'bedroom'
p5277
asI853
(lp5278
S'Daniel'
p5279
aS'moved'
p5280
aS'to'
p5281
aS'the'
p5282
aS'bathroom'
p5283
asI854
(lp5284
S'Daniel'
p5285
aS'moved'
p5286
aS'to'
p5287
aS'the'
p5288
aS'office'
p5289
asI855
(lp5290
S'Sandra'
p5291
aS'journeyed'
p5292
aS'to'
p5293
aS'the'
p5294
aS'bedroom'
p5295
asI856
(lp5296
S'Mary'
p5297
aS'moved'
p5298
aS'to'
p5299
aS'the'
p5300
aS'garden'
p5301
asI857
(lp5302
S'John'
p5303
aS'went'
p5304
aS'back'
p5305
aS'to'
p5306
aS'the'
p5307
aS'garden'
p5308
asI858
(lp5309
S'Sandra'
p5310
aS'went'
p5311
aS'to'
p5312
aS'the'
p5313
aS'bathroom'
p5314
asI859
(lp5315
S'John'
p5316
aS'travelled'
p5317
aS'to'
p5318
aS'the'
p5319
aS'bedroom'
p5320
asI860
(lp5321
S'Sandra'
p5322
aS'travelled'
p5323
aS'to'
p5324
aS'the'
p5325
aS'kitchen'
p5326
asI861
(lp5327
S'Daniel'
p5328
aS'moved'
p5329
aS'to'
p5330
aS'the'
p5331
aS'garden'
p5332
asI862
(lp5333
S'Sandra'
p5334
aS'moved'
p5335
aS'to'
p5336
aS'the'
p5337
aS'bedroom'
p5338
asI863
(lp5339
S'Daniel'
p5340
aS'journeyed'
p5341
aS'to'
p5342
aS'the'
p5343
aS'hallway'
p5344
asI864
(lp5345
S'Sandra'
p5346
aS'went'
p5347
aS'to'
p5348
aS'the'
p5349
aS'office'
p5350
asI865
(lp5351
S'Daniel'
p5352
aS'moved'
p5353
aS'to'
p5354
aS'the'
p5355
aS'bedroom'
p5356
asI866
(lp5357
S'John'
p5358
aS'went'
p5359
aS'back'
p5360
aS'to'
p5361
aS'the'
p5362
aS'bathroom'
p5363
asI867
(lp5364
S'Sandra'
p5365
aS'travelled'
p5366
aS'to'
p5367
aS'the'
p5368
aS'kitchen'
p5369
asI868
(lp5370
S'Sandra'
p5371
aS'went'
p5372
aS'back'
p5373
aS'to'
p5374
aS'the'
p5375
aS'bedroom'
p5376
asI869
(lp5377
S'John'
p5378
aS'journeyed'
p5379
aS'to'
p5380
aS'the'
p5381
aS'garden'
p5382
asI870
(lp5383
S'Daniel'
p5384
aS'went'
p5385
aS'back'
p5386
aS'to'
p5387
aS'the'
p5388
aS'garden'
p5389
asI871
(lp5390
S'Daniel'
p5391
aS'went'
p5392
aS'back'
p5393
aS'to'
p5394
aS'the'
p5395
aS'office'
p5396
asI872
(lp5397
S'Mary'
p5398
aS'went'
p5399
aS'back'
p5400
aS'to'
p5401
aS'the'
p5402
aS'hallway'
p5403
asI873
(lp5404
S'Sandra'
p5405
aS'journeyed'
p5406
aS'to'
p5407
aS'the'
p5408
aS'bathroom'
p5409
asI874
(lp5410
S'Sandra'
p5411
aS'travelled'
p5412
aS'to'
p5413
aS'the'
p5414
aS'hallway'
p5415
asI875
(lp5416
S'Mary'
p5417
aS'went'
p5418
aS'back'
p5419
aS'to'
p5420
aS'the'
p5421
aS'office'
p5422
asI876
(lp5423
S'Daniel'
p5424
aS'went'
p5425
aS'to'
p5426
aS'the'
p5427
aS'bathroom'
p5428
asI877
(lp5429
S'Mary'
p5430
aS'moved'
p5431
aS'to'
p5432
aS'the'
p5433
aS'bathroom'
p5434
asI878
(lp5435
S'John'
p5436
aS'went'
p5437
aS'to'
p5438
aS'the'
p5439
aS'bedroom'
p5440
asI879
(lp5441
S'Daniel'
p5442
aS'went'
p5443
aS'back'
p5444
aS'to'
p5445
aS'the'
p5446
aS'bedroom'
p5447
asI880
(lp5448
S'Sandra'
p5449
aS'travelled'
p5450
aS'to'
p5451
aS'the'
p5452
aS'office'
p5453
asI881
(lp5454
S'John'
p5455
aS'went'
p5456
aS'to'
p5457
aS'the'
p5458
aS'office'
p5459
asI882
(lp5460
S'Mary'
p5461
aS'journeyed'
p5462
aS'to'
p5463
aS'the'
p5464
aS'garden'
p5465
asI883
(lp5466
S'John'
p5467
aS'went'
p5468
aS'to'
p5469
aS'the'
p5470
aS'garden'
p5471
asI884
(lp5472
S'John'
p5473
aS'journeyed'
p5474
aS'to'
p5475
aS'the'
p5476
aS'hallway'
p5477
asI885
(lp5478
S'Sandra'
p5479
aS'went'
p5480
aS'to'
p5481
aS'the'
p5482
aS'hallway'
p5483
asI886
(lp5484
S'John'
p5485
aS'went'
p5486
aS'to'
p5487
aS'the'
p5488
aS'bedroom'
p5489
asI887
(lp5490
S'Sandra'
p5491
aS'moved'
p5492
aS'to'
p5493
aS'the'
p5494
aS'bedroom'
p5495
asI888
(lp5496
S'Mary'
p5497
aS'travelled'
p5498
aS'to'
p5499
aS'the'
p5500
aS'hallway'
p5501
asI889
(lp5502
S'John'
p5503
aS'travelled'
p5504
aS'to'
p5505
aS'the'
p5506
aS'garden'
p5507
asI890
(lp5508
S'Daniel'
p5509
aS'went'
p5510
aS'back'
p5511
aS'to'
p5512
aS'the'
p5513
aS'bedroom'
p5514
asI891
(lp5515
S'Sandra'
p5516
aS'travelled'
p5517
aS'to'
p5518
aS'the'
p5519
aS'bathroom'
p5520
asI892
(lp5521
S'Mary'
p5522
aS'travelled'
p5523
aS'to'
p5524
aS'the'
p5525
aS'office'
p5526
asI893
(lp5527
S'Sandra'
p5528
aS'travelled'
p5529
aS'to'
p5530
aS'the'
p5531
aS'hallway'
p5532
asI894
(lp5533
S'Mary'
p5534
aS'moved'
p5535
aS'to'
p5536
aS'the'
p5537
aS'bathroom'
p5538
asI895
(lp5539
S'John'
p5540
aS'went'
p5541
aS'to'
p5542
aS'the'
p5543
aS'office'
p5544
asI896
(lp5545
S'Sandra'
p5546
aS'journeyed'
p5547
aS'to'
p5548
aS'the'
p5549
aS'office'
p5550
asI897
(lp5551
S'John'
p5552
aS'went'
p5553
aS'back'
p5554
aS'to'
p5555
aS'the'
p5556
aS'bathroom'
p5557
asI898
(lp5558
S'John'
p5559
aS'travelled'
p5560
aS'to'
p5561
aS'the'
p5562
aS'kitchen'
p5563
asI899
(lp5564
S'John'
p5565
aS'moved'
p5566
aS'to'
p5567
aS'the'
p5568
aS'office'
p5569
asI900
(lp5570
S'Daniel'
p5571
aS'went'
p5572
aS'back'
p5573
aS'to'
p5574
aS'the'
p5575
aS'kitchen'
p5576
asI901
(lp5577
S'Mary'
p5578
aS'went'
p5579
aS'back'
p5580
aS'to'
p5581
aS'the'
p5582
aS'bedroom'
p5583
asI902
(lp5584
S'Mary'
p5585
aS'moved'
p5586
aS'to'
p5587
aS'the'
p5588
aS'bathroom'
p5589
asI903
(lp5590
S'Sandra'
p5591
aS'travelled'
p5592
aS'to'
p5593
aS'the'
p5594
aS'bedroom'
p5595
asI904
(lp5596
S'Sandra'
p5597
aS'went'
p5598
aS'to'
p5599
aS'the'
p5600
aS'office'
p5601
asI905
(lp5602
S'Daniel'
p5603
aS'went'
p5604
aS'to'
p5605
aS'the'
p5606
aS'garden'
p5607
asI906
(lp5608
S'Daniel'
p5609
aS'journeyed'
p5610
aS'to'
p5611
aS'the'
p5612
aS'bathroom'
p5613
asI907
(lp5614
S'Sandra'
p5615
aS'moved'
p5616
aS'to'
p5617
aS'the'
p5618
aS'hallway'
p5619
asI908
(lp5620
S'John'
p5621
aS'journeyed'
p5622
aS'to'
p5623
aS'the'
p5624
aS'kitchen'
p5625
asI909
(lp5626
S'Sandra'
p5627
aS'went'
p5628
aS'to'
p5629
aS'the'
p5630
aS'office'
p5631
asI910
(lp5632
S'John'
p5633
aS'moved'
p5634
aS'to'
p5635
aS'the'
p5636
aS'bathroom'
p5637
asI911
(lp5638
S'Daniel'
p5639
aS'went'
p5640
aS'to'
p5641
aS'the'
p5642
aS'kitchen'
p5643
asI912
(lp5644
S'Sandra'
p5645
aS'went'
p5646
aS'to'
p5647
aS'the'
p5648
aS'kitchen'
p5649
asI913
(lp5650
S'John'
p5651
aS'moved'
p5652
aS'to'
p5653
aS'the'
p5654
aS'bedroom'
p5655
asI914
(lp5656
S'Mary'
p5657
aS'went'
p5658
aS'to'
p5659
aS'the'
p5660
aS'hallway'
p5661
asI915
(lp5662
S'Mary'
p5663
aS'travelled'
p5664
aS'to'
p5665
aS'the'
p5666
aS'kitchen'
p5667
asI916
(lp5668
S'Sandra'
p5669
aS'journeyed'
p5670
aS'to'
p5671
aS'the'
p5672
aS'hallway'
p5673
asI917
(lp5674
S'Sandra'
p5675
aS'travelled'
p5676
aS'to'
p5677
aS'the'
p5678
aS'bedroom'
p5679
asI918
(lp5680
S'Daniel'
p5681
aS'journeyed'
p5682
aS'to'
p5683
aS'the'
p5684
aS'garden'
p5685
asI919
(lp5686
S'Sandra'
p5687
aS'journeyed'
p5688
aS'to'
p5689
aS'the'
p5690
aS'office'
p5691
asI920
(lp5692
S'Sandra'
p5693
aS'journeyed'
p5694
aS'to'
p5695
aS'the'
p5696
aS'kitchen'
p5697
asI921
(lp5698
S'Daniel'
p5699
aS'travelled'
p5700
aS'to'
p5701
aS'the'
p5702
aS'kitchen'
p5703
asI922
(lp5704
S'Daniel'
p5705
aS'went'
p5706
aS'to'
p5707
aS'the'
p5708
aS'hallway'
p5709
asI923
(lp5710
S'Mary'
p5711
aS'travelled'
p5712
aS'to'
p5713
aS'the'
p5714
aS'hallway'
p5715
asI924
(lp5716
S'John'
p5717
aS'went'
p5718
aS'to'
p5719
aS'the'
p5720
aS'hallway'
p5721
asI925
(lp5722
S'Sandra'
p5723
aS'moved'
p5724
aS'to'
p5725
aS'the'
p5726
aS'garden'
p5727
asI926
(lp5728
S'Mary'
p5729
aS'went'
p5730
aS'to'
p5731
aS'the'
p5732
aS'kitchen'
p5733
asI927
(lp5734
S'John'
p5735
aS'moved'
p5736
aS'to'
p5737
aS'the'
p5738
aS'garden'
p5739
asI928
(lp5740
S'John'
p5741
aS'went'
p5742
aS'back'
p5743
aS'to'
p5744
aS'the'
p5745
aS'bathroom'
p5746
asI929
(lp5747
S'Mary'
p5748
aS'went'
p5749
aS'to'
p5750
aS'the'
p5751
aS'hallway'
p5752
asI930
(lp5753
S'Daniel'
p5754
aS'moved'
p5755
aS'to'
p5756
aS'the'
p5757
aS'kitchen'
p5758
asI931
(lp5759
S'John'
p5760
aS'went'
p5761
aS'back'
p5762
aS'to'
p5763
aS'the'
p5764
aS'hallway'
p5765
asI932
(lp5766
S'Daniel'
p5767
aS'journeyed'
p5768
aS'to'
p5769
aS'the'
p5770
aS'bedroom'
p5771
asI933
(lp5772
S'Sandra'
p5773
aS'went'
p5774
aS'back'
p5775
aS'to'
p5776
aS'the'
p5777
aS'bedroom'
p5778
asI934
(lp5779
S'Sandra'
p5780
aS'moved'
p5781
aS'to'
p5782
aS'the'
p5783
aS'bathroom'
p5784
asI935
(lp5785
S'John'
p5786
aS'went'
p5787
aS'to'
p5788
aS'the'
p5789
aS'office'
p5790
asI936
(lp5791
S'John'
p5792
aS'travelled'
p5793
aS'to'
p5794
aS'the'
p5795
aS'garden'
p5796
asI937
(lp5797
S'John'
p5798
aS'went'
p5799
aS'to'
p5800
aS'the'
p5801
aS'bedroom'
p5802
asI938
(lp5803
S'Mary'
p5804
aS'went'
p5805
aS'back'
p5806
aS'to'
p5807
aS'the'
p5808
aS'kitchen'
p5809
asI939
(lp5810
S'Mary'
p5811
aS'went'
p5812
aS'back'
p5813
aS'to'
p5814
aS'the'
p5815
aS'garden'
p5816
asI940
(lp5817
S'Mary'
p5818
aS'journeyed'
p5819
aS'to'
p5820
aS'the'
p5821
aS'bedroom'
p5822
asI941
(lp5823
S'Daniel'
p5824
aS'journeyed'
p5825
aS'to'
p5826
aS'the'
p5827
aS'kitchen'
p5828
asI942
(lp5829
S'Daniel'
p5830
aS'went'
p5831
aS'back'
p5832
aS'to'
p5833
aS'the'
p5834
aS'bedroom'
p5835
asI943
(lp5836
S'Sandra'
p5837
aS'travelled'
p5838
aS'to'
p5839
aS'the'
p5840
aS'bathroom'
p5841
asI944
(lp5842
S'Sandra'
p5843
aS'moved'
p5844
aS'to'
p5845
aS'the'
p5846
aS'kitchen'
p5847
asI945
(lp5848
S'Sandra'
p5849
aS'journeyed'
p5850
aS'to'
p5851
aS'the'
p5852
aS'bedroom'
p5853
asI946
(lp5854
S'Mary'
p5855
aS'went'
p5856
aS'to'
p5857
aS'the'
p5858
aS'kitchen'
p5859
asI947
(lp5860
S'Daniel'
p5861
aS'moved'
p5862
aS'to'
p5863
aS'the'
p5864
aS'bathroom'
p5865
asI948
(lp5866
S'Sandra'
p5867
aS'moved'
p5868
aS'to'
p5869
aS'the'
p5870
aS'office'
p5871
asI949
(lp5872
S'Sandra'
p5873
aS'travelled'
p5874
aS'to'
p5875
aS'the'
p5876
aS'hallway'
p5877
asI950
(lp5878
S'John'
p5879
aS'went'
p5880
aS'to'
p5881
aS'the'
p5882
aS'kitchen'
p5883
asI951
(lp5884
S'John'
p5885
aS'went'
p5886
aS'to'
p5887
aS'the'
p5888
aS'hallway'
p5889
asI952
(lp5890
S'Daniel'
p5891
aS'moved'
p5892
aS'to'
p5893
aS'the'
p5894
aS'garden'
p5895
asI953
(lp5896
S'John'
p5897
aS'went'
p5898
aS'back'
p5899
aS'to'
p5900
aS'the'
p5901
aS'bedroom'
p5902
asI954
(lp5903
S'Mary'
p5904
aS'journeyed'
p5905
aS'to'
p5906
aS'the'
p5907
aS'garden'
p5908
asI955
(lp5909
S'Sandra'
p5910
aS'went'
p5911
aS'back'
p5912
aS'to'
p5913
aS'the'
p5914
aS'kitchen'
p5915
asI956
(lp5916
S'Daniel'
p5917
aS'went'
p5918
aS'to'
p5919
aS'the'
p5920
aS'hallway'
p5921
asI957
(lp5922
S'John'
p5923
aS'went'
p5924
aS'back'
p5925
aS'to'
p5926
aS'the'
p5927
aS'bathroom'
p5928
asI958
(lp5929
S'Daniel'
p5930
aS'went'
p5931
aS'back'
p5932
aS'to'
p5933
aS'the'
p5934
aS'kitchen'
p5935
asI959
(lp5936
S'Daniel'
p5937
aS'went'
p5938
aS'to'
p5939
aS'the'
p5940
aS'bedroom'
p5941
asI960
(lp5942
S'John'
p5943
aS'travelled'
p5944
aS'to'
p5945
aS'the'
p5946
aS'hallway'
p5947
asI961
(lp5948
S'Daniel'
p5949
aS'travelled'
p5950
aS'to'
p5951
aS'the'
p5952
aS'bathroom'
p5953
asI962
(lp5954
S'Sandra'
p5955
aS'moved'
p5956
aS'to'
p5957
aS'the'
p5958
aS'kitchen'
p5959
asI963
(lp5960
S'Mary'
p5961
aS'moved'
p5962
aS'to'
p5963
aS'the'
p5964
aS'bedroom'
p5965
asI964
(lp5966
S'Mary'
p5967
aS'journeyed'
p5968
aS'to'
p5969
aS'the'
p5970
aS'garden'
p5971
asI965
(lp5972
S'Mary'
p5973
aS'moved'
p5974
aS'to'
p5975
aS'the'
p5976
aS'hallway'
p5977
asI966
(lp5978
S'Sandra'
p5979
aS'went'
p5980
aS'back'
p5981
aS'to'
p5982
aS'the'
p5983
aS'hallway'
p5984
asI967
(lp5985
S'Mary'
p5986
aS'went'
p5987
aS'to'
p5988
aS'the'
p5989
aS'kitchen'
p5990
asI968
(lp5991
S'John'
p5992
aS'went'
p5993
aS'to'
p5994
aS'the'
p5995
aS'garden'
p5996
asI969
(lp5997
S'John'
p5998
aS'moved'
p5999
aS'to'
p6000
aS'the'
p6001
aS'office'
p6002
asI970
(lp6003
S'Daniel'
p6004
aS'went'
p6005
aS'back'
p6006
aS'to'
p6007
aS'the'
p6008
aS'bedroom'
p6009
asI971
(lp6010
S'Sandra'
p6011
aS'moved'
p6012
aS'to'
p6013
aS'the'
p6014
aS'office'
p6015
asI972
(lp6016
S'John'
p6017
aS'went'
p6018
aS'back'
p6019
aS'to'
p6020
aS'the'
p6021
aS'garden'
p6022
asI973
(lp6023
S'Daniel'
p6024
aS'travelled'
p6025
aS'to'
p6026
aS'the'
p6027
aS'office'
p6028
asI974
(lp6029
S'Sandra'
p6030
aS'journeyed'
p6031
aS'to'
p6032
aS'the'
p6033
aS'bathroom'
p6034
asI975
(lp6035
S'John'
p6036
aS'moved'
p6037
aS'to'
p6038
aS'the'
p6039
aS'kitchen'
p6040
asI976
(lp6041
S'John'
p6042
aS'moved'
p6043
aS'to'
p6044
aS'the'
p6045
aS'bathroom'
p6046
asI977
(lp6047
S'Sandra'
p6048
aS'journeyed'
p6049
aS'to'
p6050
aS'the'
p6051
aS'hallway'
p6052
asI978
(lp6053
S'Daniel'
p6054
aS'went'
p6055
aS'to'
p6056
aS'the'
p6057
aS'bathroom'
p6058
asI979
(lp6059
S'Sandra'
p6060
aS'went'
p6061
aS'to'
p6062
aS'the'
p6063
aS'bathroom'
p6064
asI980
(lp6065
S'Sandra'
p6066
aS'journeyed'
p6067
aS'to'
p6068
aS'the'
p6069
aS'hallway'
p6070
asI981
(lp6071
S'John'
p6072
aS'travelled'
p6073
aS'to'
p6074
aS'the'
p6075
aS'kitchen'
p6076
asI982
(lp6077
S'John'
p6078
aS'went'
p6079
aS'to'
p6080
aS'the'
p6081
aS'bathroom'
p6082
asI983
(lp6083
S'Sandra'
p6084
aS'travelled'
p6085
aS'to'
p6086
aS'the'
p6087
aS'bedroom'
p6088
asI984
(lp6089
S'Sandra'
p6090
aS'journeyed'
p6091
aS'to'
p6092
aS'the'
p6093
aS'garden'
p6094
asI985
(lp6095
S'John'
p6096
aS'journeyed'
p6097
aS'to'
p6098
aS'the'
p6099
aS'bedroom'
p6100
asI986
(lp6101
S'John'
p6102
aS'journeyed'
p6103
aS'to'
p6104
aS'the'
p6105
aS'bathroom'
p6106
asI987
(lp6107
S'Mary'
p6108
aS'travelled'
p6109
aS'to'
p6110
aS'the'
p6111
aS'kitchen'
p6112
asI988
(lp6113
S'Mary'
p6114
aS'journeyed'
p6115
aS'to'
p6116
aS'the'
p6117
aS'garden'
p6118
asI989
(lp6119
S'John'
p6120
aS'journeyed'
p6121
aS'to'
p6122
aS'the'
p6123
aS'office'
p6124
asI990
(lp6125
S'Daniel'
p6126
aS'journeyed'
p6127
aS'to'
p6128
aS'the'
p6129
aS'bathroom'
p6130
asI991
(lp6131
S'Mary'
p6132
aS'moved'
p6133
aS'to'
p6134
aS'the'
p6135
aS'bedroom'
p6136
asI992
(lp6137
S'Sandra'
p6138
aS'travelled'
p6139
aS'to'
p6140
aS'the'
p6141
aS'garden'
p6142
asI993
(lp6143
S'Sandra'
p6144
aS'journeyed'
p6145
aS'to'
p6146
aS'the'
p6147
aS'kitchen'
p6148
asI994
(lp6149
S'Sandra'
p6150
aS'moved'
p6151
aS'to'
p6152
aS'the'
p6153
aS'garden'
p6154
asI995
(lp6155
S'Sandra'
p6156
aS'travelled'
p6157
aS'to'
p6158
aS'the'
p6159
aS'kitchen'
p6160
asI996
(lp6161
S'Daniel'
p6162
aS'went'
p6163
aS'to'
p6164
aS'the'
p6165
aS'garden'
p6166
asI997
(lp6167
S'John'
p6168
aS'went'
p6169
aS'to'
p6170
aS'the'
p6171
aS'hallway'
p6172
asI998
(lp6173
S'Mary'
p6174
aS'travelled'
p6175
aS'to'
p6176
aS'the'
p6177
aS'hallway'
p6178
asI999
(lp6179
S'Daniel'
p6180
aS'went'
p6181
aS'back'
p6182
aS'to'
p6183
aS'the'
p6184
aS'hallway'
p6185
asI1000
(lp6186
S'Daniel'
p6187
aS'moved'
p6188
aS'to'
p6189
aS'the'
p6190
aS'bathroom'
p6191
asI1001
(lp6192
S'Daniel'
p6193
aS'went'
p6194
aS'to'
p6195
aS'the'
p6196
aS'bedroom'
p6197
asI1002
(lp6198
S'Mary'
p6199
aS'went'
p6200
aS'to'
p6201
aS'the'
p6202
aS'kitchen'
p6203
asI1003
(lp6204
S'Mary'
p6205
aS'travelled'
p6206
aS'to'
p6207
aS'the'
p6208
aS'bedroom'
p6209
asI1004
(lp6210
S'John'
p6211
aS'journeyed'
p6212
aS'to'
p6213
aS'the'
p6214
aS'bathroom'
p6215
asI1005
(lp6216
S'Sandra'
p6217
aS'moved'
p6218
aS'to'
p6219
aS'the'
p6220
aS'garden'
p6221
asI1006
(lp6222
S'Sandra'
p6223
aS'went'
p6224
aS'to'
p6225
aS'the'
p6226
aS'office'
p6227
asI1007
(lp6228
S'Daniel'
p6229
aS'went'
p6230
aS'back'
p6231
aS'to'
p6232
aS'the'
p6233
aS'hallway'
p6234
asI1008
(lp6235
S'Sandra'
p6236
aS'moved'
p6237
aS'to'
p6238
aS'the'
p6239
aS'kitchen'
p6240
asI1009
(lp6241
S'Mary'
p6242
aS'travelled'
p6243
aS'to'
p6244
aS'the'
p6245
aS'bathroom'
p6246
asI1010
(lp6247
S'Sandra'
p6248
aS'journeyed'
p6249
aS'to'
p6250
aS'the'
p6251
aS'bedroom'
p6252
asI1011
(lp6253
S'Daniel'
p6254
aS'went'
p6255
aS'to'
p6256
aS'the'
p6257
aS'kitchen'
p6258
asI1012
(lp6259
S'Daniel'
p6260
aS'went'
p6261
aS'back'
p6262
aS'to'
p6263
aS'the'
p6264
aS'garden'
p6265
asI1013
(lp6266
S'Daniel'
p6267
aS'went'
p6268
aS'back'
p6269
aS'to'
p6270
aS'the'
p6271
aS'office'
p6272
asI1014
(lp6273
S'John'
p6274
aS'travelled'
p6275
aS'to'
p6276
aS'the'
p6277
aS'kitchen'
p6278
asI1015
(lp6279
S'Sandra'
p6280
aS'moved'
p6281
aS'to'
p6282
aS'the'
p6283
aS'bedroom'
p6284
asI1016
(lp6285
S'John'
p6286
aS'went'
p6287
aS'to'
p6288
aS'the'
p6289
aS'office'
p6290
asI1017
(lp6291
S'Mary'
p6292
aS'journeyed'
p6293
aS'to'
p6294
aS'the'
p6295
aS'office'
p6296
asI1018
(lp6297
S'Sandra'
p6298
aS'moved'
p6299
aS'to'
p6300
aS'the'
p6301
aS'kitchen'
p6302
asI1019
(lp6303
S'Sandra'
p6304
aS'moved'
p6305
aS'to'
p6306
aS'the'
p6307
aS'office'
p6308
asI1020
(lp6309
S'John'
p6310
aS'travelled'
p6311
aS'to'
p6312
aS'the'
p6313
aS'garden'
p6314
asI1021
(lp6315
S'Sandra'
p6316
aS'journeyed'
p6317
aS'to'
p6318
aS'the'
p6319
aS'hallway'
p6320
asI1022
(lp6321
S'Mary'
p6322
aS'travelled'
p6323
aS'to'
p6324
aS'the'
p6325
aS'bathroom'
p6326
asI1023
(lp6327
S'John'
p6328
aS'moved'
p6329
aS'to'
p6330
aS'the'
p6331
aS'office'
p6332
asI1024
(lp6333
S'Mary'
p6334
aS'moved'
p6335
aS'to'
p6336
aS'the'
p6337
aS'bedroom'
p6338
asI1025
(lp6339
S'Mary'
p6340
aS'journeyed'
p6341
aS'to'
p6342
aS'the'
p6343
aS'kitchen'
p6344
asI1026
(lp6345
S'Mary'
p6346
aS'went'
p6347
aS'back'
p6348
aS'to'
p6349
aS'the'
p6350
aS'bathroom'
p6351
asI1027
(lp6352
S'John'
p6353
aS'moved'
p6354
aS'to'
p6355
aS'the'
p6356
aS'bathroom'
p6357
asI1028
(lp6358
S'Mary'
p6359
aS'went'
p6360
aS'back'
p6361
aS'to'
p6362
aS'the'
p6363
aS'kitchen'
p6364
asI1029
(lp6365
S'Sandra'
p6366
aS'journeyed'
p6367
aS'to'
p6368
aS'the'
p6369
aS'bedroom'
p6370
asI1030
(lp6371
S'Daniel'
p6372
aS'went'
p6373
aS'back'
p6374
aS'to'
p6375
aS'the'
p6376
aS'kitchen'
p6377
asI1031
(lp6378
S'Sandra'
p6379
aS'moved'
p6380
aS'to'
p6381
aS'the'
p6382
aS'hallway'
p6383
asI1032
(lp6384
S'John'
p6385
aS'went'
p6386
aS'back'
p6387
aS'to'
p6388
aS'the'
p6389
aS'hallway'
p6390
asI1033
(lp6391
S'Daniel'
p6392
aS'moved'
p6393
aS'to'
p6394
aS'the'
p6395
aS'garden'
p6396
asI1034
(lp6397
S'Daniel'
p6398
aS'went'
p6399
aS'to'
p6400
aS'the'
p6401
aS'bathroom'
p6402
asI1035
(lp6403
S'Daniel'
p6404
aS'moved'
p6405
aS'to'
p6406
aS'the'
p6407
aS'hallway'
p6408
asI1036
(lp6409
S'Sandra'
p6410
aS'went'
p6411
aS'to'
p6412
aS'the'
p6413
aS'kitchen'
p6414
asI1037
(lp6415
S'Daniel'
p6416
aS'journeyed'
p6417
aS'to'
p6418
aS'the'
p6419
aS'kitchen'
p6420
asI1038
(lp6421
S'Daniel'
p6422
aS'went'
p6423
aS'to'
p6424
aS'the'
p6425
aS'garden'
p6426
asI1039
(lp6427
S'Daniel'
p6428
aS'moved'
p6429
aS'to'
p6430
aS'the'
p6431
aS'bathroom'
p6432
asI1040
(lp6433
S'Mary'
p6434
aS'went'
p6435
aS'to'
p6436
aS'the'
p6437
aS'office'
p6438
asI1041
(lp6439
S'Sandra'
p6440
aS'travelled'
p6441
aS'to'
p6442
aS'the'
p6443
aS'office'
p6444
asI1042
(lp6445
S'Sandra'
p6446
aS'went'
p6447
aS'to'
p6448
aS'the'
p6449
aS'garden'
p6450
asI1043
(lp6451
S'Mary'
p6452
aS'went'
p6453
aS'back'
p6454
aS'to'
p6455
aS'the'
p6456
aS'garden'
p6457
asI1044
(lp6458
S'Daniel'
p6459
aS'went'
p6460
aS'to'
p6461
aS'the'
p6462
aS'kitchen'
p6463
asI1045
(lp6464
S'Sandra'
p6465
aS'moved'
p6466
aS'to'
p6467
aS'the'
p6468
aS'bathroom'
p6469
asI1046
(lp6470
S'Sandra'
p6471
aS'travelled'
p6472
aS'to'
p6473
aS'the'
p6474
aS'garden'
p6475
asI1047
(lp6476
S'Mary'
p6477
aS'went'
p6478
aS'to'
p6479
aS'the'
p6480
aS'bedroom'
p6481
asI1048
(lp6482
S'Mary'
p6483
aS'went'
p6484
aS'to'
p6485
aS'the'
p6486
aS'garden'
p6487
asI1049
(lp6488
S'Sandra'
p6489
aS'moved'
p6490
aS'to'
p6491
aS'the'
p6492
aS'hallway'
p6493
asI1050
(lp6494
S'Mary'
p6495
aS'moved'
p6496
aS'to'
p6497
aS'the'
p6498
aS'bathroom'
p6499
asI1051
(lp6500
S'Daniel'
p6501
aS'journeyed'
p6502
aS'to'
p6503
aS'the'
p6504
aS'kitchen'
p6505
asI1052
(lp6506
S'John'
p6507
aS'went'
p6508
aS'back'
p6509
aS'to'
p6510
aS'the'
p6511
aS'kitchen'
p6512
asI1053
(lp6513
S'Mary'
p6514
aS'went'
p6515
aS'to'
p6516
aS'the'
p6517
aS'hallway'
p6518
asI1054
(lp6519
S'John'
p6520
aS'moved'
p6521
aS'to'
p6522
aS'the'
p6523
aS'office'
p6524
asI1055
(lp6525
S'Daniel'
p6526
aS'travelled'
p6527
aS'to'
p6528
aS'the'
p6529
aS'hallway'
p6530
asI1056
(lp6531
S'Mary'
p6532
aS'went'
p6533
aS'to'
p6534
aS'the'
p6535
aS'garden'
p6536
asI1057
(lp6537
S'Mary'
p6538
aS'went'
p6539
aS'back'
p6540
aS'to'
p6541
aS'the'
p6542
aS'office'
p6543
asI1058
(lp6544
S'Mary'
p6545
aS'went'
p6546
aS'to'
p6547
aS'the'
p6548
aS'garden'
p6549
asI1059
(lp6550
S'Sandra'
p6551
aS'moved'
p6552
aS'to'
p6553
aS'the'
p6554
aS'bathroom'
p6555
asI1060
(lp6556
S'Daniel'
p6557
aS'moved'
p6558
aS'to'
p6559
aS'the'
p6560
aS'office'
p6561
asI1061
(lp6562
S'John'
p6563
aS'went'
p6564
aS'to'
p6565
aS'the'
p6566
aS'kitchen'
p6567
asI1062
(lp6568
S'John'
p6569
aS'moved'
p6570
aS'to'
p6571
aS'the'
p6572
aS'garden'
p6573
asI1063
(lp6574
S'Daniel'
p6575
aS'went'
p6576
aS'back'
p6577
aS'to'
p6578
aS'the'
p6579
aS'bedroom'
p6580
asI1064
(lp6581
S'Sandra'
p6582
aS'moved'
p6583
aS'to'
p6584
aS'the'
p6585
aS'office'
p6586
asI1065
(lp6587
S'Sandra'
p6588
aS'journeyed'
p6589
aS'to'
p6590
aS'the'
p6591
aS'garden'
p6592
asI1066
(lp6593
S'John'
p6594
aS'moved'
p6595
aS'to'
p6596
aS'the'
p6597
aS'bathroom'
p6598
asI1067
(lp6599
S'Daniel'
p6600
aS'travelled'
p6601
aS'to'
p6602
aS'the'
p6603
aS'bathroom'
p6604
asI1068
(lp6605
S'John'
p6606
aS'travelled'
p6607
aS'to'
p6608
aS'the'
p6609
aS'garden'
p6610
asI1069
(lp6611
S'Mary'
p6612
aS'went'
p6613
aS'back'
p6614
aS'to'
p6615
aS'the'
p6616
aS'bathroom'
p6617
asI1070
(lp6618
S'Sandra'
p6619
aS'travelled'
p6620
aS'to'
p6621
aS'the'
p6622
aS'hallway'
p6623
asI1071
(lp6624
S'Sandra'
p6625
aS'went'
p6626
aS'to'
p6627
aS'the'
p6628
aS'garden'
p6629
asI1072
(lp6630
S'Mary'
p6631
aS'travelled'
p6632
aS'to'
p6633
aS'the'
p6634
aS'garden'
p6635
asI1073
(lp6636
S'Sandra'
p6637
aS'travelled'
p6638
aS'to'
p6639
aS'the'
p6640
aS'kitchen'
p6641
asI1074
(lp6642
S'Daniel'
p6643
aS'went'
p6644
aS'back'
p6645
aS'to'
p6646
aS'the'
p6647
aS'bedroom'
p6648
asI1075
(lp6649
S'Daniel'
p6650
aS'went'
p6651
aS'to'
p6652
aS'the'
p6653
aS'kitchen'
p6654
asI1076
(lp6655
S'Sandra'
p6656
aS'travelled'
p6657
aS'to'
p6658
aS'the'
p6659
aS'garden'
p6660
asI1077
(lp6661
S'Mary'
p6662
aS'went'
p6663
aS'back'
p6664
aS'to'
p6665
aS'the'
p6666
aS'bedroom'
p6667
asI1078
(lp6668
S'Mary'
p6669
aS'travelled'
p6670
aS'to'
p6671
aS'the'
p6672
aS'kitchen'
p6673
asI1079
(lp6674
S'John'
p6675
aS'travelled'
p6676
aS'to'
p6677
aS'the'
p6678
aS'bathroom'
p6679
asI1080
(lp6680
S'Mary'
p6681
aS'travelled'
p6682
aS'to'
p6683
aS'the'
p6684
aS'hallway'
p6685
asI1081
(lp6686
S'Daniel'
p6687
aS'travelled'
p6688
aS'to'
p6689
aS'the'
p6690
aS'bathroom'
p6691
asI1082
(lp6692
S'Sandra'
p6693
aS'moved'
p6694
aS'to'
p6695
aS'the'
p6696
aS'hallway'
p6697
asI1083
(lp6698
S'Sandra'
p6699
aS'went'
p6700
aS'to'
p6701
aS'the'
p6702
aS'office'
p6703
asI1084
(lp6704
S'Mary'
p6705
aS'journeyed'
p6706
aS'to'
p6707
aS'the'
p6708
aS'kitchen'
p6709
asI1085
(lp6710
S'Daniel'
p6711
aS'went'
p6712
aS'to'
p6713
aS'the'
p6714
aS'kitchen'
p6715
asI1086
(lp6716
S'Mary'
p6717
aS'went'
p6718
aS'back'
p6719
aS'to'
p6720
aS'the'
p6721
aS'garden'
p6722
asI1087
(lp6723
S'Daniel'
p6724
aS'moved'
p6725
aS'to'
p6726
aS'the'
p6727
aS'bedroom'
p6728
asI1088
(lp6729
S'Sandra'
p6730
aS'travelled'
p6731
aS'to'
p6732
aS'the'
p6733
aS'garden'
p6734
asI1089
(lp6735
S'Daniel'
p6736
aS'went'
p6737
aS'back'
p6738
aS'to'
p6739
aS'the'
p6740
aS'hallway'
p6741
asI1090
(lp6742
S'John'
p6743
aS'moved'
p6744
aS'to'
p6745
aS'the'
p6746
aS'bedroom'
p6747
asI1091
(lp6748
S'Mary'
p6749
aS'travelled'
p6750
aS'to'
p6751
aS'the'
p6752
aS'bedroom'
p6753
asI1092
(lp6754
S'Daniel'
p6755
aS'travelled'
p6756
aS'to'
p6757
aS'the'
p6758
aS'office'
p6759
asI1093
(lp6760
S'Daniel'
p6761
aS'journeyed'
p6762
aS'to'
p6763
aS'the'
p6764
aS'hallway'
p6765
asI1094
(lp6766
S'Mary'
p6767
aS'travelled'
p6768
aS'to'
p6769
aS'the'
p6770
aS'hallway'
p6771
asI1095
(lp6772
S'Sandra'
p6773
aS'travelled'
p6774
aS'to'
p6775
aS'the'
p6776
aS'kitchen'
p6777
asI1096
(lp6778
S'Mary'
p6779
aS'travelled'
p6780
aS'to'
p6781
aS'the'
p6782
aS'kitchen'
p6783
asI1097
(lp6784
S'John'
p6785
aS'journeyed'
p6786
aS'to'
p6787
aS'the'
p6788
aS'garden'
p6789
asI1098
(lp6790
S'Daniel'
p6791
aS'went'
p6792
aS'to'
p6793
aS'the'
p6794
aS'bathroom'
p6795
asI1099
(lp6796
S'Daniel'
p6797
aS'moved'
p6798
aS'to'
p6799
aS'the'
p6800
aS'garden'
p6801
asI1100
(lp6802
S'John'
p6803
aS'went'
p6804
aS'to'
p6805
aS'the'
p6806
aS'kitchen'
p6807
asI1101
(lp6808
S'Sandra'
p6809
aS'went'
p6810
aS'back'
p6811
aS'to'
p6812
aS'the'
p6813
aS'office'
p6814
asI1102
(lp6815
S'Sandra'
p6816
aS'moved'
p6817
aS'to'
p6818
aS'the'
p6819
aS'bathroom'
p6820
asI1103
(lp6821
S'Mary'
p6822
aS'travelled'
p6823
aS'to'
p6824
aS'the'
p6825
aS'office'
p6826
asI1104
(lp6827
S'Mary'
p6828
aS'moved'
p6829
aS'to'
p6830
aS'the'
p6831
aS'hallway'
p6832
asI1105
(lp6833
S'Mary'
p6834
aS'went'
p6835
aS'to'
p6836
aS'the'
p6837
aS'bedroom'
p6838
asI1106
(lp6839
S'Mary'
p6840
aS'journeyed'
p6841
aS'to'
p6842
aS'the'
p6843
aS'office'
p6844
asI1107
(lp6845
S'Mary'
p6846
aS'journeyed'
p6847
aS'to'
p6848
aS'the'
p6849
aS'bathroom'
p6850
asI1108
(lp6851
S'Sandra'
p6852
aS'travelled'
p6853
aS'to'
p6854
aS'the'
p6855
aS'garden'
p6856
asI1109
(lp6857
S'Mary'
p6858
aS'went'
p6859
aS'to'
p6860
aS'the'
p6861
aS'kitchen'
p6862
asI1110
(lp6863
S'John'
p6864
aS'travelled'
p6865
aS'to'
p6866
aS'the'
p6867
aS'hallway'
p6868
asI1111
(lp6869
S'Sandra'
p6870
aS'went'
p6871
aS'to'
p6872
aS'the'
p6873
aS'kitchen'
p6874
asI1112
(lp6875
S'Daniel'
p6876
aS'went'
p6877
aS'back'
p6878
aS'to'
p6879
aS'the'
p6880
aS'bathroom'
p6881
asI1113
(lp6882
S'Daniel'
p6883
aS'journeyed'
p6884
aS'to'
p6885
aS'the'
p6886
aS'hallway'
p6887
asI1114
(lp6888
S'Mary'
p6889
aS'journeyed'
p6890
aS'to'
p6891
aS'the'
p6892
aS'kitchen'
p6893
asI1115
(lp6894
S'Sandra'
p6895
aS'travelled'
p6896
aS'to'
p6897
aS'the'
p6898
aS'bedroom'
p6899
asI1116
(lp6900
S'Sandra'
p6901
aS'went'
p6902
aS'to'
p6903
aS'the'
p6904
aS'office'
p6905
asI1117
(lp6906
S'Mary'
p6907
aS'moved'
p6908
aS'to'
p6909
aS'the'
p6910
aS'office'
p6911
asI1118
(lp6912
S'Sandra'
p6913
aS'went'
p6914
aS'back'
p6915
aS'to'
p6916
aS'the'
p6917
aS'hallway'
p6918
asI1119
(lp6919
S'John'
p6920
aS'travelled'
p6921
aS'to'
p6922
aS'the'
p6923
aS'bedroom'
p6924
asI1120
(lp6925
S'Daniel'
p6926
aS'journeyed'
p6927
aS'to'
p6928
aS'the'
p6929
aS'office'
p6930
asI1121
(lp6931
S'John'
p6932
aS'travelled'
p6933
aS'to'
p6934
aS'the'
p6935
aS'hallway'
p6936
asI1122
(lp6937
S'Mary'
p6938
aS'travelled'
p6939
aS'to'
p6940
aS'the'
p6941
aS'bathroom'
p6942
asI1123
(lp6943
S'Sandra'
p6944
aS'went'
p6945
aS'to'
p6946
aS'the'
p6947
aS'bedroom'
p6948
asI1124
(lp6949
S'Daniel'
p6950
aS'moved'
p6951
aS'to'
p6952
aS'the'
p6953
aS'office'
p6954
asI1125
(lp6955
S'Daniel'
p6956
aS'travelled'
p6957
aS'to'
p6958
aS'the'
p6959
aS'hallway'
p6960
asI1126
(lp6961
S'Daniel'
p6962
aS'journeyed'
p6963
aS'to'
p6964
aS'the'
p6965
aS'bathroom'
p6966
asI1127
(lp6967
S'Daniel'
p6968
aS'went'
p6969
aS'to'
p6970
aS'the'
p6971
aS'hallway'
p6972
asI1128
(lp6973
S'Mary'
p6974
aS'journeyed'
p6975
aS'to'
p6976
aS'the'
p6977
aS'office'
p6978
asI1129
(lp6979
S'Mary'
p6980
aS'travelled'
p6981
aS'to'
p6982
aS'the'
p6983
aS'bathroom'
p6984
asI1130
(lp6985
S'Sandra'
p6986
aS'journeyed'
p6987
aS'to'
p6988
aS'the'
p6989
aS'garden'
p6990
asI1131
(lp6991
S'Daniel'
p6992
aS'journeyed'
p6993
aS'to'
p6994
aS'the'
p6995
aS'bedroom'
p6996
asI1132
(lp6997
S'Daniel'
p6998
aS'moved'
p6999
aS'to'
p7000
aS'the'
p7001
aS'kitchen'
p7002
asI1133
(lp7003
S'Mary'
p7004
aS'travelled'
p7005
aS'to'
p7006
aS'the'
p7007
aS'kitchen'
p7008
asI1134
(lp7009
S'Mary'
p7010
aS'moved'
p7011
aS'to'
p7012
aS'the'
p7013
aS'bathroom'
p7014
asI1135
(lp7015
S'John'
p7016
aS'travelled'
p7017
aS'to'
p7018
aS'the'
p7019
aS'office'
p7020
asI1136
(lp7021
S'Daniel'
p7022
aS'went'
p7023
aS'to'
p7024
aS'the'
p7025
aS'hallway'
p7026
asI1137
(lp7027
S'John'
p7028
aS'went'
p7029
aS'back'
p7030
aS'to'
p7031
aS'the'
p7032
aS'garden'
p7033
asI1138
(lp7034
S'Sandra'
p7035
aS'travelled'
p7036
aS'to'
p7037
aS'the'
p7038
aS'bathroom'
p7039
asI1139
(lp7040
S'Sandra'
p7041
aS'journeyed'
p7042
aS'to'
p7043
aS'the'
p7044
aS'office'
p7045
asI1140
(lp7046
S'John'
p7047
aS'went'
p7048
aS'to'
p7049
aS'the'
p7050
aS'bathroom'
p7051
asI1141
(lp7052
S'Sandra'
p7053
aS'travelled'
p7054
aS'to'
p7055
aS'the'
p7056
aS'bathroom'
p7057
asI1142
(lp7058
S'Sandra'
p7059
aS'moved'
p7060
aS'to'
p7061
aS'the'
p7062
aS'kitchen'
p7063
asI1143
(lp7064
S'Sandra'
p7065
aS'journeyed'
p7066
aS'to'
p7067
aS'the'
p7068
aS'bathroom'
p7069
asI1144
(lp7070
S'Sandra'
p7071
aS'journeyed'
p7072
aS'to'
p7073
aS'the'
p7074
aS'bedroom'
p7075
asI1145
(lp7076
S'Sandra'
p7077
aS'journeyed'
p7078
aS'to'
p7079
aS'the'
p7080
aS'hallway'
p7081
asI1146
(lp7082
S'Mary'
p7083
aS'went'
p7084
aS'to'
p7085
aS'the'
p7086
aS'kitchen'
p7087
asI1147
(lp7088
S'John'
p7089
aS'went'
p7090
aS'back'
p7091
aS'to'
p7092
aS'the'
p7093
aS'garden'
p7094
asI1148
(lp7095
S'Mary'
p7096
aS'went'
p7097
aS'to'
p7098
aS'the'
p7099
aS'office'
p7100
asI1149
(lp7101
S'Daniel'
p7102
aS'journeyed'
p7103
aS'to'
p7104
aS'the'
p7105
aS'office'
p7106
asI1150
(lp7107
S'Mary'
p7108
aS'went'
p7109
aS'back'
p7110
aS'to'
p7111
aS'the'
p7112
aS'bedroom'
p7113
asI1151
(lp7114
S'John'
p7115
aS'travelled'
p7116
aS'to'
p7117
aS'the'
p7118
aS'office'
p7119
asI1152
(lp7120
S'Daniel'
p7121
aS'went'
p7122
aS'back'
p7123
aS'to'
p7124
aS'the'
p7125
aS'bedroom'
p7126
asI1153
(lp7127
S'Sandra'
p7128
aS'travelled'
p7129
aS'to'
p7130
aS'the'
p7131
aS'hallway'
p7132
asI1154
(lp7133
S'Daniel'
p7134
aS'journeyed'
p7135
aS'to'
p7136
aS'the'
p7137
aS'office'
p7138
asI1155
(lp7139
S'Daniel'
p7140
aS'travelled'
p7141
aS'to'
p7142
aS'the'
p7143
aS'bathroom'
p7144
asI1156
(lp7145
S'Mary'
p7146
aS'travelled'
p7147
aS'to'
p7148
aS'the'
p7149
aS'garden'
p7150
asI1157
(lp7151
S'Mary'
p7152
aS'went'
p7153
aS'to'
p7154
aS'the'
p7155
aS'bedroom'
p7156
asI1158
(lp7157
S'Sandra'
p7158
aS'moved'
p7159
aS'to'
p7160
aS'the'
p7161
aS'office'
p7162
asI1159
(lp7163
S'Mary'
p7164
aS'went'
p7165
aS'to'
p7166
aS'the'
p7167
aS'kitchen'
p7168
asI1160
(lp7169
S'Sandra'
p7170
aS'went'
p7171
aS'to'
p7172
aS'the'
p7173
aS'kitchen'
p7174
asI1161
(lp7175
S'John'
p7176
aS'went'
p7177
aS'back'
p7178
aS'to'
p7179
aS'the'
p7180
aS'hallway'
p7181
asI1162
(lp7182
S'Sandra'
p7183
aS'moved'
p7184
aS'to'
p7185
aS'the'
p7186
aS'bedroom'
p7187
asI1163
(lp7188
S'Sandra'
p7189
aS'went'
p7190
aS'to'
p7191
aS'the'
p7192
aS'bathroom'
p7193
asI1164
(lp7194
S'Daniel'
p7195
aS'went'
p7196
aS'back'
p7197
aS'to'
p7198
aS'the'
p7199
aS'office'
p7200
asI1165
(lp7201
S'Sandra'
p7202
aS'went'
p7203
aS'to'
p7204
aS'the'
p7205
aS'kitchen'
p7206
asI1166
(lp7207
S'Sandra'
p7208
aS'moved'
p7209
aS'to'
p7210
aS'the'
p7211
aS'bedroom'
p7212
asI1167
(lp7213
S'John'
p7214
aS'journeyed'
p7215
aS'to'
p7216
aS'the'
p7217
aS'garden'
p7218
asI1168
(lp7219
S'Mary'
p7220
aS'travelled'
p7221
aS'to'
p7222
aS'the'
p7223
aS'hallway'
p7224
asI1169
(lp7225
S'Mary'
p7226
aS'went'
p7227
aS'to'
p7228
aS'the'
p7229
aS'office'
p7230
asI1170
(lp7231
S'Daniel'
p7232
aS'travelled'
p7233
aS'to'
p7234
aS'the'
p7235
aS'bedroom'
p7236
asI1171
(lp7237
S'Mary'
p7238
aS'travelled'
p7239
aS'to'
p7240
aS'the'
p7241
aS'kitchen'
p7242
asI1172
(lp7243
S'Mary'
p7244
aS'moved'
p7245
aS'to'
p7246
aS'the'
p7247
aS'hallway'
p7248
asI1173
(lp7249
S'John'
p7250
aS'went'
p7251
aS'to'
p7252
aS'the'
p7253
aS'office'
p7254
asI1174
(lp7255
S'John'
p7256
aS'went'
p7257
aS'back'
p7258
aS'to'
p7259
aS'the'
p7260
aS'garden'
p7261
asI1175
(lp7262
S'John'
p7263
aS'moved'
p7264
aS'to'
p7265
aS'the'
p7266
aS'hallway'
p7267
asI1176
(lp7268
S'Sandra'
p7269
aS'travelled'
p7270
aS'to'
p7271
aS'the'
p7272
aS'hallway'
p7273
asI1177
(lp7274
S'Mary'
p7275
aS'moved'
p7276
aS'to'
p7277
aS'the'
p7278
aS'garden'
p7279
asI1178
(lp7280
S'Daniel'
p7281
aS'journeyed'
p7282
aS'to'
p7283
aS'the'
p7284
aS'hallway'
p7285
asI1179
(lp7286
S'Daniel'
p7287
aS'went'
p7288
aS'to'
p7289
aS'the'
p7290
aS'bedroom'
p7291
asI1180
(lp7292
S'Mary'
p7293
aS'travelled'
p7294
aS'to'
p7295
aS'the'
p7296
aS'bedroom'
p7297
asI1181
(lp7298
S'Mary'
p7299
aS'journeyed'
p7300
aS'to'
p7301
aS'the'
p7302
aS'office'
p7303
asI1182
(lp7304
S'Sandra'
p7305
aS'travelled'
p7306
aS'to'
p7307
aS'the'
p7308
aS'bathroom'
p7309
asI1183
(lp7310
S'Sandra'
p7311
aS'travelled'
p7312
aS'to'
p7313
aS'the'
p7314
aS'office'
p7315
asI1184
(lp7316
S'Mary'
p7317
aS'went'
p7318
aS'back'
p7319
aS'to'
p7320
aS'the'
p7321
aS'hallway'
p7322
asI1185
(lp7323
S'Daniel'
p7324
aS'went'
p7325
aS'back'
p7326
aS'to'
p7327
aS'the'
p7328
aS'office'
p7329
asI1186
(lp7330
S'Sandra'
p7331
aS'went'
p7332
aS'to'
p7333
aS'the'
p7334
aS'bathroom'
p7335
asI1187
(lp7336
S'John'
p7337
aS'journeyed'
p7338
aS'to'
p7339
aS'the'
p7340
aS'bedroom'
p7341
asI1188
(lp7342
S'Sandra'
p7343
aS'went'
p7344
aS'back'
p7345
aS'to'
p7346
aS'the'
p7347
aS'office'
p7348
asI1189
(lp7349
S'Daniel'
p7350
aS'went'
p7351
aS'to'
p7352
aS'the'
p7353
aS'bedroom'
p7354
asI1190
(lp7355
S'Sandra'
p7356
aS'travelled'
p7357
aS'to'
p7358
aS'the'
p7359
aS'garden'
p7360
asI1191
(lp7361
S'Mary'
p7362
aS'journeyed'
p7363
aS'to'
p7364
aS'the'
p7365
aS'hallway'
p7366
asI1192
(lp7367
S'Sandra'
p7368
aS'went'
p7369
aS'to'
p7370
aS'the'
p7371
aS'garden'
p7372
asI1193
(lp7373
S'Sandra'
p7374
aS'journeyed'
p7375
aS'to'
p7376
aS'the'
p7377
aS'hallway'
p7378
asI1194
(lp7379
S'Mary'
p7380
aS'journeyed'
p7381
aS'to'
p7382
aS'the'
p7383
aS'bathroom'
p7384
asI1195
(lp7385
S'John'
p7386
aS'went'
p7387
aS'to'
p7388
aS'the'
p7389
aS'bathroom'
p7390
asI1196
(lp7391
S'Mary'
p7392
aS'went'
p7393
aS'back'
p7394
aS'to'
p7395
aS'the'
p7396
aS'kitchen'
p7397
asI1197
(lp7398
S'Daniel'
p7399
aS'went'
p7400
aS'back'
p7401
aS'to'
p7402
aS'the'
p7403
aS'bedroom'
p7404
asI1198
(lp7405
S'Sandra'
p7406
aS'travelled'
p7407
aS'to'
p7408
aS'the'
p7409
aS'bathroom'
p7410
asI1199
(lp7411
S'Sandra'
p7412
aS'journeyed'
p7413
aS'to'
p7414
aS'the'
p7415
aS'bedroom'
p7416
asI1200
(lp7417
S'Sandra'
p7418
aS'went'
p7419
aS'to'
p7420
aS'the'
p7421
aS'office'
p7422
asI1201
(lp7423
S'Mary'
p7424
aS'went'
p7425
aS'back'
p7426
aS'to'
p7427
aS'the'
p7428
aS'bedroom'
p7429
asI1202
(lp7430
S'Mary'
p7431
aS'travelled'
p7432
aS'to'
p7433
aS'the'
p7434
aS'garden'
p7435
asI1203
(lp7436
S'John'
p7437
aS'journeyed'
p7438
aS'to'
p7439
aS'the'
p7440
aS'kitchen'
p7441
asI1204
(lp7442
S'Sandra'
p7443
aS'went'
p7444
aS'back'
p7445
aS'to'
p7446
aS'the'
p7447
aS'office'
p7448
asI1205
(lp7449
S'Mary'
p7450
aS'journeyed'
p7451
aS'to'
p7452
aS'the'
p7453
aS'bedroom'
p7454
asI1206
(lp7455
S'Sandra'
p7456
aS'travelled'
p7457
aS'to'
p7458
aS'the'
p7459
aS'bathroom'
p7460
asI1207
(lp7461
S'Daniel'
p7462
aS'journeyed'
p7463
aS'to'
p7464
aS'the'
p7465
aS'garden'
p7466
asI1208
(lp7467
S'Mary'
p7468
aS'went'
p7469
aS'back'
p7470
aS'to'
p7471
aS'the'
p7472
aS'hallway'
p7473
asI1209
(lp7474
S'John'
p7475
aS'moved'
p7476
aS'to'
p7477
aS'the'
p7478
aS'bedroom'
p7479
asI1210
(lp7480
S'Mary'
p7481
aS'travelled'
p7482
aS'to'
p7483
aS'the'
p7484
aS'kitchen'
p7485
asI1211
(lp7486
S'Sandra'
p7487
aS'went'
p7488
aS'back'
p7489
aS'to'
p7490
aS'the'
p7491
aS'garden'
p7492
asI1212
(lp7493
S'Sandra'
p7494
aS'went'
p7495
aS'to'
p7496
aS'the'
p7497
aS'hallway'
p7498
asI1213
(lp7499
S'Mary'
p7500
aS'went'
p7501
aS'back'
p7502
aS'to'
p7503
aS'the'
p7504
aS'garden'
p7505
asI1214
(lp7506
S'Sandra'
p7507
aS'journeyed'
p7508
aS'to'
p7509
aS'the'
p7510
aS'office'
p7511
asI1215
(lp7512
S'Sandra'
p7513
aS'travelled'
p7514
aS'to'
p7515
aS'the'
p7516
aS'hallway'
p7517
asI1216
(lp7518
S'Sandra'
p7519
aS'moved'
p7520
aS'to'
p7521
aS'the'
p7522
aS'bedroom'
p7523
asI1217
(lp7524
S'Daniel'
p7525
aS'moved'
p7526
aS'to'
p7527
aS'the'
p7528
aS'office'
p7529
asI1218
(lp7530
S'Mary'
p7531
aS'journeyed'
p7532
aS'to'
p7533
aS'the'
p7534
aS'hallway'
p7535
asI1219
(lp7536
S'Mary'
p7537
aS'journeyed'
p7538
aS'to'
p7539
aS'the'
p7540
aS'bedroom'
p7541
asI1220
(lp7542
S'Daniel'
p7543
aS'went'
p7544
aS'back'
p7545
aS'to'
p7546
aS'the'
p7547
aS'kitchen'
p7548
asI1221
(lp7549
S'Sandra'
p7550
aS'journeyed'
p7551
aS'to'
p7552
aS'the'
p7553
aS'garden'
p7554
asI1222
(lp7555
S'Sandra'
p7556
aS'journeyed'
p7557
aS'to'
p7558
aS'the'
p7559
aS'kitchen'
p7560
asI1223
(lp7561
S'Daniel'
p7562
aS'journeyed'
p7563
aS'to'
p7564
aS'the'
p7565
aS'bedroom'
p7566
asI1224
(lp7567
S'Sandra'
p7568
aS'moved'
p7569
aS'to'
p7570
aS'the'
p7571
aS'garden'
p7572
asI1225
(lp7573
S'Mary'
p7574
aS'journeyed'
p7575
aS'to'
p7576
aS'the'
p7577
aS'office'
p7578
asI1226
(lp7579
S'Mary'
p7580
aS'journeyed'
p7581
aS'to'
p7582
aS'the'
p7583
aS'bathroom'
p7584
asI1227
(lp7585
S'Daniel'
p7586
aS'journeyed'
p7587
aS'to'
p7588
aS'the'
p7589
aS'garden'
p7590
asI1228
(lp7591
S'Mary'
p7592
aS'went'
p7593
aS'back'
p7594
aS'to'
p7595
aS'the'
p7596
aS'bedroom'
p7597
asI1229
(lp7598
S'Sandra'
p7599
aS'went'
p7600
aS'back'
p7601
aS'to'
p7602
aS'the'
p7603
aS'kitchen'
p7604
asI1230
(lp7605
S'Sandra'
p7606
aS'travelled'
p7607
aS'to'
p7608
aS'the'
p7609
aS'bedroom'
p7610
asI1231
(lp7611
S'Daniel'
p7612
aS'went'
p7613
aS'to'
p7614
aS'the'
p7615
aS'hallway'
p7616
asI1232
(lp7617
S'Daniel'
p7618
aS'moved'
p7619
aS'to'
p7620
aS'the'
p7621
aS'bedroom'
p7622
asI1233
(lp7623
S'Sandra'
p7624
aS'moved'
p7625
aS'to'
p7626
aS'the'
p7627
aS'office'
p7628
asI1234
(lp7629
S'Daniel'
p7630
aS'journeyed'
p7631
aS'to'
p7632
aS'the'
p7633
aS'hallway'
p7634
asI1235
(lp7635
S'John'
p7636
aS'journeyed'
p7637
aS'to'
p7638
aS'the'
p7639
aS'bathroom'
p7640
asI1236
(lp7641
S'Sandra'
p7642
aS'went'
p7643
aS'to'
p7644
aS'the'
p7645
aS'garden'
p7646
asI1237
(lp7647
S'John'
p7648
aS'moved'
p7649
aS'to'
p7650
aS'the'
p7651
aS'garden'
p7652
asI1238
(lp7653
S'Mary'
p7654
aS'journeyed'
p7655
aS'to'
p7656
aS'the'
p7657
aS'garden'
p7658
asI1239
(lp7659
S'Mary'
p7660
aS'went'
p7661
aS'to'
p7662
aS'the'
p7663
aS'office'
p7664
asI1240
(lp7665
S'Sandra'
p7666
aS'journeyed'
p7667
aS'to'
p7668
aS'the'
p7669
aS'hallway'
p7670
asI1241
(lp7671
S'John'
p7672
aS'travelled'
p7673
aS'to'
p7674
aS'the'
p7675
aS'garden'
p7676
asI1242
(lp7677
S'Daniel'
p7678
aS'journeyed'
p7679
aS'to'
p7680
aS'the'
p7681
aS'bedroom'
p7682
asI1243
(lp7683
S'Sandra'
p7684
aS'went'
p7685
aS'back'
p7686
aS'to'
p7687
aS'the'
p7688
aS'garden'
p7689
asI1244
(lp7690
S'Mary'
p7691
aS'went'
p7692
aS'to'
p7693
aS'the'
p7694
aS'kitchen'
p7695
asI1245
(lp7696
S'John'
p7697
aS'travelled'
p7698
aS'to'
p7699
aS'the'
p7700
aS'kitchen'
p7701
asI1246
(lp7702
S'Sandra'
p7703
aS'moved'
p7704
aS'to'
p7705
aS'the'
p7706
aS'bedroom'
p7707
asI1247
(lp7708
S'Daniel'
p7709
aS'moved'
p7710
aS'to'
p7711
aS'the'
p7712
aS'garden'
p7713
asI1248
(lp7714
S'Daniel'
p7715
aS'travelled'
p7716
aS'to'
p7717
aS'the'
p7718
aS'bedroom'
p7719
asI1249
(lp7720
S'Mary'
p7721
aS'journeyed'
p7722
aS'to'
p7723
aS'the'
p7724
aS'office'
p7725
asI1250
(lp7726
S'Sandra'
p7727
aS'moved'
p7728
aS'to'
p7729
aS'the'
p7730
aS'bathroom'
p7731
asI1251
(lp7732
S'John'
p7733
aS'travelled'
p7734
aS'to'
p7735
aS'the'
p7736
aS'bathroom'
p7737
asI1252
(lp7738
S'Sandra'
p7739
aS'went'
p7740
aS'to'
p7741
aS'the'
p7742
aS'kitchen'
p7743
asI1253
(lp7744
S'Daniel'
p7745
aS'went'
p7746
aS'to'
p7747
aS'the'
p7748
aS'garden'
p7749
asI1254
(lp7750
S'Mary'
p7751
aS'moved'
p7752
aS'to'
p7753
aS'the'
p7754
aS'bedroom'
p7755
asI1255
(lp7756
S'Sandra'
p7757
aS'moved'
p7758
aS'to'
p7759
aS'the'
p7760
aS'bathroom'
p7761
asI1256
(lp7762
S'John'
p7763
aS'moved'
p7764
aS'to'
p7765
aS'the'
p7766
aS'hallway'
p7767
asI1257
(lp7768
S'John'
p7769
aS'went'
p7770
aS'back'
p7771
aS'to'
p7772
aS'the'
p7773
aS'kitchen'
p7774
asI1258
(lp7775
S'Daniel'
p7776
aS'journeyed'
p7777
aS'to'
p7778
aS'the'
p7779
aS'hallway'
p7780
asI1259
(lp7781
S'Daniel'
p7782
aS'went'
p7783
aS'back'
p7784
aS'to'
p7785
aS'the'
p7786
aS'office'
p7787
asI1260
(lp7788
S'Sandra'
p7789
aS'went'
p7790
aS'back'
p7791
aS'to'
p7792
aS'the'
p7793
aS'hallway'
p7794
asI1261
(lp7795
S'Sandra'
p7796
aS'moved'
p7797
aS'to'
p7798
aS'the'
p7799
aS'office'
p7800
asI1262
(lp7801
S'Mary'
p7802
aS'went'
p7803
aS'back'
p7804
aS'to'
p7805
aS'the'
p7806
aS'bathroom'
p7807
asI1263
(lp7808
S'Mary'
p7809
aS'travelled'
p7810
aS'to'
p7811
aS'the'
p7812
aS'office'
p7813
asI1264
(lp7814
S'Sandra'
p7815
aS'moved'
p7816
aS'to'
p7817
aS'the'
p7818
aS'kitchen'
p7819
asI1265
(lp7820
S'Sandra'
p7821
aS'moved'
p7822
aS'to'
p7823
aS'the'
p7824
aS'bedroom'
p7825
asI1266
(lp7826
S'Mary'
p7827
aS'went'
p7828
aS'back'
p7829
aS'to'
p7830
aS'the'
p7831
aS'garden'
p7832
asI1267
(lp7833
S'John'
p7834
aS'went'
p7835
aS'to'
p7836
aS'the'
p7837
aS'hallway'
p7838
asI1268
(lp7839
S'Daniel'
p7840
aS'went'
p7841
aS'back'
p7842
aS'to'
p7843
aS'the'
p7844
aS'bathroom'
p7845
asI1269
(lp7846
S'John'
p7847
aS'travelled'
p7848
aS'to'
p7849
aS'the'
p7850
aS'garden'
p7851
asI1270
(lp7852
S'John'
p7853
aS'went'
p7854
aS'back'
p7855
aS'to'
p7856
aS'the'
p7857
aS'bathroom'
p7858
asI1271
(lp7859
S'Mary'
p7860
aS'travelled'
p7861
aS'to'
p7862
aS'the'
p7863
aS'garden'
p7864
asI1272
(lp7865
S'Daniel'
p7866
aS'went'
p7867
aS'to'
p7868
aS'the'
p7869
aS'garden'
p7870
asI1273
(lp7871
S'Mary'
p7872
aS'journeyed'
p7873
aS'to'
p7874
aS'the'
p7875
aS'kitchen'
p7876
asI1274
(lp7877
S'Mary'
p7878
aS'went'
p7879
aS'back'
p7880
aS'to'
p7881
aS'the'
p7882
aS'hallway'
p7883
asI1275
(lp7884
S'Daniel'
p7885
aS'travelled'
p7886
aS'to'
p7887
aS'the'
p7888
aS'office'
p7889
asI1276
(lp7890
S'Daniel'
p7891
aS'moved'
p7892
aS'to'
p7893
aS'the'
p7894
aS'garden'
p7895
asI1277
(lp7896
S'Sandra'
p7897
aS'went'
p7898
aS'back'
p7899
aS'to'
p7900
aS'the'
p7901
aS'kitchen'
p7902
asI1278
(lp7903
S'John'
p7904
aS'travelled'
p7905
aS'to'
p7906
aS'the'
p7907
aS'bathroom'
p7908
asI1279
(lp7909
S'Daniel'
p7910
aS'went'
p7911
aS'to'
p7912
aS'the'
p7913
aS'kitchen'
p7914
asI1280
(lp7915
S'Mary'
p7916
aS'moved'
p7917
aS'to'
p7918
aS'the'
p7919
aS'office'
p7920
asI1281
(lp7921
S'Mary'
p7922
aS'went'
p7923
aS'to'
p7924
aS'the'
p7925
aS'office'
p7926
asI1282
(lp7927
S'Sandra'
p7928
aS'travelled'
p7929
aS'to'
p7930
aS'the'
p7931
aS'bathroom'
p7932
asI1283
(lp7933
S'Sandra'
p7934
aS'went'
p7935
aS'to'
p7936
aS'the'
p7937
aS'hallway'
p7938
asI1284
(lp7939
S'Daniel'
p7940
aS'journeyed'
p7941
aS'to'
p7942
aS'the'
p7943
aS'kitchen'
p7944
asI1285
(lp7945
S'Sandra'
p7946
aS'travelled'
p7947
aS'to'
p7948
aS'the'
p7949
aS'office'
p7950
asI1286
(lp7951
S'John'
p7952
aS'journeyed'
p7953
aS'to'
p7954
aS'the'
p7955
aS'bedroom'
p7956
asI1287
(lp7957
S'Daniel'
p7958
aS'moved'
p7959
aS'to'
p7960
aS'the'
p7961
aS'hallway'
p7962
asI1288
(lp7963
S'Sandra'
p7964
aS'went'
p7965
aS'to'
p7966
aS'the'
p7967
aS'hallway'
p7968
asI1289
(lp7969
S'John'
p7970
aS'journeyed'
p7971
aS'to'
p7972
aS'the'
p7973
aS'garden'
p7974
asI1290
(lp7975
S'Sandra'
p7976
aS'went'
p7977
aS'back'
p7978
aS'to'
p7979
aS'the'
p7980
aS'garden'
p7981
asI1291
(lp7982
S'Sandra'
p7983
aS'journeyed'
p7984
aS'to'
p7985
aS'the'
p7986
aS'garden'
p7987
asI1292
(lp7988
S'Daniel'
p7989
aS'travelled'
p7990
aS'to'
p7991
aS'the'
p7992
aS'bathroom'
p7993
asI1293
(lp7994
S'Sandra'
p7995
aS'went'
p7996
aS'to'
p7997
aS'the'
p7998
aS'bedroom'
p7999
asI1294
(lp8000
S'Sandra'
p8001
aS'travelled'
p8002
aS'to'
p8003
aS'the'
p8004
aS'hallway'
p8005
asI1295
(lp8006
S'Sandra'
p8007
aS'travelled'
p8008
aS'to'
p8009
aS'the'
p8010
aS'office'
p8011
asI1296
(lp8012
S'Sandra'
p8013
aS'went'
p8014
aS'back'
p8015
aS'to'
p8016
aS'the'
p8017
aS'garden'
p8018
asI1297
(lp8019
S'John'
p8020
aS'journeyed'
p8021
aS'to'
p8022
aS'the'
p8023
aS'hallway'
p8024
asI1298
(lp8025
S'John'
p8026
aS'moved'
p8027
aS'to'
p8028
aS'the'
p8029
aS'bedroom'
p8030
asI1299
(lp8031
S'Sandra'
p8032
aS'moved'
p8033
aS'to'
p8034
aS'the'
p8035
aS'kitchen'
p8036
asI1300
(lp8037
S'John'
p8038
aS'journeyed'
p8039
aS'to'
p8040
aS'the'
p8041
aS'kitchen'
p8042
asI1301
(lp8043
S'Sandra'
p8044
aS'went'
p8045
aS'to'
p8046
aS'the'
p8047
aS'bedroom'
p8048
asI1302
(lp8049
S'Mary'
p8050
aS'moved'
p8051
aS'to'
p8052
aS'the'
p8053
aS'bedroom'
p8054
asI1303
(lp8055
S'John'
p8056
aS'went'
p8057
aS'to'
p8058
aS'the'
p8059
aS'office'
p8060
asI1304
(lp8061
S'Daniel'
p8062
aS'journeyed'
p8063
aS'to'
p8064
aS'the'
p8065
aS'garden'
p8066
asI1305
(lp8067
S'Mary'
p8068
aS'travelled'
p8069
aS'to'
p8070
aS'the'
p8071
aS'bathroom'
p8072
asI1306
(lp8073
S'Daniel'
p8074
aS'moved'
p8075
aS'to'
p8076
aS'the'
p8077
aS'hallway'
p8078
asI1307
(lp8079
S'Daniel'
p8080
aS'travelled'
p8081
aS'to'
p8082
aS'the'
p8083
aS'garden'
p8084
asI1308
(lp8085
S'John'
p8086
aS'moved'
p8087
aS'to'
p8088
aS'the'
p8089
aS'garden'
p8090
asI1309
(lp8091
S'Mary'
p8092
aS'went'
p8093
aS'to'
p8094
aS'the'
p8095
aS'garden'
p8096
asI1310
(lp8097
S'Mary'
p8098
aS'went'
p8099
aS'to'
p8100
aS'the'
p8101
aS'bedroom'
p8102
asI1311
(lp8103
S'Mary'
p8104
aS'moved'
p8105
aS'to'
p8106
aS'the'
p8107
aS'kitchen'
p8108
asI1312
(lp8109
S'John'
p8110
aS'travelled'
p8111
aS'to'
p8112
aS'the'
p8113
aS'office'
p8114
asI1313
(lp8115
S'Daniel'
p8116
aS'went'
p8117
aS'to'
p8118
aS'the'
p8119
aS'hallway'
p8120
asI1314
(lp8121
S'Daniel'
p8122
aS'went'
p8123
aS'back'
p8124
aS'to'
p8125
aS'the'
p8126
aS'kitchen'
p8127
asI1315
(lp8128
S'Sandra'
p8129
aS'went'
p8130
aS'back'
p8131
aS'to'
p8132
aS'the'
p8133
aS'hallway'
p8134
asI1316
(lp8135
S'John'
p8136
aS'travelled'
p8137
aS'to'
p8138
aS'the'
p8139
aS'bedroom'
p8140
asI1317
(lp8141
S'Daniel'
p8142
aS'travelled'
p8143
aS'to'
p8144
aS'the'
p8145
aS'garden'
p8146
asI1318
(lp8147
S'Mary'
p8148
aS'moved'
p8149
aS'to'
p8150
aS'the'
p8151
aS'office'
p8152
asI1319
(lp8153
S'Mary'
p8154
aS'journeyed'
p8155
aS'to'
p8156
aS'the'
p8157
aS'garden'
p8158
asI1320
(lp8159
S'John'
p8160
aS'went'
p8161
aS'to'
p8162
aS'the'
p8163
aS'office'
p8164
asI1321
(lp8165
S'Daniel'
p8166
aS'went'
p8167
aS'to'
p8168
aS'the'
p8169
aS'bedroom'
p8170
asI1322
(lp8171
S'Mary'
p8172
aS'travelled'
p8173
aS'to'
p8174
aS'the'
p8175
aS'bathroom'
p8176
asI1323
(lp8177
S'John'
p8178
aS'went'
p8179
aS'back'
p8180
aS'to'
p8181
aS'the'
p8182
aS'kitchen'
p8183
asI1324
(lp8184
S'John'
p8185
aS'travelled'
p8186
aS'to'
p8187
aS'the'
p8188
aS'hallway'
p8189
asI1325
(lp8190
S'Mary'
p8191
aS'travelled'
p8192
aS'to'
p8193
aS'the'
p8194
aS'hallway'
p8195
asI1326
(lp8196
S'John'
p8197
aS'travelled'
p8198
aS'to'
p8199
aS'the'
p8200
aS'garden'
p8201
asI1327
(lp8202
S'Sandra'
p8203
aS'went'
p8204
aS'to'
p8205
aS'the'
p8206
aS'office'
p8207
asI1328
(lp8208
S'Mary'
p8209
aS'moved'
p8210
aS'to'
p8211
aS'the'
p8212
aS'bathroom'
p8213
asI1329
(lp8214
S'Mary'
p8215
aS'journeyed'
p8216
aS'to'
p8217
aS'the'
p8218
aS'garden'
p8219
asI1330
(lp8220
S'John'
p8221
aS'went'
p8222
aS'to'
p8223
aS'the'
p8224
aS'hallway'
p8225
asI1331
(lp8226
S'John'
p8227
aS'moved'
p8228
aS'to'
p8229
aS'the'
p8230
aS'hallway'
p8231
asI1332
(lp8232
S'Mary'
p8233
aS'moved'
p8234
aS'to'
p8235
aS'the'
p8236
aS'garden'
p8237
asI1333
(lp8238
S'Daniel'
p8239
aS'travelled'
p8240
aS'to'
p8241
aS'the'
p8242
aS'garden'
p8243
asI1334
(lp8244
S'Mary'
p8245
aS'went'
p8246
aS'to'
p8247
aS'the'
p8248
aS'bathroom'
p8249
asI1335
(lp8250
S'Mary'
p8251
aS'went'
p8252
aS'back'
p8253
aS'to'
p8254
aS'the'
p8255
aS'bedroom'
p8256
asI1336
(lp8257
S'John'
p8258
aS'went'
p8259
aS'to'
p8260
aS'the'
p8261
aS'kitchen'
p8262
asI1337
(lp8263
S'Sandra'
p8264
aS'went'
p8265
aS'back'
p8266
aS'to'
p8267
aS'the'
p8268
aS'hallway'
p8269
asI1338
(lp8270
S'John'
p8271
aS'went'
p8272
aS'to'
p8273
aS'the'
p8274
aS'bathroom'
p8275
asI1339
(lp8276
S'Mary'
p8277
aS'went'
p8278
aS'back'
p8279
aS'to'
p8280
aS'the'
p8281
aS'office'
p8282
asI1340
(lp8283
S'John'
p8284
aS'travelled'
p8285
aS'to'
p8286
aS'the'
p8287
aS'bedroom'
p8288
asI1341
(lp8289
S'John'
p8290
aS'went'
p8291
aS'to'
p8292
aS'the'
p8293
aS'bedroom'
p8294
asI1342
(lp8295
S'Daniel'
p8296
aS'journeyed'
p8297
aS'to'
p8298
aS'the'
p8299
aS'bedroom'
p8300
asI1343
(lp8301
S'Daniel'
p8302
aS'journeyed'
p8303
aS'to'
p8304
aS'the'
p8305
aS'kitchen'
p8306
asI1344
(lp8307
S'Sandra'
p8308
aS'went'
p8309
aS'back'
p8310
aS'to'
p8311
aS'the'
p8312
aS'bedroom'
p8313
asI1345
(lp8314
S'Mary'
p8315
aS'journeyed'
p8316
aS'to'
p8317
aS'the'
p8318
aS'hallway'
p8319
asI1346
(lp8320
S'Daniel'
p8321
aS'journeyed'
p8322
aS'to'
p8323
aS'the'
p8324
aS'hallway'
p8325
asI1347
(lp8326
S'Daniel'
p8327
aS'went'
p8328
aS'to'
p8329
aS'the'
p8330
aS'bedroom'
p8331
asI1348
(lp8332
S'Mary'
p8333
aS'journeyed'
p8334
aS'to'
p8335
aS'the'
p8336
aS'garden'
p8337
asI1349
(lp8338
S'John'
p8339
aS'went'
p8340
aS'to'
p8341
aS'the'
p8342
aS'office'
p8343
asI1350
(lp8344
S'John'
p8345
aS'moved'
p8346
aS'to'
p8347
aS'the'
p8348
aS'hallway'
p8349
asI1351
(lp8350
S'John'
p8351
aS'went'
p8352
aS'back'
p8353
aS'to'
p8354
aS'the'
p8355
aS'hallway'
p8356
asI1352
(lp8357
S'Daniel'
p8358
aS'moved'
p8359
aS'to'
p8360
aS'the'
p8361
aS'garden'
p8362
asI1353
(lp8363
S'Sandra'
p8364
aS'travelled'
p8365
aS'to'
p8366
aS'the'
p8367
aS'bathroom'
p8368
asI1354
(lp8369
S'Mary'
p8370
aS'went'
p8371
aS'back'
p8372
aS'to'
p8373
aS'the'
p8374
aS'office'
p8375
asI1355
(lp8376
S'Sandra'
p8377
aS'travelled'
p8378
aS'to'
p8379
aS'the'
p8380
aS'hallway'
p8381
asI1356
(lp8382
S'Sandra'
p8383
aS'went'
p8384
aS'back'
p8385
aS'to'
p8386
aS'the'
p8387
aS'bedroom'
p8388
asI1357
(lp8389
S'Daniel'
p8390
aS'moved'
p8391
aS'to'
p8392
aS'the'
p8393
aS'bedroom'
p8394
asI1358
(lp8395
S'Daniel'
p8396
aS'travelled'
p8397
aS'to'
p8398
aS'the'
p8399
aS'hallway'
p8400
asI1359
(lp8401
S'Daniel'
p8402
aS'travelled'
p8403
aS'to'
p8404
aS'the'
p8405
aS'garden'
p8406
asI1360
(lp8407
S'Daniel'
p8408
aS'moved'
p8409
aS'to'
p8410
aS'the'
p8411
aS'hallway'
p8412
asI1361
(lp8413
S'Mary'
p8414
aS'went'
p8415
aS'back'
p8416
aS'to'
p8417
aS'the'
p8418
aS'kitchen'
p8419
asI1362
(lp8420
S'Sandra'
p8421
aS'travelled'
p8422
aS'to'
p8423
aS'the'
p8424
aS'kitchen'
p8425
asI1363
(lp8426
S'John'
p8427
aS'moved'
p8428
aS'to'
p8429
aS'the'
p8430
aS'bathroom'
p8431
asI1364
(lp8432
S'Sandra'
p8433
aS'travelled'
p8434
aS'to'
p8435
aS'the'
p8436
aS'bedroom'
p8437
asI1365
(lp8438
S'John'
p8439
aS'went'
p8440
aS'to'
p8441
aS'the'
p8442
aS'hallway'
p8443
asI1366
(lp8444
S'Daniel'
p8445
aS'went'
p8446
aS'to'
p8447
aS'the'
p8448
aS'hallway'
p8449
asI1367
(lp8450
S'John'
p8451
aS'went'
p8452
aS'to'
p8453
aS'the'
p8454
aS'kitchen'
p8455
asI1368
(lp8456
S'Sandra'
p8457
aS'moved'
p8458
aS'to'
p8459
aS'the'
p8460
aS'kitchen'
p8461
asI1369
(lp8462
S'Daniel'
p8463
aS'travelled'
p8464
aS'to'
p8465
aS'the'
p8466
aS'kitchen'
p8467
asI1370
(lp8468
S'Daniel'
p8469
aS'moved'
p8470
aS'to'
p8471
aS'the'
p8472
aS'office'
p8473
asI1371
(lp8474
S'Sandra'
p8475
aS'went'
p8476
aS'to'
p8477
aS'the'
p8478
aS'kitchen'
p8479
asI1372
(lp8480
S'Mary'
p8481
aS'moved'
p8482
aS'to'
p8483
aS'the'
p8484
aS'kitchen'
p8485
asI1373
(lp8486
S'Sandra'
p8487
aS'moved'
p8488
aS'to'
p8489
aS'the'
p8490
aS'hallway'
p8491
asI1374
(lp8492
S'Mary'
p8493
aS'went'
p8494
aS'to'
p8495
aS'the'
p8496
aS'office'
p8497
asI1375
(lp8498
S'Daniel'
p8499
aS'journeyed'
p8500
aS'to'
p8501
aS'the'
p8502
aS'garden'
p8503
asI1376
(lp8504
S'Sandra'
p8505
aS'journeyed'
p8506
aS'to'
p8507
aS'the'
p8508
aS'garden'
p8509
asI1377
(lp8510
S'Daniel'
p8511
aS'went'
p8512
aS'back'
p8513
aS'to'
p8514
aS'the'
p8515
aS'kitchen'
p8516
asI1378
(lp8517
S'Sandra'
p8518
aS'moved'
p8519
aS'to'
p8520
aS'the'
p8521
aS'office'
p8522
asI1379
(lp8523
S'Daniel'
p8524
aS'moved'
p8525
aS'to'
p8526
aS'the'
p8527
aS'bedroom'
p8528
asI1380
(lp8529
S'John'
p8530
aS'travelled'
p8531
aS'to'
p8532
aS'the'
p8533
aS'bathroom'
p8534
asI1381
(lp8535
S'Daniel'
p8536
aS'went'
p8537
aS'back'
p8538
aS'to'
p8539
aS'the'
p8540
aS'hallway'
p8541
asI1382
(lp8542
S'Mary'
p8543
aS'travelled'
p8544
aS'to'
p8545
aS'the'
p8546
aS'kitchen'
p8547
asI1383
(lp8548
S'John'
p8549
aS'went'
p8550
aS'back'
p8551
aS'to'
p8552
aS'the'
p8553
aS'office'
p8554
asI1384
(lp8555
S'John'
p8556
aS'journeyed'
p8557
aS'to'
p8558
aS'the'
p8559
aS'bathroom'
p8560
asI1385
(lp8561
S'John'
p8562
aS'travelled'
p8563
aS'to'
p8564
aS'the'
p8565
aS'kitchen'
p8566
asI1386
(lp8567
S'John'
p8568
aS'went'
p8569
aS'to'
p8570
aS'the'
p8571
aS'bedroom'
p8572
asI1387
(lp8573
S'Mary'
p8574
aS'moved'
p8575
aS'to'
p8576
aS'the'
p8577
aS'bathroom'
p8578
asI1388
(lp8579
S'John'
p8580
aS'journeyed'
p8581
aS'to'
p8582
aS'the'
p8583
aS'garden'
p8584
asI1389
(lp8585
S'Daniel'
p8586
aS'journeyed'
p8587
aS'to'
p8588
aS'the'
p8589
aS'kitchen'
p8590
asI1390
(lp8591
S'Daniel'
p8592
aS'travelled'
p8593
aS'to'
p8594
aS'the'
p8595
aS'bathroom'
p8596
asI1391
(lp8597
S'Daniel'
p8598
aS'travelled'
p8599
aS'to'
p8600
aS'the'
p8601
aS'hallway'
p8602
asI1392
(lp8603
S'John'
p8604
aS'journeyed'
p8605
aS'to'
p8606
aS'the'
p8607
aS'hallway'
p8608
asI1393
(lp8609
S'John'
p8610
aS'journeyed'
p8611
aS'to'
p8612
aS'the'
p8613
aS'office'
p8614
asI1394
(lp8615
S'Daniel'
p8616
aS'went'
p8617
aS'to'
p8618
aS'the'
p8619
aS'kitchen'
p8620
asI1395
(lp8621
S'Daniel'
p8622
aS'travelled'
p8623
aS'to'
p8624
aS'the'
p8625
aS'hallway'
p8626
asI1396
(lp8627
S'John'
p8628
aS'journeyed'
p8629
aS'to'
p8630
aS'the'
p8631
aS'hallway'
p8632
asI1397
(lp8633
S'Daniel'
p8634
aS'travelled'
p8635
aS'to'
p8636
aS'the'
p8637
aS'kitchen'
p8638
asI1398
(lp8639
S'Daniel'
p8640
aS'went'
p8641
aS'back'
p8642
aS'to'
p8643
aS'the'
p8644
aS'hallway'
p8645
asI1399
(lp8646
S'John'
p8647
aS'went'
p8648
aS'to'
p8649
aS'the'
p8650
aS'office'
p8651
asI1400
(lp8652
S'John'
p8653
aS'went'
p8654
aS'to'
p8655
aS'the'
p8656
aS'bathroom'
p8657
asI1401
(lp8658
S'John'
p8659
aS'went'
p8660
aS'to'
p8661
aS'the'
p8662
aS'bedroom'
p8663
asI1402
(lp8664
S'John'
p8665
aS'went'
p8666
aS'back'
p8667
aS'to'
p8668
aS'the'
p8669
aS'office'
p8670
asI1403
(lp8671
S'Daniel'
p8672
aS'moved'
p8673
aS'to'
p8674
aS'the'
p8675
aS'bathroom'
p8676
asI1404
(lp8677
S'Mary'
p8678
aS'journeyed'
p8679
aS'to'
p8680
aS'the'
p8681
aS'garden'
p8682
asI1405
(lp8683
S'Sandra'
p8684
aS'moved'
p8685
aS'to'
p8686
aS'the'
p8687
aS'kitchen'
p8688
asI1406
(lp8689
S'Sandra'
p8690
aS'went'
p8691
aS'to'
p8692
aS'the'
p8693
aS'bathroom'
p8694
asI1407
(lp8695
S'Daniel'
p8696
aS'went'
p8697
aS'to'
p8698
aS'the'
p8699
aS'bedroom'
p8700
asI1408
(lp8701
S'Sandra'
p8702
aS'went'
p8703
aS'to'
p8704
aS'the'
p8705
aS'hallway'
p8706
asI1409
(lp8707
S'John'
p8708
aS'went'
p8709
aS'back'
p8710
aS'to'
p8711
aS'the'
p8712
aS'bedroom'
p8713
asI1410
(lp8714
S'Mary'
p8715
aS'moved'
p8716
aS'to'
p8717
aS'the'
p8718
aS'kitchen'
p8719
asI1411
(lp8720
S'Mary'
p8721
aS'went'
p8722
aS'back'
p8723
aS'to'
p8724
aS'the'
p8725
aS'kitchen'
p8726
asI1412
(lp8727
S'John'
p8728
aS'went'
p8729
aS'back'
p8730
aS'to'
p8731
aS'the'
p8732
aS'office'
p8733
asI1413
(lp8734
S'Daniel'
p8735
aS'journeyed'
p8736
aS'to'
p8737
aS'the'
p8738
aS'bedroom'
p8739
asI1414
(lp8740
S'Mary'
p8741
aS'travelled'
p8742
aS'to'
p8743
aS'the'
p8744
aS'bathroom'
p8745
asI1415
(lp8746
S'John'
p8747
aS'journeyed'
p8748
aS'to'
p8749
aS'the'
p8750
aS'kitchen'
p8751
asI1416
(lp8752
S'Sandra'
p8753
aS'journeyed'
p8754
aS'to'
p8755
aS'the'
p8756
aS'kitchen'
p8757
asI1417
(lp8758
S'Daniel'
p8759
aS'travelled'
p8760
aS'to'
p8761
aS'the'
p8762
aS'office'
p8763
asI1418
(lp8764
S'Daniel'
p8765
aS'journeyed'
p8766
aS'to'
p8767
aS'the'
p8768
aS'bathroom'
p8769
asI1419
(lp8770
S'John'
p8771
aS'travelled'
p8772
aS'to'
p8773
aS'the'
p8774
aS'office'
p8775
asI1420
(lp8776
S'Daniel'
p8777
aS'went'
p8778
aS'back'
p8779
aS'to'
p8780
aS'the'
p8781
aS'kitchen'
p8782
asI1421
(lp8783
S'Mary'
p8784
aS'moved'
p8785
aS'to'
p8786
aS'the'
p8787
aS'bedroom'
p8788
asI1422
(lp8789
S'Sandra'
p8790
aS'moved'
p8791
aS'to'
p8792
aS'the'
p8793
aS'garden'
p8794
asI1423
(lp8795
S'John'
p8796
aS'travelled'
p8797
aS'to'
p8798
aS'the'
p8799
aS'office'
p8800
asI1424
(lp8801
S'Sandra'
p8802
aS'journeyed'
p8803
aS'to'
p8804
aS'the'
p8805
aS'office'
p8806
asI1425
(lp8807
S'Mary'
p8808
aS'journeyed'
p8809
aS'to'
p8810
aS'the'
p8811
aS'garden'
p8812
asI1426
(lp8813
S'Sandra'
p8814
aS'journeyed'
p8815
aS'to'
p8816
aS'the'
p8817
aS'hallway'
p8818
asI1427
(lp8819
S'Daniel'
p8820
aS'went'
p8821
aS'back'
p8822
aS'to'
p8823
aS'the'
p8824
aS'kitchen'
p8825
asI1428
(lp8826
S'Sandra'
p8827
aS'went'
p8828
aS'back'
p8829
aS'to'
p8830
aS'the'
p8831
aS'garden'
p8832
asI1429
(lp8833
S'Sandra'
p8834
aS'moved'
p8835
aS'to'
p8836
aS'the'
p8837
aS'kitchen'
p8838
asI1430
(lp8839
S'John'
p8840
aS'went'
p8841
aS'back'
p8842
aS'to'
p8843
aS'the'
p8844
aS'bathroom'
p8845
asI1431
(lp8846
S'Sandra'
p8847
aS'went'
p8848
aS'to'
p8849
aS'the'
p8850
aS'garden'
p8851
asI1432
(lp8852
S'Mary'
p8853
aS'journeyed'
p8854
aS'to'
p8855
aS'the'
p8856
aS'office'
p8857
asI1433
(lp8858
S'John'
p8859
aS'went'
p8860
aS'to'
p8861
aS'the'
p8862
aS'hallway'
p8863
asI1434
(lp8864
S'Sandra'
p8865
aS'journeyed'
p8866
aS'to'
p8867
aS'the'
p8868
aS'bathroom'
p8869
asI1435
(lp8870
S'Daniel'
p8871
aS'went'
p8872
aS'to'
p8873
aS'the'
p8874
aS'hallway'
p8875
asI1436
(lp8876
S'Daniel'
p8877
aS'went'
p8878
aS'to'
p8879
aS'the'
p8880
aS'office'
p8881
asI1437
(lp8882
S'Mary'
p8883
aS'moved'
p8884
aS'to'
p8885
aS'the'
p8886
aS'garden'
p8887
asI1438
(lp8888
S'Mary'
p8889
aS'moved'
p8890
aS'to'
p8891
aS'the'
p8892
aS'office'
p8893
asI1439
(lp8894
S'Sandra'
p8895
aS'moved'
p8896
aS'to'
p8897
aS'the'
p8898
aS'hallway'
p8899
asI1440
(lp8900
S'John'
p8901
aS'travelled'
p8902
aS'to'
p8903
aS'the'
p8904
aS'office'
p8905
asI1441
(lp8906
S'Sandra'
p8907
aS'travelled'
p8908
aS'to'
p8909
aS'the'
p8910
aS'hallway'
p8911
asI1442
(lp8912
S'Mary'
p8913
aS'moved'
p8914
aS'to'
p8915
aS'the'
p8916
aS'office'
p8917
asI1443
(lp8918
S'John'
p8919
aS'went'
p8920
aS'back'
p8921
aS'to'
p8922
aS'the'
p8923
aS'kitchen'
p8924
asI1444
(lp8925
S'John'
p8926
aS'went'
p8927
aS'to'
p8928
aS'the'
p8929
aS'office'
p8930
asI1445
(lp8931
S'Mary'
p8932
aS'went'
p8933
aS'back'
p8934
aS'to'
p8935
aS'the'
p8936
aS'kitchen'
p8937
asI1446
(lp8938
S'John'
p8939
aS'journeyed'
p8940
aS'to'
p8941
aS'the'
p8942
aS'hallway'
p8943
asI1447
(lp8944
S'Daniel'
p8945
aS'moved'
p8946
aS'to'
p8947
aS'the'
p8948
aS'office'
p8949
asI1448
(lp8950
S'John'
p8951
aS'journeyed'
p8952
aS'to'
p8953
aS'the'
p8954
aS'bathroom'
p8955
asI1449
(lp8956
S'Daniel'
p8957
aS'journeyed'
p8958
aS'to'
p8959
aS'the'
p8960
aS'bedroom'
p8961
asI1450
(lp8962
S'Sandra'
p8963
aS'travelled'
p8964
aS'to'
p8965
aS'the'
p8966
aS'garden'
p8967
asI1451
(lp8968
S'Daniel'
p8969
aS'went'
p8970
aS'to'
p8971
aS'the'
p8972
aS'bedroom'
p8973
asI1452
(lp8974
S'John'
p8975
aS'went'
p8976
aS'back'
p8977
aS'to'
p8978
aS'the'
p8979
aS'kitchen'
p8980
asI1453
(lp8981
S'John'
p8982
aS'moved'
p8983
aS'to'
p8984
aS'the'
p8985
aS'bedroom'
p8986
asI1454
(lp8987
S'Mary'
p8988
aS'travelled'
p8989
aS'to'
p8990
aS'the'
p8991
aS'office'
p8992
asI1455
(lp8993
S'Sandra'
p8994
aS'went'
p8995
aS'to'
p8996
aS'the'
p8997
aS'office'
p8998
asI1456
(lp8999
S'Sandra'
p9000
aS'went'
p9001
aS'back'
p9002
aS'to'
p9003
aS'the'
p9004
aS'hallway'
p9005
asI1457
(lp9006
S'John'
p9007
aS'went'
p9008
aS'back'
p9009
aS'to'
p9010
aS'the'
p9011
aS'kitchen'
p9012
asI1458
(lp9013
S'Mary'
p9014
aS'went'
p9015
aS'back'
p9016
aS'to'
p9017
aS'the'
p9018
aS'garden'
p9019
asI1459
(lp9020
S'Mary'
p9021
aS'journeyed'
p9022
aS'to'
p9023
aS'the'
p9024
aS'bathroom'
p9025
asI1460
(lp9026
S'Daniel'
p9027
aS'travelled'
p9028
aS'to'
p9029
aS'the'
p9030
aS'hallway'
p9031
asI1461
(lp9032
S'John'
p9033
aS'went'
p9034
aS'to'
p9035
aS'the'
p9036
aS'bathroom'
p9037
asI1462
(lp9038
S'John'
p9039
aS'went'
p9040
aS'back'
p9041
aS'to'
p9042
aS'the'
p9043
aS'hallway'
p9044
asI1463
(lp9045
S'Sandra'
p9046
aS'went'
p9047
aS'back'
p9048
aS'to'
p9049
aS'the'
p9050
aS'kitchen'
p9051
asI1464
(lp9052
S'Daniel'
p9053
aS'went'
p9054
aS'back'
p9055
aS'to'
p9056
aS'the'
p9057
aS'office'
p9058
asI1465
(lp9059
S'Daniel'
p9060
aS'went'
p9061
aS'back'
p9062
aS'to'
p9063
aS'the'
p9064
aS'bathroom'
p9065
asI1466
(lp9066
S'Daniel'
p9067
aS'moved'
p9068
aS'to'
p9069
aS'the'
p9070
aS'bedroom'
p9071
asI1467
(lp9072
S'Mary'
p9073
aS'went'
p9074
aS'to'
p9075
aS'the'
p9076
aS'office'
p9077
asI1468
(lp9078
S'Sandra'
p9079
aS'travelled'
p9080
aS'to'
p9081
aS'the'
p9082
aS'office'
p9083
asI1469
(lp9084
S'John'
p9085
aS'moved'
p9086
aS'to'
p9087
aS'the'
p9088
aS'bedroom'
p9089
asI1470
(lp9090
S'Mary'
p9091
aS'went'
p9092
aS'back'
p9093
aS'to'
p9094
aS'the'
p9095
aS'kitchen'
p9096
asI1471
(lp9097
S'Sandra'
p9098
aS'went'
p9099
aS'to'
p9100
aS'the'
p9101
aS'garden'
p9102
asI1472
(lp9103
S'John'
p9104
aS'journeyed'
p9105
aS'to'
p9106
aS'the'
p9107
aS'kitchen'
p9108
asI1473
(lp9109
S'John'
p9110
aS'went'
p9111
aS'back'
p9112
aS'to'
p9113
aS'the'
p9114
aS'office'
p9115
asI1474
(lp9116
S'Daniel'
p9117
aS'moved'
p9118
aS'to'
p9119
aS'the'
p9120
aS'garden'
p9121
asI1475
(lp9122
S'Mary'
p9123
aS'went'
p9124
aS'back'
p9125
aS'to'
p9126
aS'the'
p9127
aS'hallway'
p9128
asI1476
(lp9129
S'Sandra'
p9130
aS'moved'
p9131
aS'to'
p9132
aS'the'
p9133
aS'bedroom'
p9134
asI1477
(lp9135
S'Daniel'
p9136
aS'journeyed'
p9137
aS'to'
p9138
aS'the'
p9139
aS'hallway'
p9140
asI1478
(lp9141
S'Sandra'
p9142
aS'travelled'
p9143
aS'to'
p9144
aS'the'
p9145
aS'bathroom'
p9146
asI1479
(lp9147
S'Daniel'
p9148
aS'moved'
p9149
aS'to'
p9150
aS'the'
p9151
aS'kitchen'
p9152
asI1480
(lp9153
S'Sandra'
p9154
aS'went'
p9155
aS'to'
p9156
aS'the'
p9157
aS'garden'
p9158
asI1481
(lp9159
S'Daniel'
p9160
aS'travelled'
p9161
aS'to'
p9162
aS'the'
p9163
aS'hallway'
p9164
asI1482
(lp9165
S'John'
p9166
aS'travelled'
p9167
aS'to'
p9168
aS'the'
p9169
aS'office'
p9170
asI1483
(lp9171
S'Daniel'
p9172
aS'went'
p9173
aS'to'
p9174
aS'the'
p9175
aS'bedroom'
p9176
asI1484
(lp9177
S'Daniel'
p9178
aS'went'
p9179
aS'back'
p9180
aS'to'
p9181
aS'the'
p9182
aS'office'
p9183
asI1485
(lp9184
S'Mary'
p9185
aS'went'
p9186
aS'to'
p9187
aS'the'
p9188
aS'bedroom'
p9189
asI1486
(lp9190
S'Mary'
p9191
aS'went'
p9192
aS'to'
p9193
aS'the'
p9194
aS'hallway'
p9195
asI1487
(lp9196
S'Mary'
p9197
aS'travelled'
p9198
aS'to'
p9199
aS'the'
p9200
aS'office'
p9201
asI1488
(lp9202
S'Sandra'
p9203
aS'went'
p9204
aS'to'
p9205
aS'the'
p9206
aS'garden'
p9207
asI1489
(lp9208
S'Daniel'
p9209
aS'journeyed'
p9210
aS'to'
p9211
aS'the'
p9212
aS'bedroom'
p9213
asI1490
(lp9214
S'John'
p9215
aS'journeyed'
p9216
aS'to'
p9217
aS'the'
p9218
aS'bedroom'
p9219
asI1491
(lp9220
S'Daniel'
p9221
aS'journeyed'
p9222
aS'to'
p9223
aS'the'
p9224
aS'hallway'
p9225
asI1492
(lp9226
S'Sandra'
p9227
aS'went'
p9228
aS'back'
p9229
aS'to'
p9230
aS'the'
p9231
aS'bathroom'
p9232
asI1493
(lp9233
S'John'
p9234
aS'went'
p9235
aS'to'
p9236
aS'the'
p9237
aS'bedroom'
p9238
asI1494
(lp9239
S'Sandra'
p9240
aS'moved'
p9241
aS'to'
p9242
aS'the'
p9243
aS'office'
p9244
asI1495
(lp9245
S'Daniel'
p9246
aS'went'
p9247
aS'to'
p9248
aS'the'
p9249
aS'bathroom'
p9250
asI1496
(lp9251
S'Mary'
p9252
aS'travelled'
p9253
aS'to'
p9254
aS'the'
p9255
aS'bathroom'
p9256
asI1497
(lp9257
S'Sandra'
p9258
aS'went'
p9259
aS'back'
p9260
aS'to'
p9261
aS'the'
p9262
aS'hallway'
p9263
asI1498
(lp9264
S'John'
p9265
aS'went'
p9266
aS'to'
p9267
aS'the'
p9268
aS'office'
p9269
asI1499
(lp9270
S'John'
p9271
aS'moved'
p9272
aS'to'
p9273
aS'the'
p9274
aS'kitchen'
p9275
asI1500
(lp9276
S'John'
p9277
aS'went'
p9278
aS'back'
p9279
aS'to'
p9280
aS'the'
p9281
aS'hallway'
p9282
asI1501
(lp9283
S'Daniel'
p9284
aS'went'
p9285
aS'to'
p9286
aS'the'
p9287
aS'bathroom'
p9288
asI1502
(lp9289
S'Sandra'
p9290
aS'went'
p9291
aS'to'
p9292
aS'the'
p9293
aS'hallway'
p9294
asI1503
(lp9295
S'John'
p9296
aS'went'
p9297
aS'to'
p9298
aS'the'
p9299
aS'office'
p9300
asI1504
(lp9301
S'Sandra'
p9302
aS'journeyed'
p9303
aS'to'
p9304
aS'the'
p9305
aS'garden'
p9306
asI1505
(lp9307
S'Mary'
p9308
aS'went'
p9309
aS'back'
p9310
aS'to'
p9311
aS'the'
p9312
aS'garden'
p9313
asI1506
(lp9314
S'Mary'
p9315
aS'went'
p9316
aS'to'
p9317
aS'the'
p9318
aS'bedroom'
p9319
asI1507
(lp9320
S'Daniel'
p9321
aS'went'
p9322
aS'to'
p9323
aS'the'
p9324
aS'bedroom'
p9325
asI1508
(lp9326
S'Sandra'
p9327
aS'journeyed'
p9328
aS'to'
p9329
aS'the'
p9330
aS'hallway'
p9331
asI1509
(lp9332
S'Sandra'
p9333
aS'went'
p9334
aS'back'
p9335
aS'to'
p9336
aS'the'
p9337
aS'kitchen'
p9338
asI1510
(lp9339
S'Daniel'
p9340
aS'journeyed'
p9341
aS'to'
p9342
aS'the'
p9343
aS'hallway'
p9344
asI1511
(lp9345
S'Mary'
p9346
aS'moved'
p9347
aS'to'
p9348
aS'the'
p9349
aS'bathroom'
p9350
asI1512
(lp9351
S'Sandra'
p9352
aS'went'
p9353
aS'to'
p9354
aS'the'
p9355
aS'hallway'
p9356
asI1513
(lp9357
S'Mary'
p9358
aS'went'
p9359
aS'back'
p9360
aS'to'
p9361
aS'the'
p9362
aS'kitchen'
p9363
asI1514
(lp9364
S'Daniel'
p9365
aS'went'
p9366
aS'back'
p9367
aS'to'
p9368
aS'the'
p9369
aS'kitchen'
p9370
asI1515
(lp9371
S'John'
p9372
aS'went'
p9373
aS'back'
p9374
aS'to'
p9375
aS'the'
p9376
aS'bathroom'
p9377
asI1516
(lp9378
S'Daniel'
p9379
aS'journeyed'
p9380
aS'to'
p9381
aS'the'
p9382
aS'office'
p9383
asI1517
(lp9384
S'Daniel'
p9385
aS'journeyed'
p9386
aS'to'
p9387
aS'the'
p9388
aS'bathroom'
p9389
asI1518
(lp9390
S'Daniel'
p9391
aS'went'
p9392
aS'back'
p9393
aS'to'
p9394
aS'the'
p9395
aS'garden'
p9396
asI1519
(lp9397
S'Sandra'
p9398
aS'moved'
p9399
aS'to'
p9400
aS'the'
p9401
aS'bathroom'
p9402
asI1520
(lp9403
S'Mary'
p9404
aS'went'
p9405
aS'to'
p9406
aS'the'
p9407
aS'office'
p9408
asI1521
(lp9409
S'Daniel'
p9410
aS'went'
p9411
aS'to'
p9412
aS'the'
p9413
aS'office'
p9414
asI1522
(lp9415
S'Mary'
p9416
aS'went'
p9417
aS'back'
p9418
aS'to'
p9419
aS'the'
p9420
aS'bedroom'
p9421
asI1523
(lp9422
S'Mary'
p9423
aS'journeyed'
p9424
aS'to'
p9425
aS'the'
p9426
aS'garden'
p9427
asI1524
(lp9428
S'John'
p9429
aS'moved'
p9430
aS'to'
p9431
aS'the'
p9432
aS'kitchen'
p9433
asI1525
(lp9434
S'Sandra'
p9435
aS'moved'
p9436
aS'to'
p9437
aS'the'
p9438
aS'garden'
p9439
asI1526
(lp9440
S'Sandra'
p9441
aS'journeyed'
p9442
aS'to'
p9443
aS'the'
p9444
aS'hallway'
p9445
asI1527
(lp9446
S'Sandra'
p9447
aS'went'
p9448
aS'back'
p9449
aS'to'
p9450
aS'the'
p9451
aS'bathroom'
p9452
asI1528
(lp9453
S'Mary'
p9454
aS'went'
p9455
aS'to'
p9456
aS'the'
p9457
aS'bathroom'
p9458
asI1529
(lp9459
S'Daniel'
p9460
aS'went'
p9461
aS'to'
p9462
aS'the'
p9463
aS'garden'
p9464
asI1530
(lp9465
S'John'
p9466
aS'moved'
p9467
aS'to'
p9468
aS'the'
p9469
aS'bedroom'
p9470
asI1531
(lp9471
S'Mary'
p9472
aS'went'
p9473
aS'back'
p9474
aS'to'
p9475
aS'the'
p9476
aS'office'
p9477
asI1532
(lp9478
S'Mary'
p9479
aS'went'
p9480
aS'to'
p9481
aS'the'
p9482
aS'bathroom'
p9483
asI1533
(lp9484
S'Mary'
p9485
aS'went'
p9486
aS'back'
p9487
aS'to'
p9488
aS'the'
p9489
aS'hallway'
p9490
asI1534
(lp9491
S'John'
p9492
aS'journeyed'
p9493
aS'to'
p9494
aS'the'
p9495
aS'hallway'
p9496
asI1535
(lp9497
S'John'
p9498
aS'travelled'
p9499
aS'to'
p9500
aS'the'
p9501
aS'garden'
p9502
asI1536
(lp9503
S'Sandra'
p9504
aS'went'
p9505
aS'back'
p9506
aS'to'
p9507
aS'the'
p9508
aS'office'
p9509
asI1537
(lp9510
S'Daniel'
p9511
aS'went'
p9512
aS'back'
p9513
aS'to'
p9514
aS'the'
p9515
aS'garden'
p9516
asI1538
(lp9517
S'Mary'
p9518
aS'journeyed'
p9519
aS'to'
p9520
aS'the'
p9521
aS'garden'
p9522
asI1539
(lp9523
S'Daniel'
p9524
aS'journeyed'
p9525
aS'to'
p9526
aS'the'
p9527
aS'bedroom'
p9528
asI1540
(lp9529
S'Mary'
p9530
aS'went'
p9531
aS'back'
p9532
aS'to'
p9533
aS'the'
p9534
aS'office'
p9535
asI1541
(lp9536
S'Mary'
p9537
aS'moved'
p9538
aS'to'
p9539
aS'the'
p9540
aS'hallway'
p9541
asI1542
(lp9542
S'Mary'
p9543
aS'travelled'
p9544
aS'to'
p9545
aS'the'
p9546
aS'kitchen'
p9547
asI1543
(lp9548
S'John'
p9549
aS'went'
p9550
aS'to'
p9551
aS'the'
p9552
aS'kitchen'
p9553
asI1544
(lp9554
S'Sandra'
p9555
aS'moved'
p9556
aS'to'
p9557
aS'the'
p9558
aS'bedroom'
p9559
asI1545
(lp9560
S'Mary'
p9561
aS'travelled'
p9562
aS'to'
p9563
aS'the'
p9564
aS'garden'
p9565
asI1546
(lp9566
S'Mary'
p9567
aS'went'
p9568
aS'back'
p9569
aS'to'
p9570
aS'the'
p9571
aS'office'
p9572
asI1547
(lp9573
S'Sandra'
p9574
aS'moved'
p9575
aS'to'
p9576
aS'the'
p9577
aS'hallway'
p9578
asI1548
(lp9579
S'Mary'
p9580
aS'went'
p9581
aS'to'
p9582
aS'the'
p9583
aS'garden'
p9584
asI1549
(lp9585
S'Sandra'
p9586
aS'journeyed'
p9587
aS'to'
p9588
aS'the'
p9589
aS'office'
p9590
asI1550
(lp9591
S'Mary'
p9592
aS'moved'
p9593
aS'to'
p9594
aS'the'
p9595
aS'bedroom'
p9596
asI1551
(lp9597
S'Sandra'
p9598
aS'went'
p9599
aS'to'
p9600
aS'the'
p9601
aS'garden'
p9602
asI1552
(lp9603
S'Daniel'
p9604
aS'journeyed'
p9605
aS'to'
p9606
aS'the'
p9607
aS'office'
p9608
asI1553
(lp9609
S'Sandra'
p9610
aS'travelled'
p9611
aS'to'
p9612
aS'the'
p9613
aS'bathroom'
p9614
asI1554
(lp9615
S'Sandra'
p9616
aS'travelled'
p9617
aS'to'
p9618
aS'the'
p9619
aS'kitchen'
p9620
asI1555
(lp9621
S'John'
p9622
aS'travelled'
p9623
aS'to'
p9624
aS'the'
p9625
aS'bedroom'
p9626
asI1556
(lp9627
S'Sandra'
p9628
aS'went'
p9629
aS'to'
p9630
aS'the'
p9631
aS'hallway'
p9632
asI1557
(lp9633
S'John'
p9634
aS'went'
p9635
aS'back'
p9636
aS'to'
p9637
aS'the'
p9638
aS'office'
p9639
asI1558
(lp9640
S'Mary'
p9641
aS'travelled'
p9642
aS'to'
p9643
aS'the'
p9644
aS'hallway'
p9645
asI1559
(lp9646
S'John'
p9647
aS'went'
p9648
aS'to'
p9649
aS'the'
p9650
aS'bedroom'
p9651
asI1560
(lp9652
S'Sandra'
p9653
aS'journeyed'
p9654
aS'to'
p9655
aS'the'
p9656
aS'bathroom'
p9657
asI1561
(lp9658
S'John'
p9659
aS'journeyed'
p9660
aS'to'
p9661
aS'the'
p9662
aS'hallway'
p9663
asI1562
(lp9664
S'Daniel'
p9665
aS'travelled'
p9666
aS'to'
p9667
aS'the'
p9668
aS'office'
p9669
asI1563
(lp9670
S'Mary'
p9671
aS'moved'
p9672
aS'to'
p9673
aS'the'
p9674
aS'garden'
p9675
asI1564
(lp9676
S'Mary'
p9677
aS'moved'
p9678
aS'to'
p9679
aS'the'
p9680
aS'bedroom'
p9681
asI1565
(lp9682
S'Mary'
p9683
aS'went'
p9684
aS'back'
p9685
aS'to'
p9686
aS'the'
p9687
aS'hallway'
p9688
asI1566
(lp9689
S'John'
p9690
aS'journeyed'
p9691
aS'to'
p9692
aS'the'
p9693
aS'bathroom'
p9694
asI1567
(lp9695
S'John'
p9696
aS'moved'
p9697
aS'to'
p9698
aS'the'
p9699
aS'kitchen'
p9700
asI1568
(lp9701
S'John'
p9702
aS'went'
p9703
aS'to'
p9704
aS'the'
p9705
aS'office'
p9706
asI1569
(lp9707
S'Daniel'
p9708
aS'moved'
p9709
aS'to'
p9710
aS'the'
p9711
aS'garden'
p9712
asI1570
(lp9713
S'Sandra'
p9714
aS'went'
p9715
aS'back'
p9716
aS'to'
p9717
aS'the'
p9718
aS'office'
p9719
asI1571
(lp9720
S'Sandra'
p9721
aS'journeyed'
p9722
aS'to'
p9723
aS'the'
p9724
aS'bathroom'
p9725
asI1572
(lp9726
S'Daniel'
p9727
aS'moved'
p9728
aS'to'
p9729
aS'the'
p9730
aS'garden'
p9731
asI1573
(lp9732
S'John'
p9733
aS'travelled'
p9734
aS'to'
p9735
aS'the'
p9736
aS'garden'
p9737
asI1574
(lp9738
S'Daniel'
p9739
aS'went'
p9740
aS'to'
p9741
aS'the'
p9742
aS'office'
p9743
asI1575
(lp9744
S'Daniel'
p9745
aS'went'
p9746
aS'back'
p9747
aS'to'
p9748
aS'the'
p9749
aS'hallway'
p9750
asI1576
(lp9751
S'Mary'
p9752
aS'went'
p9753
aS'back'
p9754
aS'to'
p9755
aS'the'
p9756
aS'hallway'
p9757
asI1577
(lp9758
S'Mary'
p9759
aS'went'
p9760
aS'back'
p9761
aS'to'
p9762
aS'the'
p9763
aS'kitchen'
p9764
asI1578
(lp9765
S'John'
p9766
aS'went'
p9767
aS'to'
p9768
aS'the'
p9769
aS'bedroom'
p9770
asI1579
(lp9771
S'Mary'
p9772
aS'journeyed'
p9773
aS'to'
p9774
aS'the'
p9775
aS'garden'
p9776
asI1580
(lp9777
S'John'
p9778
aS'travelled'
p9779
aS'to'
p9780
aS'the'
p9781
aS'hallway'
p9782
asI1581
(lp9783
S'Sandra'
p9784
aS'travelled'
p9785
aS'to'
p9786
aS'the'
p9787
aS'kitchen'
p9788
asI1582
(lp9789
S'John'
p9790
aS'journeyed'
p9791
aS'to'
p9792
aS'the'
p9793
aS'bedroom'
p9794
asI1583
(lp9795
S'Sandra'
p9796
aS'journeyed'
p9797
aS'to'
p9798
aS'the'
p9799
aS'office'
p9800
asI1584
(lp9801
S'John'
p9802
aS'journeyed'
p9803
aS'to'
p9804
aS'the'
p9805
aS'hallway'
p9806
asI1585
(lp9807
S'Daniel'
p9808
aS'journeyed'
p9809
aS'to'
p9810
aS'the'
p9811
aS'office'
p9812
asI1586
(lp9813
S'Mary'
p9814
aS'moved'
p9815
aS'to'
p9816
aS'the'
p9817
aS'office'
p9818
asI1587
(lp9819
S'Sandra'
p9820
aS'went'
p9821
aS'to'
p9822
aS'the'
p9823
aS'kitchen'
p9824
asI1588
(lp9825
S'John'
p9826
aS'went'
p9827
aS'back'
p9828
aS'to'
p9829
aS'the'
p9830
aS'kitchen'
p9831
asI1589
(lp9832
S'Sandra'
p9833
aS'went'
p9834
aS'back'
p9835
aS'to'
p9836
aS'the'
p9837
aS'hallway'
p9838
asI1590
(lp9839
S'Mary'
p9840
aS'travelled'
p9841
aS'to'
p9842
aS'the'
p9843
aS'bathroom'
p9844
asI1591
(lp9845
S'Sandra'
p9846
aS'travelled'
p9847
aS'to'
p9848
aS'the'
p9849
aS'hallway'
p9850
asI1592
(lp9851
S'John'
p9852
aS'journeyed'
p9853
aS'to'
p9854
aS'the'
p9855
aS'bathroom'
p9856
asI1593
(lp9857
S'John'
p9858
aS'went'
p9859
aS'to'
p9860
aS'the'
p9861
aS'garden'
p9862
asI1594
(lp9863
S'John'
p9864
aS'went'
p9865
aS'to'
p9866
aS'the'
p9867
aS'kitchen'
p9868
asI1595
(lp9869
S'Mary'
p9870
aS'journeyed'
p9871
aS'to'
p9872
aS'the'
p9873
aS'garden'
p9874
asI1596
(lp9875
S'John'
p9876
aS'journeyed'
p9877
aS'to'
p9878
aS'the'
p9879
aS'hallway'
p9880
asI1597
(lp9881
S'Daniel'
p9882
aS'travelled'
p9883
aS'to'
p9884
aS'the'
p9885
aS'kitchen'
p9886
asI1598
(lp9887
S'Sandra'
p9888
aS'moved'
p9889
aS'to'
p9890
aS'the'
p9891
aS'kitchen'
p9892
asI1599
(lp9893
S'Daniel'
p9894
aS'travelled'
p9895
aS'to'
p9896
aS'the'
p9897
aS'office'
p9898
asI1600
(lp9899
S'Daniel'
p9900
aS'journeyed'
p9901
aS'to'
p9902
aS'the'
p9903
aS'garden'
p9904
asI1601
(lp9905
S'Sandra'
p9906
aS'went'
p9907
aS'to'
p9908
aS'the'
p9909
aS'bedroom'
p9910
asI1602
(lp9911
S'John'
p9912
aS'went'
p9913
aS'to'
p9914
aS'the'
p9915
aS'hallway'
p9916
asI1603
(lp9917
S'John'
p9918
aS'moved'
p9919
aS'to'
p9920
aS'the'
p9921
aS'garden'
p9922
asI1604
(lp9923
S'Sandra'
p9924
aS'journeyed'
p9925
aS'to'
p9926
aS'the'
p9927
aS'office'
p9928
asI1605
(lp9929
S'Mary'
p9930
aS'went'
p9931
aS'to'
p9932
aS'the'
p9933
aS'garden'
p9934
asI1606
(lp9935
S'John'
p9936
aS'journeyed'
p9937
aS'to'
p9938
aS'the'
p9939
aS'bathroom'
p9940
asI1607
(lp9941
S'Mary'
p9942
aS'travelled'
p9943
aS'to'
p9944
aS'the'
p9945
aS'bathroom'
p9946
asI1608
(lp9947
S'Mary'
p9948
aS'moved'
p9949
aS'to'
p9950
aS'the'
p9951
aS'office'
p9952
asI1609
(lp9953
S'John'
p9954
aS'went'
p9955
aS'to'
p9956
aS'the'
p9957
aS'kitchen'
p9958
asI1610
(lp9959
S'Sandra'
p9960
aS'went'
p9961
aS'to'
p9962
aS'the'
p9963
aS'garden'
p9964
asI1611
(lp9965
S'Mary'
p9966
aS'moved'
p9967
aS'to'
p9968
aS'the'
p9969
aS'bedroom'
p9970
asI1612
(lp9971
S'John'
p9972
aS'journeyed'
p9973
aS'to'
p9974
aS'the'
p9975
aS'hallway'
p9976
asI1613
(lp9977
S'Sandra'
p9978
aS'went'
p9979
aS'to'
p9980
aS'the'
p9981
aS'garden'
p9982
asI1614
(lp9983
S'John'
p9984
aS'went'
p9985
aS'back'
p9986
aS'to'
p9987
aS'the'
p9988
aS'bathroom'
p9989
asI1615
(lp9990
S'Sandra'
p9991
aS'travelled'
p9992
aS'to'
p9993
aS'the'
p9994
aS'office'
p9995
asI1616
(lp9996
S'Daniel'
p9997
aS'journeyed'
p9998
aS'to'
p9999
aS'the'
p10000
aS'bathroom'
p10001
asI1617
(lp10002
S'Daniel'
p10003
aS'went'
p10004
aS'back'
p10005
aS'to'
p10006
aS'the'
p10007
aS'office'
p10008
asI1618
(lp10009
S'Mary'
p10010
aS'travelled'
p10011
aS'to'
p10012
aS'the'
p10013
aS'bathroom'
p10014
asI1619
(lp10015
S'Sandra'
p10016
aS'went'
p10017
aS'to'
p10018
aS'the'
p10019
aS'bathroom'
p10020
asI1620
(lp10021
S'Mary'
p10022
aS'went'
p10023
aS'to'
p10024
aS'the'
p10025
aS'hallway'
p10026
asI1621
(lp10027
S'Daniel'
p10028
aS'went'
p10029
aS'to'
p10030
aS'the'
p10031
aS'kitchen'
p10032
asI1622
(lp10033
S'Mary'
p10034
aS'went'
p10035
aS'back'
p10036
aS'to'
p10037
aS'the'
p10038
aS'bedroom'
p10039
asI1623
(lp10040
S'Sandra'
p10041
aS'travelled'
p10042
aS'to'
p10043
aS'the'
p10044
aS'kitchen'
p10045
asI1624
(lp10046
S'Daniel'
p10047
aS'moved'
p10048
aS'to'
p10049
aS'the'
p10050
aS'garden'
p10051
asI1625
(lp10052
S'Sandra'
p10053
aS'moved'
p10054
aS'to'
p10055
aS'the'
p10056
aS'hallway'
p10057
asI1626
(lp10058
S'Mary'
p10059
aS'moved'
p10060
aS'to'
p10061
aS'the'
p10062
aS'kitchen'
p10063
asI1627
(lp10064
S'Mary'
p10065
aS'went'
p10066
aS'back'
p10067
aS'to'
p10068
aS'the'
p10069
aS'hallway'
p10070
asI1628
(lp10071
S'Mary'
p10072
aS'moved'
p10073
aS'to'
p10074
aS'the'
p10075
aS'office'
p10076
asI1629
(lp10077
S'Daniel'
p10078
aS'went'
p10079
aS'to'
p10080
aS'the'
p10081
aS'bedroom'
p10082
asI1630
(lp10083
S'Daniel'
p10084
aS'moved'
p10085
aS'to'
p10086
aS'the'
p10087
aS'kitchen'
p10088
asI1631
(lp10089
S'Mary'
p10090
aS'went'
p10091
aS'back'
p10092
aS'to'
p10093
aS'the'
p10094
aS'kitchen'
p10095
asI1632
(lp10096
S'Sandra'
p10097
aS'travelled'
p10098
aS'to'
p10099
aS'the'
p10100
aS'bathroom'
p10101
asI1633
(lp10102
S'Mary'
p10103
aS'moved'
p10104
aS'to'
p10105
aS'the'
p10106
aS'garden'
p10107
asI1634
(lp10108
S'John'
p10109
aS'journeyed'
p10110
aS'to'
p10111
aS'the'
p10112
aS'office'
p10113
asI1635
(lp10114
S'Sandra'
p10115
aS'travelled'
p10116
aS'to'
p10117
aS'the'
p10118
aS'bedroom'
p10119
asI1636
(lp10120
S'Sandra'
p10121
aS'journeyed'
p10122
aS'to'
p10123
aS'the'
p10124
aS'bathroom'
p10125
asI1637
(lp10126
S'John'
p10127
aS'moved'
p10128
aS'to'
p10129
aS'the'
p10130
aS'garden'
p10131
asI1638
(lp10132
S'Daniel'
p10133
aS'went'
p10134
aS'back'
p10135
aS'to'
p10136
aS'the'
p10137
aS'hallway'
p10138
asI1639
(lp10139
S'Mary'
p10140
aS'went'
p10141
aS'to'
p10142
aS'the'
p10143
aS'office'
p10144
asI1640
(lp10145
S'Daniel'
p10146
aS'went'
p10147
aS'back'
p10148
aS'to'
p10149
aS'the'
p10150
aS'bedroom'
p10151
asI1641
(lp10152
S'John'
p10153
aS'went'
p10154
aS'back'
p10155
aS'to'
p10156
aS'the'
p10157
aS'garden'
p10158
asI1642
(lp10159
S'Daniel'
p10160
aS'moved'
p10161
aS'to'
p10162
aS'the'
p10163
aS'office'
p10164
asI1643
(lp10165
S'Sandra'
p10166
aS'went'
p10167
aS'to'
p10168
aS'the'
p10169
aS'hallway'
p10170
asI1644
(lp10171
S'John'
p10172
aS'went'
p10173
aS'back'
p10174
aS'to'
p10175
aS'the'
p10176
aS'bathroom'
p10177
asI1645
(lp10178
S'Mary'
p10179
aS'moved'
p10180
aS'to'
p10181
aS'the'
p10182
aS'kitchen'
p10183
asI1646
(lp10184
S'Mary'
p10185
aS'travelled'
p10186
aS'to'
p10187
aS'the'
p10188
aS'garden'
p10189
asI1647
(lp10190
S'Sandra'
p10191
aS'went'
p10192
aS'back'
p10193
aS'to'
p10194
aS'the'
p10195
aS'bathroom'
p10196
asI1648
(lp10197
S'John'
p10198
aS'went'
p10199
aS'back'
p10200
aS'to'
p10201
aS'the'
p10202
aS'office'
p10203
asI1649
(lp10204
S'Daniel'
p10205
aS'went'
p10206
aS'to'
p10207
aS'the'
p10208
aS'bathroom'
p10209
asI1650
(lp10210
S'Sandra'
p10211
aS'went'
p10212
aS'to'
p10213
aS'the'
p10214
aS'office'
p10215
asI1651
(lp10216
S'Daniel'
p10217
aS'travelled'
p10218
aS'to'
p10219
aS'the'
p10220
aS'garden'
p10221
asI1652
(lp10222
S'Mary'
p10223
aS'went'
p10224
aS'back'
p10225
aS'to'
p10226
aS'the'
p10227
aS'kitchen'
p10228
asI1653
(lp10229
S'Mary'
p10230
aS'went'
p10231
aS'to'
p10232
aS'the'
p10233
aS'office'
p10234
asI1654
(lp10235
S'Mary'
p10236
aS'travelled'
p10237
aS'to'
p10238
aS'the'
p10239
aS'garden'
p10240
asI1655
(lp10241
S'Daniel'
p10242
aS'journeyed'
p10243
aS'to'
p10244
aS'the'
p10245
aS'hallway'
p10246
asI1656
(lp10247
S'John'
p10248
aS'went'
p10249
aS'back'
p10250
aS'to'
p10251
aS'the'
p10252
aS'bedroom'
p10253
asI1657
(lp10254
S'Daniel'
p10255
aS'moved'
p10256
aS'to'
p10257
aS'the'
p10258
aS'bedroom'
p10259
asI1658
(lp10260
S'Sandra'
p10261
aS'travelled'
p10262
aS'to'
p10263
aS'the'
p10264
aS'kitchen'
p10265
asI1659
(lp10266
S'John'
p10267
aS'went'
p10268
aS'to'
p10269
aS'the'
p10270
aS'garden'
p10271
asI1660
(lp10272
S'John'
p10273
aS'moved'
p10274
aS'to'
p10275
aS'the'
p10276
aS'hallway'
p10277
asI1661
(lp10278
S'John'
p10279
aS'journeyed'
p10280
aS'to'
p10281
aS'the'
p10282
aS'bedroom'
p10283
asI1662
(lp10284
S'Mary'
p10285
aS'went'
p10286
aS'to'
p10287
aS'the'
p10288
aS'office'
p10289
asI1663
(lp10290
S'John'
p10291
aS'moved'
p10292
aS'to'
p10293
aS'the'
p10294
aS'office'
p10295
asI1664
(lp10296
S'Mary'
p10297
aS'went'
p10298
aS'to'
p10299
aS'the'
p10300
aS'hallway'
p10301
asI1665
(lp10302
S'Sandra'
p10303
aS'travelled'
p10304
aS'to'
p10305
aS'the'
p10306
aS'office'
p10307
asI1666
(lp10308
S'John'
p10309
aS'travelled'
p10310
aS'to'
p10311
aS'the'
p10312
aS'bedroom'
p10313
asI1667
(lp10314
S'Daniel'
p10315
aS'travelled'
p10316
aS'to'
p10317
aS'the'
p10318
aS'kitchen'
p10319
asI1668
(lp10320
S'Mary'
p10321
aS'went'
p10322
aS'to'
p10323
aS'the'
p10324
aS'kitchen'
p10325
asI1669
(lp10326
S'John'
p10327
aS'travelled'
p10328
aS'to'
p10329
aS'the'
p10330
aS'kitchen'
p10331
asI1670
(lp10332
S'Sandra'
p10333
aS'journeyed'
p10334
aS'to'
p10335
aS'the'
p10336
aS'bedroom'
p10337
asI1671
(lp10338
S'Daniel'
p10339
aS'moved'
p10340
aS'to'
p10341
aS'the'
p10342
aS'kitchen'
p10343
asI1672
(lp10344
S'Sandra'
p10345
aS'went'
p10346
aS'to'
p10347
aS'the'
p10348
aS'kitchen'
p10349
asI1673
(lp10350
S'John'
p10351
aS'went'
p10352
aS'back'
p10353
aS'to'
p10354
aS'the'
p10355
aS'bedroom'
p10356
asI1674
(lp10357
S'Daniel'
p10358
aS'went'
p10359
aS'to'
p10360
aS'the'
p10361
aS'bathroom'
p10362
asI1675
(lp10363
S'Sandra'
p10364
aS'moved'
p10365
aS'to'
p10366
aS'the'
p10367
aS'garden'
p10368
asI1676
(lp10369
S'Daniel'
p10370
aS'went'
p10371
aS'back'
p10372
aS'to'
p10373
aS'the'
p10374
aS'office'
p10375
asI1677
(lp10376
S'Mary'
p10377
aS'went'
p10378
aS'to'
p10379
aS'the'
p10380
aS'kitchen'
p10381
asI1678
(lp10382
S'Daniel'
p10383
aS'went'
p10384
aS'to'
p10385
aS'the'
p10386
aS'hallway'
p10387
asI1679
(lp10388
S'Daniel'
p10389
aS'went'
p10390
aS'back'
p10391
aS'to'
p10392
aS'the'
p10393
aS'bathroom'
p10394
asI1680
(lp10395
S'Sandra'
p10396
aS'moved'
p10397
aS'to'
p10398
aS'the'
p10399
aS'office'
p10400
asI1681
(lp10401
S'Mary'
p10402
aS'journeyed'
p10403
aS'to'
p10404
aS'the'
p10405
aS'hallway'
p10406
asI1682
(lp10407
S'John'
p10408
aS'went'
p10409
aS'back'
p10410
aS'to'
p10411
aS'the'
p10412
aS'bathroom'
p10413
asI1683
(lp10414
S'John'
p10415
aS'went'
p10416
aS'back'
p10417
aS'to'
p10418
aS'the'
p10419
aS'bedroom'
p10420
asI1684
(lp10421
S'Daniel'
p10422
aS'travelled'
p10423
aS'to'
p10424
aS'the'
p10425
aS'bedroom'
p10426
asI1685
(lp10427
S'Mary'
p10428
aS'went'
p10429
aS'to'
p10430
aS'the'
p10431
aS'garden'
p10432
asI1686
(lp10433
S'Daniel'
p10434
aS'moved'
p10435
aS'to'
p10436
aS'the'
p10437
aS'kitchen'
p10438
asI1687
(lp10439
S'Daniel'
p10440
aS'went'
p10441
aS'to'
p10442
aS'the'
p10443
aS'hallway'
p10444
asI1688
(lp10445
S'Mary'
p10446
aS'journeyed'
p10447
aS'to'
p10448
aS'the'
p10449
aS'kitchen'
p10450
asI1689
(lp10451
S'Daniel'
p10452
aS'travelled'
p10453
aS'to'
p10454
aS'the'
p10455
aS'kitchen'
p10456
asI1690
(lp10457
S'Mary'
p10458
aS'went'
p10459
aS'back'
p10460
aS'to'
p10461
aS'the'
p10462
aS'hallway'
p10463
asI1691
(lp10464
S'John'
p10465
aS'went'
p10466
aS'back'
p10467
aS'to'
p10468
aS'the'
p10469
aS'garden'
p10470
asI1692
(lp10471
S'John'
p10472
aS'travelled'
p10473
aS'to'
p10474
aS'the'
p10475
aS'hallway'
p10476
asI1693
(lp10477
S'John'
p10478
aS'journeyed'
p10479
aS'to'
p10480
aS'the'
p10481
aS'office'
p10482
asI1694
(lp10483
S'John'
p10484
aS'journeyed'
p10485
aS'to'
p10486
aS'the'
p10487
aS'kitchen'
p10488
asI1695
(lp10489
S'Sandra'
p10490
aS'journeyed'
p10491
aS'to'
p10492
aS'the'
p10493
aS'hallway'
p10494
asI1696
(lp10495
S'Sandra'
p10496
aS'went'
p10497
aS'to'
p10498
aS'the'
p10499
aS'bedroom'
p10500
asI1697
(lp10501
S'Sandra'
p10502
aS'journeyed'
p10503
aS'to'
p10504
aS'the'
p10505
aS'hallway'
p10506
asI1698
(lp10507
S'Daniel'
p10508
aS'went'
p10509
aS'back'
p10510
aS'to'
p10511
aS'the'
p10512
aS'kitchen'
p10513
asI1699
(lp10514
S'Daniel'
p10515
aS'moved'
p10516
aS'to'
p10517
aS'the'
p10518
aS'bathroom'
p10519
asI1700
(lp10520
S'Mary'
p10521
aS'went'
p10522
aS'back'
p10523
aS'to'
p10524
aS'the'
p10525
aS'bathroom'
p10526
asI1701
(lp10527
S'John'
p10528
aS'travelled'
p10529
aS'to'
p10530
aS'the'
p10531
aS'bathroom'
p10532
asI1702
(lp10533
S'Daniel'
p10534
aS'went'
p10535
aS'to'
p10536
aS'the'
p10537
aS'hallway'
p10538
asI1703
(lp10539
S'John'
p10540
aS'moved'
p10541
aS'to'
p10542
aS'the'
p10543
aS'kitchen'
p10544
asI1704
(lp10545
S'Mary'
p10546
aS'journeyed'
p10547
aS'to'
p10548
aS'the'
p10549
aS'kitchen'
p10550
asI1705
(lp10551
S'Daniel'
p10552
aS'travelled'
p10553
aS'to'
p10554
aS'the'
p10555
aS'bathroom'
p10556
asI1706
(lp10557
S'John'
p10558
aS'travelled'
p10559
aS'to'
p10560
aS'the'
p10561
aS'bathroom'
p10562
asI1707
(lp10563
S'Daniel'
p10564
aS'went'
p10565
aS'to'
p10566
aS'the'
p10567
aS'garden'
p10568
asI1708
(lp10569
S'Sandra'
p10570
aS'travelled'
p10571
aS'to'
p10572
aS'the'
p10573
aS'hallway'
p10574
asI1709
(lp10575
S'Mary'
p10576
aS'travelled'
p10577
aS'to'
p10578
aS'the'
p10579
aS'hallway'
p10580
asI1710
(lp10581
S'John'
p10582
aS'journeyed'
p10583
aS'to'
p10584
aS'the'
p10585
aS'bedroom'
p10586
asI1711
(lp10587
S'John'
p10588
aS'went'
p10589
aS'to'
p10590
aS'the'
p10591
aS'bedroom'
p10592
asI1712
(lp10593
S'Daniel'
p10594
aS'went'
p10595
aS'to'
p10596
aS'the'
p10597
aS'bedroom'
p10598
asI1713
(lp10599
S'John'
p10600
aS'travelled'
p10601
aS'to'
p10602
aS'the'
p10603
aS'office'
p10604
asI1714
(lp10605
S'John'
p10606
aS'went'
p10607
aS'back'
p10608
aS'to'
p10609
aS'the'
p10610
aS'bedroom'
p10611
asI1715
(lp10612
S'Mary'
p10613
aS'went'
p10614
aS'to'
p10615
aS'the'
p10616
aS'bedroom'
p10617
asI1716
(lp10618
S'John'
p10619
aS'went'
p10620
aS'to'
p10621
aS'the'
p10622
aS'garden'
p10623
asI1717
(lp10624
S'Daniel'
p10625
aS'went'
p10626
aS'back'
p10627
aS'to'
p10628
aS'the'
p10629
aS'garden'
p10630
asI1718
(lp10631
S'Daniel'
p10632
aS'went'
p10633
aS'to'
p10634
aS'the'
p10635
aS'office'
p10636
asI1719
(lp10637
S'John'
p10638
aS'moved'
p10639
aS'to'
p10640
aS'the'
p10641
aS'hallway'
p10642
asI1720
(lp10643
S'John'
p10644
aS'moved'
p10645
aS'to'
p10646
aS'the'
p10647
aS'office'
p10648
asI1721
(lp10649
S'Daniel'
p10650
aS'moved'
p10651
aS'to'
p10652
aS'the'
p10653
aS'garden'
p10654
asI1722
(lp10655
S'Sandra'
p10656
aS'moved'
p10657
aS'to'
p10658
aS'the'
p10659
aS'hallway'
p10660
asI1723
(lp10661
S'John'
p10662
aS'went'
p10663
aS'to'
p10664
aS'the'
p10665
aS'hallway'
p10666
asI1724
(lp10667
S'John'
p10668
aS'went'
p10669
aS'to'
p10670
aS'the'
p10671
aS'office'
p10672
asI1725
(lp10673
S'John'
p10674
aS'went'
p10675
aS'to'
p10676
aS'the'
p10677
aS'kitchen'
p10678
asI1726
(lp10679
S'John'
p10680
aS'went'
p10681
aS'back'
p10682
aS'to'
p10683
aS'the'
p10684
aS'hallway'
p10685
asI1727
(lp10686
S'Sandra'
p10687
aS'journeyed'
p10688
aS'to'
p10689
aS'the'
p10690
aS'office'
p10691
asI1728
(lp10692
S'Mary'
p10693
aS'journeyed'
p10694
aS'to'
p10695
aS'the'
p10696
aS'bedroom'
p10697
asI1729
(lp10698
S'Sandra'
p10699
aS'travelled'
p10700
aS'to'
p10701
aS'the'
p10702
aS'hallway'
p10703
asI1730
(lp10704
S'Mary'
p10705
aS'went'
p10706
aS'back'
p10707
aS'to'
p10708
aS'the'
p10709
aS'bathroom'
p10710
asI1731
(lp10711
S'Mary'
p10712
aS'journeyed'
p10713
aS'to'
p10714
aS'the'
p10715
aS'bedroom'
p10716
asI1732
(lp10717
S'Sandra'
p10718
aS'moved'
p10719
aS'to'
p10720
aS'the'
p10721
aS'kitchen'
p10722
asI1733
(lp10723
S'Mary'
p10724
aS'journeyed'
p10725
aS'to'
p10726
aS'the'
p10727
aS'garden'
p10728
asI1734
(lp10729
S'Sandra'
p10730
aS'moved'
p10731
aS'to'
p10732
aS'the'
p10733
aS'garden'
p10734
asI1735
(lp10735
S'John'
p10736
aS'moved'
p10737
aS'to'
p10738
aS'the'
p10739
aS'office'
p10740
asI1736
(lp10741
S'Sandra'
p10742
aS'moved'
p10743
aS'to'
p10744
aS'the'
p10745
aS'bedroom'
p10746
asI1737
(lp10747
S'Daniel'
p10748
aS'moved'
p10749
aS'to'
p10750
aS'the'
p10751
aS'bedroom'
p10752
asI1738
(lp10753
S'Sandra'
p10754
aS'moved'
p10755
aS'to'
p10756
aS'the'
p10757
aS'bathroom'
p10758
asI1739
(lp10759
S'Daniel'
p10760
aS'travelled'
p10761
aS'to'
p10762
aS'the'
p10763
aS'office'
p10764
asI1740
(lp10765
S'John'
p10766
aS'went'
p10767
aS'to'
p10768
aS'the'
p10769
aS'garden'
p10770
asI1741
(lp10771
S'John'
p10772
aS'moved'
p10773
aS'to'
p10774
aS'the'
p10775
aS'hallway'
p10776
asI1742
(lp10777
S'Sandra'
p10778
aS'went'
p10779
aS'to'
p10780
aS'the'
p10781
aS'hallway'
p10782
asI1743
(lp10783
S'John'
p10784
aS'went'
p10785
aS'back'
p10786
aS'to'
p10787
aS'the'
p10788
aS'garden'
p10789
asI1744
(lp10790
S'Daniel'
p10791
aS'journeyed'
p10792
aS'to'
p10793
aS'the'
p10794
aS'office'
p10795
asI1745
(lp10796
S'Daniel'
p10797
aS'moved'
p10798
aS'to'
p10799
aS'the'
p10800
aS'bedroom'
p10801
asI1746
(lp10802
S'Mary'
p10803
aS'journeyed'
p10804
aS'to'
p10805
aS'the'
p10806
aS'bathroom'
p10807
asI1747
(lp10808
S'John'
p10809
aS'went'
p10810
aS'back'
p10811
aS'to'
p10812
aS'the'
p10813
aS'kitchen'
p10814
asI1748
(lp10815
S'Daniel'
p10816
aS'went'
p10817
aS'back'
p10818
aS'to'
p10819
aS'the'
p10820
aS'office'
p10821
asI1749
(lp10822
S'Sandra'
p10823
aS'moved'
p10824
aS'to'
p10825
aS'the'
p10826
aS'kitchen'
p10827
asI1750
(lp10828
S'Daniel'
p10829
aS'went'
p10830
aS'to'
p10831
aS'the'
p10832
aS'kitchen'
p10833
asI1751
(lp10834
S'Mary'
p10835
aS'travelled'
p10836
aS'to'
p10837
aS'the'
p10838
aS'bedroom'
p10839
asI1752
(lp10840
S'Daniel'
p10841
aS'moved'
p10842
aS'to'
p10843
aS'the'
p10844
aS'hallway'
p10845
asI1753
(lp10846
S'Daniel'
p10847
aS'journeyed'
p10848
aS'to'
p10849
aS'the'
p10850
aS'garden'
p10851
asI1754
(lp10852
S'Daniel'
p10853
aS'journeyed'
p10854
aS'to'
p10855
aS'the'
p10856
aS'hallway'
p10857
asI1755
(lp10858
S'Sandra'
p10859
aS'journeyed'
p10860
aS'to'
p10861
aS'the'
p10862
aS'hallway'
p10863
asI1756
(lp10864
S'John'
p10865
aS'went'
p10866
aS'to'
p10867
aS'the'
p10868
aS'garden'
p10869
asI1757
(lp10870
S'John'
p10871
aS'moved'
p10872
aS'to'
p10873
aS'the'
p10874
aS'hallway'
p10875
asI1758
(lp10876
S'Daniel'
p10877
aS'journeyed'
p10878
aS'to'
p10879
aS'the'
p10880
aS'bathroom'
p10881
asI1759
(lp10882
S'Daniel'
p10883
aS'moved'
p10884
aS'to'
p10885
aS'the'
p10886
aS'hallway'
p10887
asI1760
(lp10888
S'John'
p10889
aS'travelled'
p10890
aS'to'
p10891
aS'the'
p10892
aS'kitchen'
p10893
asI1761
(lp10894
S'Sandra'
p10895
aS'went'
p10896
aS'to'
p10897
aS'the'
p10898
aS'bathroom'
p10899
asI1762
(lp10900
S'Daniel'
p10901
aS'went'
p10902
aS'to'
p10903
aS'the'
p10904
aS'bedroom'
p10905
asI1763
(lp10906
S'Mary'
p10907
aS'went'
p10908
aS'to'
p10909
aS'the'
p10910
aS'garden'
p10911
asI1764
(lp10912
S'Sandra'
p10913
aS'moved'
p10914
aS'to'
p10915
aS'the'
p10916
aS'hallway'
p10917
asI1765
(lp10918
S'Daniel'
p10919
aS'journeyed'
p10920
aS'to'
p10921
aS'the'
p10922
aS'bathroom'
p10923
asI1766
(lp10924
S'Mary'
p10925
aS'journeyed'
p10926
aS'to'
p10927
aS'the'
p10928
aS'kitchen'
p10929
asI1767
(lp10930
S'Sandra'
p10931
aS'went'
p10932
aS'to'
p10933
aS'the'
p10934
aS'bathroom'
p10935
asI1768
(lp10936
S'John'
p10937
aS'went'
p10938
aS'to'
p10939
aS'the'
p10940
aS'kitchen'
p10941
asI1769
(lp10942
S'Sandra'
p10943
aS'went'
p10944
aS'back'
p10945
aS'to'
p10946
aS'the'
p10947
aS'kitchen'
p10948
asI1770
(lp10949
S'Sandra'
p10950
aS'went'
p10951
aS'to'
p10952
aS'the'
p10953
aS'office'
p10954
asI1771
(lp10955
S'Mary'
p10956
aS'went'
p10957
aS'to'
p10958
aS'the'
p10959
aS'hallway'
p10960
asI1772
(lp10961
S'Daniel'
p10962
aS'travelled'
p10963
aS'to'
p10964
aS'the'
p10965
aS'bathroom'
p10966
asI1773
(lp10967
S'Mary'
p10968
aS'journeyed'
p10969
aS'to'
p10970
aS'the'
p10971
aS'bathroom'
p10972
asI1774
(lp10973
S'Daniel'
p10974
aS'journeyed'
p10975
aS'to'
p10976
aS'the'
p10977
aS'hallway'
p10978
asI1775
(lp10979
S'Daniel'
p10980
aS'went'
p10981
aS'back'
p10982
aS'to'
p10983
aS'the'
p10984
aS'garden'
p10985
asI1776
(lp10986
S'Daniel'
p10987
aS'travelled'
p10988
aS'to'
p10989
aS'the'
p10990
aS'office'
p10991
asI1777
(lp10992
S'Mary'
p10993
aS'went'
p10994
aS'to'
p10995
aS'the'
p10996
aS'office'
p10997
asI1778
(lp10998
S'Mary'
p10999
aS'went'
p11000
aS'back'
p11001
aS'to'
p11002
aS'the'
p11003
aS'bathroom'
p11004
asI1779
(lp11005
S'Mary'
p11006
aS'went'
p11007
aS'to'
p11008
aS'the'
p11009
aS'hallway'
p11010
asI1780
(lp11011
S'Daniel'
p11012
aS'went'
p11013
aS'to'
p11014
aS'the'
p11015
aS'bedroom'
p11016
asI1781
(lp11017
S'John'
p11018
aS'travelled'
p11019
aS'to'
p11020
aS'the'
p11021
aS'kitchen'
p11022
asI1782
(lp11023
S'Daniel'
p11024
aS'went'
p11025
aS'to'
p11026
aS'the'
p11027
aS'kitchen'
p11028
asI1783
(lp11029
S'John'
p11030
aS'went'
p11031
aS'back'
p11032
aS'to'
p11033
aS'the'
p11034
aS'hallway'
p11035
asI1784
(lp11036
S'John'
p11037
aS'moved'
p11038
aS'to'
p11039
aS'the'
p11040
aS'office'
p11041
asI1785
(lp11042
S'Mary'
p11043
aS'moved'
p11044
aS'to'
p11045
aS'the'
p11046
aS'bedroom'
p11047
asI1786
(lp11048
S'John'
p11049
aS'travelled'
p11050
aS'to'
p11051
aS'the'
p11052
aS'bedroom'
p11053
asI1787
(lp11054
S'John'
p11055
aS'went'
p11056
aS'back'
p11057
aS'to'
p11058
aS'the'
p11059
aS'bathroom'
p11060
asI1788
(lp11061
S'Sandra'
p11062
aS'moved'
p11063
aS'to'
p11064
aS'the'
p11065
aS'kitchen'
p11066
asI1789
(lp11067
S'John'
p11068
aS'journeyed'
p11069
aS'to'
p11070
aS'the'
p11071
aS'garden'
p11072
asI1790
(lp11073
S'Sandra'
p11074
aS'went'
p11075
aS'to'
p11076
aS'the'
p11077
aS'office'
p11078
asI1791
(lp11079
S'Mary'
p11080
aS'travelled'
p11081
aS'to'
p11082
aS'the'
p11083
aS'garden'
p11084
asI1792
(lp11085
S'Daniel'
p11086
aS'went'
p11087
aS'to'
p11088
aS'the'
p11089
aS'office'
p11090
asI1793
(lp11091
S'Daniel'
p11092
aS'travelled'
p11093
aS'to'
p11094
aS'the'
p11095
aS'kitchen'
p11096
asI1794
(lp11097
S'Sandra'
p11098
aS'journeyed'
p11099
aS'to'
p11100
aS'the'
p11101
aS'kitchen'
p11102
asI1795
(lp11103
S'Mary'
p11104
aS'went'
p11105
aS'back'
p11106
aS'to'
p11107
aS'the'
p11108
aS'hallway'
p11109
asI1796
(lp11110
S'Daniel'
p11111
aS'went'
p11112
aS'to'
p11113
aS'the'
p11114
aS'bedroom'
p11115
asI1797
(lp11116
S'Mary'
p11117
aS'moved'
p11118
aS'to'
p11119
aS'the'
p11120
aS'bathroom'
p11121
asI1798
(lp11122
S'Sandra'
p11123
aS'journeyed'
p11124
aS'to'
p11125
aS'the'
p11126
aS'bathroom'
p11127
asI1799
(lp11128
S'John'
p11129
aS'journeyed'
p11130
aS'to'
p11131
aS'the'
p11132
aS'garden'
p11133
asI1800
(lp11134
S'Sandra'
p11135
aS'went'
p11136
aS'to'
p11137
aS'the'
p11138
aS'garden'
p11139
asI1801
(lp11140
S'Mary'
p11141
aS'went'
p11142
aS'back'
p11143
aS'to'
p11144
aS'the'
p11145
aS'hallway'
p11146
asI1802
(lp11147
S'John'
p11148
aS'went'
p11149
aS'to'
p11150
aS'the'
p11151
aS'garden'
p11152
asI1803
(lp11153
S'Sandra'
p11154
aS'travelled'
p11155
aS'to'
p11156
aS'the'
p11157
aS'bedroom'
p11158
asI1804
(lp11159
S'Mary'
p11160
aS'travelled'
p11161
aS'to'
p11162
aS'the'
p11163
aS'bedroom'
p11164
asI1805
(lp11165
S'Sandra'
p11166
aS'moved'
p11167
aS'to'
p11168
aS'the'
p11169
aS'kitchen'
p11170
asI1806
(lp11171
S'Daniel'
p11172
aS'went'
p11173
aS'back'
p11174
aS'to'
p11175
aS'the'
p11176
aS'bedroom'
p11177
asI1807
(lp11178
S'Mary'
p11179
aS'went'
p11180
aS'back'
p11181
aS'to'
p11182
aS'the'
p11183
aS'garden'
p11184
asI1808
(lp11185
S'Daniel'
p11186
aS'went'
p11187
aS'to'
p11188
aS'the'
p11189
aS'office'
p11190
asI1809
(lp11191
S'Daniel'
p11192
aS'moved'
p11193
aS'to'
p11194
aS'the'
p11195
aS'garden'
p11196
asI1810
(lp11197
S'Sandra'
p11198
aS'travelled'
p11199
aS'to'
p11200
aS'the'
p11201
aS'hallway'
p11202
asI1811
(lp11203
S'Sandra'
p11204
aS'went'
p11205
aS'back'
p11206
aS'to'
p11207
aS'the'
p11208
aS'office'
p11209
asI1812
(lp11210
S'Daniel'
p11211
aS'moved'
p11212
aS'to'
p11213
aS'the'
p11214
aS'hallway'
p11215
asI1813
(lp11216
S'Daniel'
p11217
aS'travelled'
p11218
aS'to'
p11219
aS'the'
p11220
aS'garden'
p11221
asI1814
(lp11222
S'Mary'
p11223
aS'moved'
p11224
aS'to'
p11225
aS'the'
p11226
aS'bathroom'
p11227
asI1815
(lp11228
S'Sandra'
p11229
aS'went'
p11230
aS'back'
p11231
aS'to'
p11232
aS'the'
p11233
aS'kitchen'
p11234
asI1816
(lp11235
S'Sandra'
p11236
aS'moved'
p11237
aS'to'
p11238
aS'the'
p11239
aS'garden'
p11240
asI1817
(lp11241
S'Sandra'
p11242
aS'went'
p11243
aS'to'
p11244
aS'the'
p11245
aS'kitchen'
p11246
asI1818
(lp11247
S'Daniel'
p11248
aS'went'
p11249
aS'to'
p11250
aS'the'
p11251
aS'bathroom'
p11252
asI1819
(lp11253
S'John'
p11254
aS'journeyed'
p11255
aS'to'
p11256
aS'the'
p11257
aS'bathroom'
p11258
asI1820
(lp11259
S'John'
p11260
aS'went'
p11261
aS'back'
p11262
aS'to'
p11263
aS'the'
p11264
aS'garden'
p11265
asI1821
(lp11266
S'Sandra'
p11267
aS'went'
p11268
aS'back'
p11269
aS'to'
p11270
aS'the'
p11271
aS'bedroom'
p11272
asI1822
(lp11273
S'Mary'
p11274
aS'went'
p11275
aS'back'
p11276
aS'to'
p11277
aS'the'
p11278
aS'hallway'
p11279
asI1823
(lp11280
S'Mary'
p11281
aS'moved'
p11282
aS'to'
p11283
aS'the'
p11284
aS'bathroom'
p11285
asI1824
(lp11286
S'Mary'
p11287
aS'went'
p11288
aS'to'
p11289
aS'the'
p11290
aS'hallway'
p11291
asI1825
(lp11292
S'Daniel'
p11293
aS'travelled'
p11294
aS'to'
p11295
aS'the'
p11296
aS'bathroom'
p11297
asI1826
(lp11298
S'Sandra'
p11299
aS'went'
p11300
aS'back'
p11301
aS'to'
p11302
aS'the'
p11303
aS'office'
p11304
asI1827
(lp11305
S'Mary'
p11306
aS'moved'
p11307
aS'to'
p11308
aS'the'
p11309
aS'kitchen'
p11310
asI1828
(lp11311
S'John'
p11312
aS'journeyed'
p11313
aS'to'
p11314
aS'the'
p11315
aS'bathroom'
p11316
asI1829
(lp11317
S'Mary'
p11318
aS'moved'
p11319
aS'to'
p11320
aS'the'
p11321
aS'bathroom'
p11322
asI1830
(lp11323
S'Sandra'
p11324
aS'went'
p11325
aS'back'
p11326
aS'to'
p11327
aS'the'
p11328
aS'kitchen'
p11329
asI1831
(lp11330
S'John'
p11331
aS'went'
p11332
aS'to'
p11333
aS'the'
p11334
aS'kitchen'
p11335
asI1832
(lp11336
S'John'
p11337
aS'went'
p11338
aS'to'
p11339
aS'the'
p11340
aS'hallway'
p11341
asI1833
(lp11342
S'Sandra'
p11343
aS'moved'
p11344
aS'to'
p11345
aS'the'
p11346
aS'garden'
p11347
asI1834
(lp11348
S'Sandra'
p11349
aS'went'
p11350
aS'back'
p11351
aS'to'
p11352
aS'the'
p11353
aS'kitchen'
p11354
asI1835
(lp11355
S'John'
p11356
aS'moved'
p11357
aS'to'
p11358
aS'the'
p11359
aS'bedroom'
p11360
asI1836
(lp11361
S'Sandra'
p11362
aS'went'
p11363
aS'back'
p11364
aS'to'
p11365
aS'the'
p11366
aS'bathroom'
p11367
asI1837
(lp11368
S'Sandra'
p11369
aS'went'
p11370
aS'to'
p11371
aS'the'
p11372
aS'hallway'
p11373
asI1838
(lp11374
S'Daniel'
p11375
aS'journeyed'
p11376
aS'to'
p11377
aS'the'
p11378
aS'office'
p11379
asI1839
(lp11380
S'Daniel'
p11381
aS'travelled'
p11382
aS'to'
p11383
aS'the'
p11384
aS'bedroom'
p11385
asI1840
(lp11386
S'Daniel'
p11387
aS'travelled'
p11388
aS'to'
p11389
aS'the'
p11390
aS'garden'
p11391
asI1841
(lp11392
S'Sandra'
p11393
aS'journeyed'
p11394
aS'to'
p11395
aS'the'
p11396
aS'bathroom'
p11397
asI1842
(lp11398
S'Daniel'
p11399
aS'moved'
p11400
aS'to'
p11401
aS'the'
p11402
aS'garden'
p11403
asI1843
(lp11404
S'Mary'
p11405
aS'went'
p11406
aS'back'
p11407
aS'to'
p11408
aS'the'
p11409
aS'garden'
p11410
asI1844
(lp11411
S'Daniel'
p11412
aS'went'
p11413
aS'back'
p11414
aS'to'
p11415
aS'the'
p11416
aS'kitchen'
p11417
asI1845
(lp11418
S'Mary'
p11419
aS'went'
p11420
aS'back'
p11421
aS'to'
p11422
aS'the'
p11423
aS'bedroom'
p11424
asI1846
(lp11425
S'Mary'
p11426
aS'went'
p11427
aS'back'
p11428
aS'to'
p11429
aS'the'
p11430
aS'bathroom'
p11431
asI1847
(lp11432
S'John'
p11433
aS'journeyed'
p11434
aS'to'
p11435
aS'the'
p11436
aS'hallway'
p11437
asI1848
(lp11438
S'John'
p11439
aS'went'
p11440
aS'back'
p11441
aS'to'
p11442
aS'the'
p11443
aS'bedroom'
p11444
asI1849
(lp11445
S'Daniel'
p11446
aS'journeyed'
p11447
aS'to'
p11448
aS'the'
p11449
aS'bathroom'
p11450
asI1850
(lp11451
S'John'
p11452
aS'went'
p11453
aS'back'
p11454
aS'to'
p11455
aS'the'
p11456
aS'office'
p11457
asI1851
(lp11458
S'John'
p11459
aS'went'
p11460
aS'to'
p11461
aS'the'
p11462
aS'kitchen'
p11463
asI1852
(lp11464
S'John'
p11465
aS'journeyed'
p11466
aS'to'
p11467
aS'the'
p11468
aS'office'
p11469
asI1853
(lp11470
S'Daniel'
p11471
aS'travelled'
p11472
aS'to'
p11473
aS'the'
p11474
aS'bedroom'
p11475
asI1854
(lp11476
S'John'
p11477
aS'journeyed'
p11478
aS'to'
p11479
aS'the'
p11480
aS'kitchen'
p11481
asI1855
(lp11482
S'John'
p11483
aS'journeyed'
p11484
aS'to'
p11485
aS'the'
p11486
aS'office'
p11487
asI1856
(lp11488
S'Mary'
p11489
aS'went'
p11490
aS'back'
p11491
aS'to'
p11492
aS'the'
p11493
aS'bathroom'
p11494
asI1857
(lp11495
S'John'
p11496
aS'journeyed'
p11497
aS'to'
p11498
aS'the'
p11499
aS'garden'
p11500
asI1858
(lp11501
S'Sandra'
p11502
aS'went'
p11503
aS'to'
p11504
aS'the'
p11505
aS'bathroom'
p11506
asI1859
(lp11507
S'Sandra'
p11508
aS'journeyed'
p11509
aS'to'
p11510
aS'the'
p11511
aS'office'
p11512
asI1860
(lp11513
S'John'
p11514
aS'went'
p11515
aS'back'
p11516
aS'to'
p11517
aS'the'
p11518
aS'bathroom'
p11519
asI1861
(lp11520
S'Mary'
p11521
aS'journeyed'
p11522
aS'to'
p11523
aS'the'
p11524
aS'bedroom'
p11525
asI1862
(lp11526
S'Mary'
p11527
aS'journeyed'
p11528
aS'to'
p11529
aS'the'
p11530
aS'garden'
p11531
asI1863
(lp11532
S'Daniel'
p11533
aS'went'
p11534
aS'back'
p11535
aS'to'
p11536
aS'the'
p11537
aS'garden'
p11538
asI1864
(lp11539
S'Mary'
p11540
aS'went'
p11541
aS'back'
p11542
aS'to'
p11543
aS'the'
p11544
aS'hallway'
p11545
asI1865
(lp11546
S'Daniel'
p11547
aS'went'
p11548
aS'to'
p11549
aS'the'
p11550
aS'hallway'
p11551
asI1866
(lp11552
S'John'
p11553
aS'travelled'
p11554
aS'to'
p11555
aS'the'
p11556
aS'bedroom'
p11557
asI1867
(lp11558
S'Mary'
p11559
aS'went'
p11560
aS'to'
p11561
aS'the'
p11562
aS'garden'
p11563
asI1868
(lp11564
S'Mary'
p11565
aS'went'
p11566
aS'to'
p11567
aS'the'
p11568
aS'kitchen'
p11569
asI1869
(lp11570
S'John'
p11571
aS'moved'
p11572
aS'to'
p11573
aS'the'
p11574
aS'kitchen'
p11575
asI1870
(lp11576
S'John'
p11577
aS'went'
p11578
aS'back'
p11579
aS'to'
p11580
aS'the'
p11581
aS'garden'
p11582
asI1871
(lp11583
S'John'
p11584
aS'journeyed'
p11585
aS'to'
p11586
aS'the'
p11587
aS'bedroom'
p11588
asI1872
(lp11589
S'Mary'
p11590
aS'moved'
p11591
aS'to'
p11592
aS'the'
p11593
aS'garden'
p11594
asI1873
(lp11595
S'Mary'
p11596
aS'journeyed'
p11597
aS'to'
p11598
aS'the'
p11599
aS'bathroom'
p11600
asI1874
(lp11601
S'Mary'
p11602
aS'travelled'
p11603
aS'to'
p11604
aS'the'
p11605
aS'garden'
p11606
asI1875
(lp11607
S'Mary'
p11608
aS'went'
p11609
aS'back'
p11610
aS'to'
p11611
aS'the'
p11612
aS'bedroom'
p11613
asI1876
(lp11614
S'Sandra'
p11615
aS'went'
p11616
aS'back'
p11617
aS'to'
p11618
aS'the'
p11619
aS'office'
p11620
asI1877
(lp11621
S'Sandra'
p11622
aS'travelled'
p11623
aS'to'
p11624
aS'the'
p11625
aS'bathroom'
p11626
asI1878
(lp11627
S'Sandra'
p11628
aS'travelled'
p11629
aS'to'
p11630
aS'the'
p11631
aS'kitchen'
p11632
asI1879
(lp11633
S'Sandra'
p11634
aS'moved'
p11635
aS'to'
p11636
aS'the'
p11637
aS'hallway'
p11638
asI1880
(lp11639
S'Mary'
p11640
aS'went'
p11641
aS'to'
p11642
aS'the'
p11643
aS'bathroom'
p11644
asI1881
(lp11645
S'Mary'
p11646
aS'travelled'
p11647
aS'to'
p11648
aS'the'
p11649
aS'kitchen'
p11650
asI1882
(lp11651
S'Sandra'
p11652
aS'moved'
p11653
aS'to'
p11654
aS'the'
p11655
aS'office'
p11656
asI1883
(lp11657
S'Mary'
p11658
aS'went'
p11659
aS'back'
p11660
aS'to'
p11661
aS'the'
p11662
aS'bedroom'
p11663
asI1884
(lp11664
S'Mary'
p11665
aS'journeyed'
p11666
aS'to'
p11667
aS'the'
p11668
aS'kitchen'
p11669
asI1885
(lp11670
S'John'
p11671
aS'travelled'
p11672
aS'to'
p11673
aS'the'
p11674
aS'bedroom'
p11675
asI1886
(lp11676
S'Daniel'
p11677
aS'went'
p11678
aS'to'
p11679
aS'the'
p11680
aS'bedroom'
p11681
asI1887
(lp11682
S'Sandra'
p11683
aS'journeyed'
p11684
aS'to'
p11685
aS'the'
p11686
aS'garden'
p11687
asI1888
(lp11688
S'Sandra'
p11689
aS'travelled'
p11690
aS'to'
p11691
aS'the'
p11692
aS'office'
p11693
asI1889
(lp11694
S'Mary'
p11695
aS'travelled'
p11696
aS'to'
p11697
aS'the'
p11698
aS'office'
p11699
asI1890
(lp11700
S'Mary'
p11701
aS'journeyed'
p11702
aS'to'
p11703
aS'the'
p11704
aS'kitchen'
p11705
asI1891
(lp11706
S'Daniel'
p11707
aS'journeyed'
p11708
aS'to'
p11709
aS'the'
p11710
aS'kitchen'
p11711
asI1892
(lp11712
S'John'
p11713
aS'journeyed'
p11714
aS'to'
p11715
aS'the'
p11716
aS'office'
p11717
asI1893
(lp11718
S'Daniel'
p11719
aS'travelled'
p11720
aS'to'
p11721
aS'the'
p11722
aS'bedroom'
p11723
asI1894
(lp11724
S'Sandra'
p11725
aS'journeyed'
p11726
aS'to'
p11727
aS'the'
p11728
aS'bathroom'
p11729
asI1895
(lp11730
S'Mary'
p11731
aS'travelled'
p11732
aS'to'
p11733
aS'the'
p11734
aS'bedroom'
p11735
asI1896
(lp11736
S'John'
p11737
aS'travelled'
p11738
aS'to'
p11739
aS'the'
p11740
aS'kitchen'
p11741
asI1897
(lp11742
S'Mary'
p11743
aS'went'
p11744
aS'back'
p11745
aS'to'
p11746
aS'the'
p11747
aS'garden'
p11748
asI1898
(lp11749
S'Sandra'
p11750
aS'went'
p11751
aS'back'
p11752
aS'to'
p11753
aS'the'
p11754
aS'bedroom'
p11755
asI1899
(lp11756
S'Sandra'
p11757
aS'journeyed'
p11758
aS'to'
p11759
aS'the'
p11760
aS'bathroom'
p11761
asI1900
(lp11762
S'Daniel'
p11763
aS'moved'
p11764
aS'to'
p11765
aS'the'
p11766
aS'bathroom'
p11767
asI1901
(lp11768
S'Sandra'
p11769
aS'journeyed'
p11770
aS'to'
p11771
aS'the'
p11772
aS'hallway'
p11773
asI1902
(lp11774
S'Mary'
p11775
aS'moved'
p11776
aS'to'
p11777
aS'the'
p11778
aS'bedroom'
p11779
asI1903
(lp11780
S'Mary'
p11781
aS'went'
p11782
aS'back'
p11783
aS'to'
p11784
aS'the'
p11785
aS'office'
p11786
asI1904
(lp11787
S'Sandra'
p11788
aS'moved'
p11789
aS'to'
p11790
aS'the'
p11791
aS'bedroom'
p11792
asI1905
(lp11793
S'Sandra'
p11794
aS'moved'
p11795
aS'to'
p11796
aS'the'
p11797
aS'kitchen'
p11798
asI1906
(lp11799
S'Daniel'
p11800
aS'moved'
p11801
aS'to'
p11802
aS'the'
p11803
aS'bedroom'
p11804
asI1907
(lp11805
S'Sandra'
p11806
aS'went'
p11807
aS'to'
p11808
aS'the'
p11809
aS'hallway'
p11810
asI1908
(lp11811
S'Mary'
p11812
aS'journeyed'
p11813
aS'to'
p11814
aS'the'
p11815
aS'bathroom'
p11816
asI1909
(lp11817
S'John'
p11818
aS'went'
p11819
aS'back'
p11820
aS'to'
p11821
aS'the'
p11822
aS'bathroom'
p11823
asI1910
(lp11824
S'John'
p11825
aS'travelled'
p11826
aS'to'
p11827
aS'the'
p11828
aS'hallway'
p11829
asI1911
(lp11830
S'Sandra'
p11831
aS'moved'
p11832
aS'to'
p11833
aS'the'
p11834
aS'office'
p11835
asI1912
(lp11836
S'John'
p11837
aS'went'
p11838
aS'to'
p11839
aS'the'
p11840
aS'kitchen'
p11841
asI1913
(lp11842
S'John'
p11843
aS'travelled'
p11844
aS'to'
p11845
aS'the'
p11846
aS'garden'
p11847
asI1914
(lp11848
S'Mary'
p11849
aS'moved'
p11850
aS'to'
p11851
aS'the'
p11852
aS'office'
p11853
asI1915
(lp11854
S'John'
p11855
aS'went'
p11856
aS'to'
p11857
aS'the'
p11858
aS'bedroom'
p11859
asI1916
(lp11860
S'John'
p11861
aS'went'
p11862
aS'back'
p11863
aS'to'
p11864
aS'the'
p11865
aS'kitchen'
p11866
asI1917
(lp11867
S'Daniel'
p11868
aS'went'
p11869
aS'to'
p11870
aS'the'
p11871
aS'garden'
p11872
asI1918
(lp11873
S'John'
p11874
aS'went'
p11875
aS'to'
p11876
aS'the'
p11877
aS'office'
p11878
asI1919
(lp11879
S'Mary'
p11880
aS'went'
p11881
aS'back'
p11882
aS'to'
p11883
aS'the'
p11884
aS'bathroom'
p11885
asI1920
(lp11886
S'Sandra'
p11887
aS'journeyed'
p11888
aS'to'
p11889
aS'the'
p11890
aS'garden'
p11891
asI1921
(lp11892
S'Mary'
p11893
aS'went'
p11894
aS'back'
p11895
aS'to'
p11896
aS'the'
p11897
aS'bedroom'
p11898
asI1922
(lp11899
S'Daniel'
p11900
aS'travelled'
p11901
aS'to'
p11902
aS'the'
p11903
aS'office'
p11904
asI1923
(lp11905
S'Daniel'
p11906
aS'went'
p11907
aS'back'
p11908
aS'to'
p11909
aS'the'
p11910
aS'garden'
p11911
asI1924
(lp11912
S'John'
p11913
aS'journeyed'
p11914
aS'to'
p11915
aS'the'
p11916
aS'office'
p11917
asI1925
(lp11918
S'Daniel'
p11919
aS'moved'
p11920
aS'to'
p11921
aS'the'
p11922
aS'kitchen'
p11923
asI1926
(lp11924
S'Mary'
p11925
aS'journeyed'
p11926
aS'to'
p11927
aS'the'
p11928
aS'garden'
p11929
asI1927
(lp11930
S'Sandra'
p11931
aS'went'
p11932
aS'back'
p11933
aS'to'
p11934
aS'the'
p11935
aS'bedroom'
p11936
asI1928
(lp11937
S'John'
p11938
aS'went'
p11939
aS'to'
p11940
aS'the'
p11941
aS'garden'
p11942
asI1929
(lp11943
S'John'
p11944
aS'journeyed'
p11945
aS'to'
p11946
aS'the'
p11947
aS'bathroom'
p11948
asI1930
(lp11949
S'Sandra'
p11950
aS'journeyed'
p11951
aS'to'
p11952
aS'the'
p11953
aS'office'
p11954
asI1931
(lp11955
S'John'
p11956
aS'moved'
p11957
aS'to'
p11958
aS'the'
p11959
aS'garden'
p11960
asI1932
(lp11961
S'Daniel'
p11962
aS'went'
p11963
aS'back'
p11964
aS'to'
p11965
aS'the'
p11966
aS'office'
p11967
asI1933
(lp11968
S'Sandra'
p11969
aS'travelled'
p11970
aS'to'
p11971
aS'the'
p11972
aS'office'
p11973
asI1934
(lp11974
S'Mary'
p11975
aS'went'
p11976
aS'back'
p11977
aS'to'
p11978
aS'the'
p11979
aS'garden'
p11980
asI1935
(lp11981
S'Daniel'
p11982
aS'went'
p11983
aS'back'
p11984
aS'to'
p11985
aS'the'
p11986
aS'hallway'
p11987
asI1936
(lp11988
S'Sandra'
p11989
aS'travelled'
p11990
aS'to'
p11991
aS'the'
p11992
aS'kitchen'
p11993
asI1937
(lp11994
S'Sandra'
p11995
aS'journeyed'
p11996
aS'to'
p11997
aS'the'
p11998
aS'bathroom'
p11999
asI1938
(lp12000
S'Sandra'
p12001
aS'went'
p12002
aS'to'
p12003
aS'the'
p12004
aS'kitchen'
p12005
asI1939
(lp12006
S'Sandra'
p12007
aS'went'
p12008
aS'to'
p12009
aS'the'
p12010
aS'bathroom'
p12011
asI1940
(lp12012
S'Mary'
p12013
aS'moved'
p12014
aS'to'
p12015
aS'the'
p12016
aS'bathroom'
p12017
asI1941
(lp12018
S'Sandra'
p12019
aS'went'
p12020
aS'to'
p12021
aS'the'
p12022
aS'bathroom'
p12023
asI1942
(lp12024
S'John'
p12025
aS'journeyed'
p12026
aS'to'
p12027
aS'the'
p12028
aS'hallway'
p12029
asI1943
(lp12030
S'Daniel'
p12031
aS'went'
p12032
aS'to'
p12033
aS'the'
p12034
aS'office'
p12035
asI1944
(lp12036
S'John'
p12037
aS'went'
p12038
aS'to'
p12039
aS'the'
p12040
aS'kitchen'
p12041
asI1945
(lp12042
S'Daniel'
p12043
aS'travelled'
p12044
aS'to'
p12045
aS'the'
p12046
aS'kitchen'
p12047
asI1946
(lp12048
S'Mary'
p12049
aS'journeyed'
p12050
aS'to'
p12051
aS'the'
p12052
aS'bedroom'
p12053
asI1947
(lp12054
S'Daniel'
p12055
aS'went'
p12056
aS'back'
p12057
aS'to'
p12058
aS'the'
p12059
aS'office'
p12060
asI1948
(lp12061
S'Mary'
p12062
aS'travelled'
p12063
aS'to'
p12064
aS'the'
p12065
aS'garden'
p12066
asI1949
(lp12067
S'John'
p12068
aS'journeyed'
p12069
aS'to'
p12070
aS'the'
p12071
aS'hallway'
p12072
asI1950
(lp12073
S'John'
p12074
aS'travelled'
p12075
aS'to'
p12076
aS'the'
p12077
aS'office'
p12078
asI1951
(lp12079
S'Sandra'
p12080
aS'went'
p12081
aS'to'
p12082
aS'the'
p12083
aS'kitchen'
p12084
asI1952
(lp12085
S'John'
p12086
aS'journeyed'
p12087
aS'to'
p12088
aS'the'
p12089
aS'kitchen'
p12090
asI1953
(lp12091
S'Sandra'
p12092
aS'went'
p12093
aS'back'
p12094
aS'to'
p12095
aS'the'
p12096
aS'garden'
p12097
asI1954
(lp12098
S'Mary'
p12099
aS'travelled'
p12100
aS'to'
p12101
aS'the'
p12102
aS'hallway'
p12103
asI1955
(lp12104
S'Sandra'
p12105
aS'went'
p12106
aS'back'
p12107
aS'to'
p12108
aS'the'
p12109
aS'bathroom'
p12110
asI1956
(lp12111
S'Daniel'
p12112
aS'journeyed'
p12113
aS'to'
p12114
aS'the'
p12115
aS'garden'
p12116
asI1957
(lp12117
S'John'
p12118
aS'moved'
p12119
aS'to'
p12120
aS'the'
p12121
aS'hallway'
p12122
asI1958
(lp12123
S'Mary'
p12124
aS'moved'
p12125
aS'to'
p12126
aS'the'
p12127
aS'bathroom'
p12128
asI1959
(lp12129
S'John'
p12130
aS'went'
p12131
aS'back'
p12132
aS'to'
p12133
aS'the'
p12134
aS'office'
p12135
asI1960
(lp12136
S'Mary'
p12137
aS'went'
p12138
aS'to'
p12139
aS'the'
p12140
aS'kitchen'
p12141
asI1961
(lp12142
S'Sandra'
p12143
aS'moved'
p12144
aS'to'
p12145
aS'the'
p12146
aS'bedroom'
p12147
asI1962
(lp12148
S'John'
p12149
aS'travelled'
p12150
aS'to'
p12151
aS'the'
p12152
aS'office'
p12153
asI1963
(lp12154
S'Daniel'
p12155
aS'travelled'
p12156
aS'to'
p12157
aS'the'
p12158
aS'hallway'
p12159
asI1964
(lp12160
S'Mary'
p12161
aS'went'
p12162
aS'to'
p12163
aS'the'
p12164
aS'hallway'
p12165
asI1965
(lp12166
S'Mary'
p12167
aS'travelled'
p12168
aS'to'
p12169
aS'the'
p12170
aS'office'
p12171
asI1966
(lp12172
S'Sandra'
p12173
aS'moved'
p12174
aS'to'
p12175
aS'the'
p12176
aS'kitchen'
p12177
asI1967
(lp12178
S'John'
p12179
aS'went'
p12180
aS'back'
p12181
aS'to'
p12182
aS'the'
p12183
aS'hallway'
p12184
asI1968
(lp12185
S'Daniel'
p12186
aS'moved'
p12187
aS'to'
p12188
aS'the'
p12189
aS'garden'
p12190
asI1969
(lp12191
S'Daniel'
p12192
aS'moved'
p12193
aS'to'
p12194
aS'the'
p12195
aS'office'
p12196
asI1970
(lp12197
S'Daniel'
p12198
aS'travelled'
p12199
aS'to'
p12200
aS'the'
p12201
aS'bedroom'
p12202
asI1971
(lp12203
S'Mary'
p12204
aS'went'
p12205
aS'to'
p12206
aS'the'
p12207
aS'kitchen'
p12208
asI1972
(lp12209
S'John'
p12210
aS'travelled'
p12211
aS'to'
p12212
aS'the'
p12213
aS'hallway'
p12214
asI1973
(lp12215
S'Sandra'
p12216
aS'went'
p12217
aS'back'
p12218
aS'to'
p12219
aS'the'
p12220
aS'bedroom'
p12221
asI1974
(lp12222
S'John'
p12223
aS'travelled'
p12224
aS'to'
p12225
aS'the'
p12226
aS'kitchen'
p12227
asI1975
(lp12228
S'Mary'
p12229
aS'went'
p12230
aS'back'
p12231
aS'to'
p12232
aS'the'
p12233
aS'garden'
p12234
asI1976
(lp12235
S'Mary'
p12236
aS'travelled'
p12237
aS'to'
p12238
aS'the'
p12239
aS'office'
p12240
asI1977
(lp12241
S'John'
p12242
aS'journeyed'
p12243
aS'to'
p12244
aS'the'
p12245
aS'office'
p12246
asI1978
(lp12247
S'Sandra'
p12248
aS'went'
p12249
aS'to'
p12250
aS'the'
p12251
aS'office'
p12252
asI1979
(lp12253
S'Sandra'
p12254
aS'journeyed'
p12255
aS'to'
p12256
aS'the'
p12257
aS'kitchen'
p12258
asI1980
(lp12259
S'John'
p12260
aS'travelled'
p12261
aS'to'
p12262
aS'the'
p12263
aS'hallway'
p12264
asI1981
(lp12265
S'Daniel'
p12266
aS'went'
p12267
aS'back'
p12268
aS'to'
p12269
aS'the'
p12270
aS'office'
p12271
asI1982
(lp12272
S'Sandra'
p12273
aS'went'
p12274
aS'to'
p12275
aS'the'
p12276
aS'garden'
p12277
asI1983
(lp12278
S'John'
p12279
aS'journeyed'
p12280
aS'to'
p12281
aS'the'
p12282
aS'bedroom'
p12283
asI1984
(lp12284
S'Mary'
p12285
aS'went'
p12286
aS'back'
p12287
aS'to'
p12288
aS'the'
p12289
aS'bathroom'
p12290
asI1985
(lp12291
S'Daniel'
p12292
aS'went'
p12293
aS'back'
p12294
aS'to'
p12295
aS'the'
p12296
aS'kitchen'
p12297
asI1986
(lp12298
S'Mary'
p12299
aS'travelled'
p12300
aS'to'
p12301
aS'the'
p12302
aS'bedroom'
p12303
asI1987
(lp12304
S'John'
p12305
aS'went'
p12306
aS'back'
p12307
aS'to'
p12308
aS'the'
p12309
aS'office'
p12310
asI1988
(lp12311
S'Sandra'
p12312
aS'went'
p12313
aS'to'
p12314
aS'the'
p12315
aS'bedroom'
p12316
asI1989
(lp12317
S'Daniel'
p12318
aS'went'
p12319
aS'to'
p12320
aS'the'
p12321
aS'bedroom'
p12322
asI1990
(lp12323
S'John'
p12324
aS'went'
p12325
aS'back'
p12326
aS'to'
p12327
aS'the'
p12328
aS'garden'
p12329
asI1991
(lp12330
S'Sandra'
p12331
aS'travelled'
p12332
aS'to'
p12333
aS'the'
p12334
aS'hallway'
p12335
asI1992
(lp12336
S'Sandra'
p12337
aS'went'
p12338
aS'to'
p12339
aS'the'
p12340
aS'bedroom'
p12341
asI1993
(lp12342
S'Daniel'
p12343
aS'moved'
p12344
aS'to'
p12345
aS'the'
p12346
aS'office'
p12347
asI1994
(lp12348
S'Mary'
p12349
aS'went'
p12350
aS'to'
p12351
aS'the'
p12352
aS'hallway'
p12353
asI1995
(lp12354
S'Mary'
p12355
aS'journeyed'
p12356
aS'to'
p12357
aS'the'
p12358
aS'kitchen'
p12359
asI1996
(lp12360
S'John'
p12361
aS'went'
p12362
aS'back'
p12363
aS'to'
p12364
aS'the'
p12365
aS'bedroom'
p12366
asI1997
(lp12367
S'Daniel'
p12368
aS'travelled'
p12369
aS'to'
p12370
aS'the'
p12371
aS'kitchen'
p12372
asI1998
(lp12373
S'Sandra'
p12374
aS'travelled'
p12375
aS'to'
p12376
aS'the'
p12377
aS'kitchen'
p12378
asI1999
(lp12379
S'Sandra'
p12380
aS'travelled'
p12381
aS'to'
p12382
aS'the'
p12383
aS'hallway'
p12384
asI2000
(lp12385
S'Daniel'
p12386
aS'went'
p12387
aS'to'
p12388
aS'the'
p12389
aS'garden'
p12390
as.