(dp0
S'What'
p1
I8
sS'Who'
p2
I99
sS'office'
p3
I10
sS'handed'
p4
I102
sS'bedroom'
p5
I18
sS'41'
p6
I103
sS'milk'
p7
I6
sS'24'
p8
I21
sS'25'
p9
I22
sS'26'
p10
I23
sS'27'
p11
I24
sS'20'
p12
I25
sS'21'
p13
I26
sS'22'
p14
I27
sS'23'
p15
I28
sS'28'
p16
I30
sS'29'
p17
I31
sS'Fred'
p18
I3
sS'to'
p19
I33
sS'4'
p20
I36
sS'8'
p21
I39
sS'gave'
p22
I42
sS'garden'
p23
I44
sS'60'
p24
I46
sS'59'
p25
I49
sS'58'
p26
I55
sS'did'
p27
I63
sS'54'
p28
I73
sS'57'
p29
I65
sS'56'
p30
I77
sS'51'
p31
I67
sS'50'
p32
I82
sS'53'
p33
I69
sS'52'
p34
I70
sS'discarded'
p35
I71
sS'55'
p36
I131
sS'16'
p37
I66
sS'went'
p38
I74
sS'back'
p39
I81
sS'88'
p40
I83
sS'89'
p41
I84
sS'picked'
p42
I86
sS'82'
p43
I87
sS'83'
p44
I88
sS'80'
p45
I89
sS'81'
p46
I90
sS'86'
p47
I91
sS'Mary'
p48
I4
sS'84'
p49
I92
sS'85'
p50
I93
sS'3'
p51
I105
sS'7'
p52
I108
sS'got'
p53
I110
sS'Bill'
p54
I2
sS'102'
p55
I52
sS'103'
p56
I106
sS'100'
p57
I123
sS'106'
p58
I124
sS'105'
p59
I32
sS'received'
p60
I127
sS'39'
p61
I128
sS'38'
p62
I129
sS'journeyed'
p63
I130
sS'33'
p64
I132
sS'32'
p65
I133
sS'31'
p66
I134
sS'30'
p67
I135
sS'put'
p68
I121
sS'36'
p69
I137
sS'35'
p70
I138
sS'34'
p71
I139
sS'apple'
p72
I7
sS'down'
p73
I11
sS'61'
p74
I12
sS'62'
p75
I13
sS'63'
p76
I14
sS'64'
p77
I15
sS'65'
p78
I76
sS'66'
p79
I17
sS'67'
p80
I79
sS'68'
p81
I19
sS'69'
p82
I20
sS'grabbed'
p83
I122
sS'bathroom'
p84
I112
sS'there'
p85
I29
sS'2'
p86
I35
sS'passed'
p87
I37
sS'6'
p88
I38
sS'travelled'
p89
I40
sS'kitchen'
p90
I126
sS'took'
p91
I45
sS'99'
p92
I47
sS'91'
p93
I48
sS'90'
p94
I75
sS'93'
p95
I50
sS'92'
p96
I51
sS'94'
p97
I53
sS'97'
p98
I54
sS'96'
p99
I34
sS'11'
p100
I56
sS'10'
p101
I57
sS'13'
p102
I58
sS'12'
p103
I59
sS'15'
p104
I60
sS'14'
p105
I61
sS'17'
p106
I62
sS'Jeff'
p107
I5
sS'19'
p108
I72
sS'18'
p109
I64
sS'up'
p110
I68
sS'give'
p111
I78
sS'37'
p112
I136
sS'moved'
p113
I80
sS'dropped'
p114
I85
sS'48'
p115
I94
sS'49'
p116
I95
sS'46'
p117
I96
sS'47'
p118
I97
sS'44'
p119
I98
sS'45'
p120
I9
sS'42'
p121
I100
sS'43'
p122
I101
sS'40'
p123
I16
sS'87'
p124
I43
sS'1'
p125
I104
sS'5'
p126
I107
sS'9'
p127
I109
sS'hallway'
p128
I111
sS'football'
p129
I1
sS'77'
p130
I113
sS'76'
p131
I114
sS'75'
p132
I115
sS'74'
p133
I116
sS'73'
p134
I117
sS'72'
p135
I118
sS'71'
p136
I119
sS'70'
p137
I120
sS'79'
p138
I125
sS'78'
p139
I41
sS'the'
p140
I140
sS'left'
p141
I141
s.