(dp0
I1
(lp1
S'What'
p2
aS'did'
p3
aS'Bill'
p4
aS'give'
p5
aS'to'
p6
aS'Fred'
p7
asI2
(lp8
S'Who'
p9
aS'received'
p10
aS'the'
p11
aS'football'
p12
asI3
(lp13
S'Who'
p14
aS'received'
p15
aS'the'
p16
aS'football'
p17
asI4
(lp18
S'Who'
p19
aS'did'
p20
aS'Jeff'
p21
aS'give'
p22
aS'the'
p23
aS'apple'
p24
aS'to'
p25
asI5
(lp26
S'Who'
p27
aS'received'
p28
aS'the'
p29
aS'apple'
p30
asI6
(lp31
S'What'
p32
aS'did'
p33
aS'Mary'
p34
aS'give'
p35
aS'to'
p36
aS'Jeff'
p37
asI7
(lp38
S'What'
p39
aS'did'
p40
aS'Mary'
p41
aS'give'
p42
aS'to'
p43
aS'Jeff'
p44
asI8
(lp45
S'What'
p46
aS'did'
p47
aS'Mary'
p48
aS'give'
p49
aS'to'
p50
aS'Jeff'
p51
asI9
(lp52
S'Who'
p53
aS'gave'
p54
aS'the'
p55
aS'milk'
p56
aS'to'
p57
aS'Fred'
p58
asI10
(lp59
S'Who'
p60
aS'did'
p61
aS'Mary'
p62
aS'give'
p63
aS'the'
p64
aS'milk'
p65
aS'to'
p66
asI11
(lp67
S'Who'
p68
aS'received'
p69
aS'the'
p70
aS'milk'
p71
asI12
(lp72
S'Who'
p73
aS'gave'
p74
aS'the'
p75
aS'milk'
p76
asI13
(lp77
S'Who'
p78
aS'received'
p79
aS'the'
p80
aS'milk'
p81
asI14
(lp82
S'What'
p83
aS'did'
p84
aS'Bill'
p85
aS'give'
p86
aS'to'
p87
aS'Jeff'
p88
asI15
(lp89
S'Who'
p90
aS'did'
p91
aS'Jeff'
p92
aS'give'
p93
aS'the'
p94
aS'football'
p95
aS'to'
p96
asI16
(lp97
S'What'
p98
aS'did'
p99
aS'Bill'
p100
aS'give'
p101
aS'to'
p102
aS'Jeff'
p103
asI17
(lp104
S'Who'
p105
aS'gave'
p106
aS'the'
p107
aS'apple'
p108
asI18
(lp109
S'What'
p110
aS'did'
p111
aS'Jeff'
p112
aS'give'
p113
aS'to'
p114
aS'Bill'
p115
asI19
(lp116
S'Who'
p117
aS'did'
p118
aS'Bill'
p119
aS'give'
p120
aS'the'
p121
aS'apple'
p122
aS'to'
p123
asI20
(lp124
S'What'
p125
aS'did'
p126
aS'Jeff'
p127
aS'give'
p128
aS'to'
p129
aS'Bill'
p130
asI21
(lp131
S'Who'
p132
aS'did'
p133
aS'Mary'
p134
aS'give'
p135
aS'the'
p136
aS'milk'
p137
aS'to'
p138
asI22
(lp139
S'Who'
p140
aS'gave'
p141
aS'the'
p142
aS'milk'
p143
asI23
(lp144
S'Who'
p145
aS'did'
p146
aS'Fred'
p147
aS'give'
p148
aS'the'
p149
aS'apple'
p150
aS'to'
p151
asI24
(lp152
S'Who'
p153
aS'gave'
p154
aS'the'
p155
aS'apple'
p156
asI25
(lp157
S'Who'
p158
aS'did'
p159
aS'Mary'
p160
aS'give'
p161
aS'the'
p162
aS'milk'
p163
aS'to'
p164
asI26
(lp165
S'Who'
p166
aS'did'
p167
aS'Jeff'
p168
aS'give'
p169
aS'the'
p170
aS'milk'
p171
aS'to'
p172
asI27
(lp173
S'Who'
p174
aS'received'
p175
aS'the'
p176
aS'milk'
p177
asI28
(lp178
S'What'
p179
aS'did'
p180
aS'Jeff'
p181
aS'give'
p182
aS'to'
p183
aS'Bill'
p184
asI29
(lp185
S'Who'
p186
aS'gave'
p187
aS'the'
p188
aS'football'
p189
aS'to'
p190
aS'Mary'
p191
asI30
(lp192
S'Who'
p193
aS'gave'
p194
aS'the'
p195
aS'football'
p196
aS'to'
p197
aS'Fred'
p198
asI31
(lp199
S'Who'
p200
aS'received'
p201
aS'the'
p202
aS'football'
p203
asI32
(lp204
S'What'
p205
aS'did'
p206
aS'Fred'
p207
aS'give'
p208
aS'to'
p209
aS'Mary'
p210
asI33
(lp211
S'Who'
p212
aS'received'
p213
aS'the'
p214
aS'apple'
p215
asI34
(lp216
S'Who'
p217
aS'did'
p218
aS'Mary'
p219
aS'give'
p220
aS'the'
p221
aS'apple'
p222
aS'to'
p223
asI35
(lp224
S'What'
p225
aS'did'
p226
aS'Fred'
p227
aS'give'
p228
aS'to'
p229
aS'Mary'
p230
asI36
(lp231
S'What'
p232
aS'did'
p233
aS'Bill'
p234
aS'give'
p235
aS'to'
p236
aS'Jeff'
p237
asI37
(lp238
S'What'
p239
aS'did'
p240
aS'Bill'
p241
aS'give'
p242
aS'to'
p243
aS'Jeff'
p244
asI38
(lp245
S'What'
p246
aS'did'
p247
aS'Bill'
p248
aS'give'
p249
aS'to'
p250
aS'Jeff'
p251
asI39
(lp252
S'What'
p253
aS'did'
p254
aS'Bill'
p255
aS'give'
p256
aS'to'
p257
aS'Jeff'
p258
asI40
(lp259
S'What'
p260
aS'did'
p261
aS'Bill'
p262
aS'give'
p263
aS'to'
p264
aS'Jeff'
p265
asI41
(lp266
S'What'
p267
aS'did'
p268
aS'Mary'
p269
aS'give'
p270
aS'to'
p271
aS'Jeff'
p272
asI42
(lp273
S'Who'
p274
aS'received'
p275
aS'the'
p276
aS'football'
p277
asI43
(lp278
S'Who'
p279
aS'received'
p280
aS'the'
p281
aS'football'
p282
asI44
(lp283
S'What'
p284
aS'did'
p285
aS'Jeff'
p286
aS'give'
p287
aS'to'
p288
aS'Bill'
p289
asI45
(lp290
S'Who'
p291
aS'received'
p292
aS'the'
p293
aS'football'
p294
asI46
(lp295
S'What'
p296
aS'did'
p297
aS'Fred'
p298
aS'give'
p299
aS'to'
p300
aS'Mary'
p301
asI47
(lp302
S'Who'
p303
aS'received'
p304
aS'the'
p305
aS'apple'
p306
asI48
(lp307
S'Who'
p308
aS'did'
p309
aS'Mary'
p310
aS'give'
p311
aS'the'
p312
aS'apple'
p313
aS'to'
p314
asI49
(lp315
S'What'
p316
aS'did'
p317
aS'Bill'
p318
aS'give'
p319
aS'to'
p320
aS'Mary'
p321
asI50
(lp322
S'What'
p323
aS'did'
p324
aS'Mary'
p325
aS'give'
p326
aS'to'
p327
aS'Fred'
p328
asI51
(lp329
S'Who'
p330
aS'did'
p331
aS'Mary'
p332
aS'give'
p333
aS'the'
p334
aS'milk'
p335
aS'to'
p336
asI52
(lp337
S'What'
p338
aS'did'
p339
aS'Bill'
p340
aS'give'
p341
aS'to'
p342
aS'Mary'
p343
asI53
(lp344
S'What'
p345
aS'did'
p346
aS'Bill'
p347
aS'give'
p348
aS'to'
p349
aS'Mary'
p350
asI54
(lp351
S'What'
p352
aS'did'
p353
aS'Mary'
p354
aS'give'
p355
aS'to'
p356
aS'Bill'
p357
asI55
(lp358
S'Who'
p359
aS'gave'
p360
aS'the'
p361
aS'football'
p362
aS'to'
p363
aS'Mary'
p364
asI56
(lp365
S'What'
p366
aS'did'
p367
aS'Bill'
p368
aS'give'
p369
aS'to'
p370
aS'Jeff'
p371
asI57
(lp372
S'Who'
p373
aS'gave'
p374
aS'the'
p375
aS'football'
p376
aS'to'
p377
aS'Bill'
p378
asI58
(lp379
S'What'
p380
aS'did'
p381
aS'Jeff'
p382
aS'give'
p383
aS'to'
p384
aS'Bill'
p385
asI59
(lp386
S'What'
p387
aS'did'
p388
aS'Jeff'
p389
aS'give'
p390
aS'to'
p391
aS'Bill'
p392
asI60
(lp393
S'What'
p394
aS'did'
p395
aS'Jeff'
p396
aS'give'
p397
aS'to'
p398
aS'Bill'
p399
asI61
(lp400
S'Who'
p401
aS'gave'
p402
aS'the'
p403
aS'apple'
p404
aS'to'
p405
aS'Jeff'
p406
asI62
(lp407
S'What'
p408
aS'did'
p409
aS'Bill'
p410
aS'give'
p411
aS'to'
p412
aS'Jeff'
p413
asI63
(lp414
S'What'
p415
aS'did'
p416
aS'Jeff'
p417
aS'give'
p418
aS'to'
p419
aS'Bill'
p420
asI64
(lp421
S'What'
p422
aS'did'
p423
aS'Bill'
p424
aS'give'
p425
aS'to'
p426
aS'Jeff'
p427
asI65
(lp428
S'Who'
p429
aS'received'
p430
aS'the'
p431
aS'apple'
p432
asI66
(lp433
S'Who'
p434
aS'did'
p435
aS'Bill'
p436
aS'give'
p437
aS'the'
p438
aS'apple'
p439
aS'to'
p440
asI67
(lp441
S'Who'
p442
aS'gave'
p443
aS'the'
p444
aS'apple'
p445
aS'to'
p446
aS'Bill'
p447
asI68
(lp448
S'What'
p449
aS'did'
p450
aS'Fred'
p451
aS'give'
p452
aS'to'
p453
aS'Bill'
p454
asI69
(lp455
S'What'
p456
aS'did'
p457
aS'Fred'
p458
aS'give'
p459
aS'to'
p460
aS'Bill'
p461
asI70
(lp462
S'What'
p463
aS'did'
p464
aS'Fred'
p465
aS'give'
p466
aS'to'
p467
aS'Bill'
p468
asI71
(lp469
S'Who'
p470
aS'gave'
p471
aS'the'
p472
aS'apple'
p473
aS'to'
p474
aS'Fred'
p475
asI72
(lp476
S'Who'
p477
aS'gave'
p478
aS'the'
p479
aS'apple'
p480
aS'to'
p481
aS'Fred'
p482
asI73
(lp483
S'Who'
p484
aS'did'
p485
aS'Mary'
p486
aS'give'
p487
aS'the'
p488
aS'apple'
p489
aS'to'
p490
asI74
(lp491
S'Who'
p492
aS'received'
p493
aS'the'
p494
aS'apple'
p495
asI75
(lp496
S'What'
p497
aS'did'
p498
aS'Jeff'
p499
aS'give'
p500
aS'to'
p501
aS'Mary'
p502
asI76
(lp503
S'Who'
p504
aS'received'
p505
aS'the'
p506
aS'apple'
p507
asI77
(lp508
S'What'
p509
aS'did'
p510
aS'Bill'
p511
aS'give'
p512
aS'to'
p513
aS'Fred'
p514
asI78
(lp515
S'Who'
p516
aS'gave'
p517
aS'the'
p518
aS'football'
p519
asI79
(lp520
S'Who'
p521
aS'gave'
p522
aS'the'
p523
aS'football'
p524
asI80
(lp525
S'What'
p526
aS'did'
p527
aS'Bill'
p528
aS'give'
p529
aS'to'
p530
aS'Jeff'
p531
asI81
(lp532
S'What'
p533
aS'did'
p534
aS'Jeff'
p535
aS'give'
p536
aS'to'
p537
aS'Fred'
p538
asI82
(lp539
S'Who'
p540
aS'received'
p541
aS'the'
p542
aS'football'
p543
asI83
(lp544
S'Who'
p545
aS'received'
p546
aS'the'
p547
aS'football'
p548
asI84
(lp549
S'What'
p550
aS'did'
p551
aS'Jeff'
p552
aS'give'
p553
aS'to'
p554
aS'Mary'
p555
asI85
(lp556
S'What'
p557
aS'did'
p558
aS'Jeff'
p559
aS'give'
p560
aS'to'
p561
aS'Mary'
p562
asI86
(lp563
S'What'
p564
aS'did'
p565
aS'Jeff'
p566
aS'give'
p567
aS'to'
p568
aS'Mary'
p569
asI87
(lp570
S'Who'
p571
aS'gave'
p572
aS'the'
p573
aS'football'
p574
aS'to'
p575
aS'Jeff'
p576
asI88
(lp577
S'What'
p578
aS'did'
p579
aS'Mary'
p580
aS'give'
p581
aS'to'
p582
aS'Fred'
p583
asI89
(lp584
S'Who'
p585
aS'received'
p586
aS'the'
p587
aS'football'
p588
asI90
(lp589
S'Who'
p590
aS'received'
p591
aS'the'
p592
aS'football'
p593
asI91
(lp594
S'Who'
p595
aS'received'
p596
aS'the'
p597
aS'apple'
p598
asI92
(lp599
S'Who'
p600
aS'did'
p601
aS'Mary'
p602
aS'give'
p603
aS'the'
p604
aS'apple'
p605
aS'to'
p606
asI93
(lp607
S'What'
p608
aS'did'
p609
aS'Bill'
p610
aS'give'
p611
aS'to'
p612
aS'Fred'
p613
asI94
(lp614
S'What'
p615
aS'did'
p616
aS'Fred'
p617
aS'give'
p618
aS'to'
p619
aS'Bill'
p620
asI95
(lp621
S'Who'
p622
aS'gave'
p623
aS'the'
p624
aS'football'
p625
asI96
(lp626
S'Who'
p627
aS'gave'
p628
aS'the'
p629
aS'milk'
p630
asI97
(lp631
S'Who'
p632
aS'did'
p633
aS'Jeff'
p634
aS'give'
p635
aS'the'
p636
aS'milk'
p637
aS'to'
p638
asI98
(lp639
S'Who'
p640
aS'did'
p641
aS'Jeff'
p642
aS'give'
p643
aS'the'
p644
aS'milk'
p645
aS'to'
p646
asI99
(lp647
S'Who'
p648
aS'received'
p649
aS'the'
p650
aS'milk'
p651
asI100
(lp652
S'Who'
p653
aS'received'
p654
aS'the'
p655
aS'milk'
p656
asI101
(lp657
S'What'
p658
aS'did'
p659
aS'Jeff'
p660
aS'give'
p661
aS'to'
p662
aS'Bill'
p663
asI102
(lp664
S'What'
p665
aS'did'
p666
aS'Bill'
p667
aS'give'
p668
aS'to'
p669
aS'Fred'
p670
asI103
(lp671
S'What'
p672
aS'did'
p673
aS'Bill'
p674
aS'give'
p675
aS'to'
p676
aS'Fred'
p677
asI104
(lp678
S'Who'
p679
aS'gave'
p680
aS'the'
p681
aS'football'
p682
asI105
(lp683
S'What'
p684
aS'did'
p685
aS'Bill'
p686
aS'give'
p687
aS'to'
p688
aS'Fred'
p689
asI106
(lp690
S'Who'
p691
aS'did'
p692
aS'Mary'
p693
aS'give'
p694
aS'the'
p695
aS'milk'
p696
aS'to'
p697
asI107
(lp698
S'What'
p699
aS'did'
p700
aS'Jeff'
p701
aS'give'
p702
aS'to'
p703
aS'Mary'
p704
asI108
(lp705
S'Who'
p706
aS'did'
p707
aS'Jeff'
p708
aS'give'
p709
aS'the'
p710
aS'milk'
p711
aS'to'
p712
asI109
(lp713
S'Who'
p714
aS'gave'
p715
aS'the'
p716
aS'football'
p717
asI110
(lp718
S'Who'
p719
aS'received'
p720
aS'the'
p721
aS'football'
p722
asI111
(lp723
S'What'
p724
aS'did'
p725
aS'Jeff'
p726
aS'give'
p727
aS'to'
p728
aS'Fred'
p729
asI112
(lp730
S'What'
p731
aS'did'
p732
aS'Fred'
p733
aS'give'
p734
aS'to'
p735
aS'Bill'
p736
asI113
(lp737
S'Who'
p738
aS'gave'
p739
aS'the'
p740
aS'football'
p741
asI114
(lp742
S'Who'
p743
aS'received'
p744
aS'the'
p745
aS'football'
p746
asI115
(lp747
S'What'
p748
aS'did'
p749
aS'Bill'
p750
aS'give'
p751
aS'to'
p752
aS'Mary'
p753
asI116
(lp754
S'Who'
p755
aS'received'
p756
aS'the'
p757
aS'apple'
p758
asI117
(lp759
S'Who'
p760
aS'gave'
p761
aS'the'
p762
aS'apple'
p763
asI118
(lp764
S'What'
p765
aS'did'
p766
aS'Jeff'
p767
aS'give'
p768
aS'to'
p769
aS'Bill'
p770
asI119
(lp771
S'What'
p772
aS'did'
p773
aS'Bill'
p774
aS'give'
p775
aS'to'
p776
aS'Jeff'
p777
asI120
(lp778
S'Who'
p779
aS'received'
p780
aS'the'
p781
aS'apple'
p782
asI121
(lp783
S'Who'
p784
aS'gave'
p785
aS'the'
p786
aS'football'
p787
asI122
(lp788
S'Who'
p789
aS'did'
p790
aS'Fred'
p791
aS'give'
p792
aS'the'
p793
aS'football'
p794
aS'to'
p795
asI123
(lp796
S'Who'
p797
aS'gave'
p798
aS'the'
p799
aS'football'
p800
aS'to'
p801
aS'Mary'
p802
asI124
(lp803
S'What'
p804
aS'did'
p805
aS'Mary'
p806
aS'give'
p807
aS'to'
p808
aS'Fred'
p809
asI125
(lp810
S'Who'
p811
aS'gave'
p812
aS'the'
p813
aS'milk'
p814
asI126
(lp815
S'Who'
p816
aS'did'
p817
aS'Jeff'
p818
aS'give'
p819
aS'the'
p820
aS'milk'
p821
aS'to'
p822
asI127
(lp823
S'Who'
p824
aS'did'
p825
aS'Jeff'
p826
aS'give'
p827
aS'the'
p828
aS'milk'
p829
aS'to'
p830
asI128
(lp831
S'What'
p832
aS'did'
p833
aS'Jeff'
p834
aS'give'
p835
aS'to'
p836
aS'Bill'
p837
asI129
(lp838
S'What'
p839
aS'did'
p840
aS'Jeff'
p841
aS'give'
p842
aS'to'
p843
aS'Bill'
p844
asI130
(lp845
S'Who'
p846
aS'did'
p847
aS'Bill'
p848
aS'give'
p849
aS'the'
p850
aS'milk'
p851
aS'to'
p852
asI131
(lp853
S'Who'
p854
aS'gave'
p855
aS'the'
p856
aS'apple'
p857
aS'to'
p858
aS'Bill'
p859
asI132
(lp860
S'What'
p861
aS'did'
p862
aS'Jeff'
p863
aS'give'
p864
aS'to'
p865
aS'Bill'
p866
asI133
(lp867
S'Who'
p868
aS'received'
p869
aS'the'
p870
aS'apple'
p871
asI134
(lp872
S'Who'
p873
aS'received'
p874
aS'the'
p875
aS'apple'
p876
asI135
(lp877
S'Who'
p878
aS'gave'
p879
aS'the'
p880
aS'apple'
p881
aS'to'
p882
aS'Bill'
p883
asI136
(lp884
S'Who'
p885
aS'gave'
p886
aS'the'
p887
aS'apple'
p888
asI137
(lp889
S'What'
p890
aS'did'
p891
aS'Bill'
p892
aS'give'
p893
aS'to'
p894
aS'Fred'
p895
asI138
(lp896
S'What'
p897
aS'did'
p898
aS'Bill'
p899
aS'give'
p900
aS'to'
p901
aS'Fred'
p902
asI139
(lp903
S'Who'
p904
aS'did'
p905
aS'Bill'
p906
aS'give'
p907
aS'the'
p908
aS'apple'
p909
aS'to'
p910
asI140
(lp911
S'What'
p912
aS'did'
p913
aS'Bill'
p914
aS'give'
p915
aS'to'
p916
aS'Fred'
p917
asI141
(lp918
S'What'
p919
aS'did'
p920
aS'Jeff'
p921
aS'give'
p922
aS'to'
p923
aS'Fred'
p924
asI142
(lp925
S'What'
p926
aS'did'
p927
aS'Fred'
p928
aS'give'
p929
aS'to'
p930
aS'Jeff'
p931
asI143
(lp932
S'Who'
p933
aS'did'
p934
aS'Fred'
p935
aS'give'
p936
aS'the'
p937
aS'football'
p938
aS'to'
p939
asI144
(lp940
S'Who'
p941
aS'gave'
p942
aS'the'
p943
aS'apple'
p944
asI145
(lp945
S'What'
p946
aS'did'
p947
aS'Bill'
p948
aS'give'
p949
aS'to'
p950
aS'Fred'
p951
asI146
(lp952
S'What'
p953
aS'did'
p954
aS'Jeff'
p955
aS'give'
p956
aS'to'
p957
aS'Fred'
p958
asI147
(lp959
S'Who'
p960
aS'gave'
p961
aS'the'
p962
aS'football'
p963
asI148
(lp964
S'What'
p965
aS'did'
p966
aS'Jeff'
p967
aS'give'
p968
aS'to'
p969
aS'Fred'
p970
asI149
(lp971
S'Who'
p972
aS'did'
p973
aS'Jeff'
p974
aS'give'
p975
aS'the'
p976
aS'football'
p977
aS'to'
p978
asI150
(lp979
S'What'
p980
aS'did'
p981
aS'Fred'
p982
aS'give'
p983
aS'to'
p984
aS'Bill'
p985
asI151
(lp986
S'Who'
p987
aS'did'
p988
aS'Jeff'
p989
aS'give'
p990
aS'the'
p991
aS'milk'
p992
aS'to'
p993
asI152
(lp994
S'Who'
p995
aS'gave'
p996
aS'the'
p997
aS'milk'
p998
aS'to'
p999
aS'Fred'
p1000
asI153
(lp1001
S'Who'
p1002
aS'did'
p1003
aS'Fred'
p1004
aS'give'
p1005
aS'the'
p1006
aS'milk'
p1007
aS'to'
p1008
asI154
(lp1009
S'What'
p1010
aS'did'
p1011
aS'Jeff'
p1012
aS'give'
p1013
aS'to'
p1014
aS'Mary'
p1015
asI155
(lp1016
S'Who'
p1017
aS'received'
p1018
aS'the'
p1019
aS'milk'
p1020
asI156
(lp1021
S'Who'
p1022
aS'gave'
p1023
aS'the'
p1024
aS'milk'
p1025
aS'to'
p1026
aS'Fred'
p1027
asI157
(lp1028
S'What'
p1029
aS'did'
p1030
aS'Mary'
p1031
aS'give'
p1032
aS'to'
p1033
aS'Fred'
p1034
asI158
(lp1035
S'What'
p1036
aS'did'
p1037
aS'Mary'
p1038
aS'give'
p1039
aS'to'
p1040
aS'Fred'
p1041
asI159
(lp1042
S'What'
p1043
aS'did'
p1044
aS'Fred'
p1045
aS'give'
p1046
aS'to'
p1047
aS'Mary'
p1048
asI160
(lp1049
S'What'
p1050
aS'did'
p1051
aS'Fred'
p1052
aS'give'
p1053
aS'to'
p1054
aS'Mary'
p1055
asI161
(lp1056
S'Who'
p1057
aS'received'
p1058
aS'the'
p1059
aS'milk'
p1060
asI162
(lp1061
S'What'
p1062
aS'did'
p1063
aS'Bill'
p1064
aS'give'
p1065
aS'to'
p1066
aS'Jeff'
p1067
asI163
(lp1068
S'What'
p1069
aS'did'
p1070
aS'Jeff'
p1071
aS'give'
p1072
aS'to'
p1073
aS'Mary'
p1074
asI164
(lp1075
S'Who'
p1076
aS'did'
p1077
aS'Mary'
p1078
aS'give'
p1079
aS'the'
p1080
aS'milk'
p1081
aS'to'
p1082
asI165
(lp1083
S'What'
p1084
aS'did'
p1085
aS'Mary'
p1086
aS'give'
p1087
aS'to'
p1088
aS'Jeff'
p1089
asI166
(lp1090
S'Who'
p1091
aS'did'
p1092
aS'Bill'
p1093
aS'give'
p1094
aS'the'
p1095
aS'milk'
p1096
aS'to'
p1097
asI167
(lp1098
S'Who'
p1099
aS'gave'
p1100
aS'the'
p1101
aS'milk'
p1102
asI168
(lp1103
S'Who'
p1104
aS'did'
p1105
aS'Mary'
p1106
aS'give'
p1107
aS'the'
p1108
aS'milk'
p1109
aS'to'
p1110
asI169
(lp1111
S'Who'
p1112
aS'received'
p1113
aS'the'
p1114
aS'milk'
p1115
asI170
(lp1116
S'Who'
p1117
aS'received'
p1118
aS'the'
p1119
aS'milk'
p1120
asI171
(lp1121
S'Who'
p1122
aS'gave'
p1123
aS'the'
p1124
aS'apple'
p1125
asI172
(lp1126
S'What'
p1127
aS'did'
p1128
aS'Mary'
p1129
aS'give'
p1130
aS'to'
p1131
aS'Fred'
p1132
asI173
(lp1133
S'Who'
p1134
aS'did'
p1135
aS'Mary'
p1136
aS'give'
p1137
aS'the'
p1138
aS'apple'
p1139
aS'to'
p1140
asI174
(lp1141
S'Who'
p1142
aS'gave'
p1143
aS'the'
p1144
aS'apple'
p1145
asI175
(lp1146
S'Who'
p1147
aS'gave'
p1148
aS'the'
p1149
aS'apple'
p1150
asI176
(lp1151
S'What'
p1152
aS'did'
p1153
aS'Fred'
p1154
aS'give'
p1155
aS'to'
p1156
aS'Mary'
p1157
asI177
(lp1158
S'Who'
p1159
aS'gave'
p1160
aS'the'
p1161
aS'milk'
p1162
aS'to'
p1163
aS'Mary'
p1164
asI178
(lp1165
S'What'
p1166
aS'did'
p1167
aS'Mary'
p1168
aS'give'
p1169
aS'to'
p1170
aS'Fred'
p1171
asI179
(lp1172
S'What'
p1173
aS'did'
p1174
aS'Fred'
p1175
aS'give'
p1176
aS'to'
p1177
aS'Mary'
p1178
asI180
(lp1179
S'What'
p1180
aS'did'
p1181
aS'Mary'
p1182
aS'give'
p1183
aS'to'
p1184
aS'Fred'
p1185
asI181
(lp1186
S'Who'
p1187
aS'gave'
p1188
aS'the'
p1189
aS'milk'
p1190
aS'to'
p1191
aS'Bill'
p1192
asI182
(lp1193
S'What'
p1194
aS'did'
p1195
aS'Fred'
p1196
aS'give'
p1197
aS'to'
p1198
aS'Bill'
p1199
asI183
(lp1200
S'What'
p1201
aS'did'
p1202
aS'Fred'
p1203
aS'give'
p1204
aS'to'
p1205
aS'Bill'
p1206
asI184
(lp1207
S'Who'
p1208
aS'did'
p1209
aS'Fred'
p1210
aS'give'
p1211
aS'the'
p1212
aS'apple'
p1213
aS'to'
p1214
asI185
(lp1215
S'Who'
p1216
aS'received'
p1217
aS'the'
p1218
aS'apple'
p1219
asI186
(lp1220
S'What'
p1221
aS'did'
p1222
aS'Mary'
p1223
aS'give'
p1224
aS'to'
p1225
aS'Fred'
p1226
asI187
(lp1227
S'Who'
p1228
aS'gave'
p1229
aS'the'
p1230
aS'football'
p1231
aS'to'
p1232
aS'Mary'
p1233
asI188
(lp1234
S'Who'
p1235
aS'received'
p1236
aS'the'
p1237
aS'football'
p1238
asI189
(lp1239
S'What'
p1240
aS'did'
p1241
aS'Mary'
p1242
aS'give'
p1243
aS'to'
p1244
aS'Fred'
p1245
asI190
(lp1246
S'Who'
p1247
aS'gave'
p1248
aS'the'
p1249
aS'football'
p1250
aS'to'
p1251
aS'Mary'
p1252
asI191
(lp1253
S'Who'
p1254
aS'gave'
p1255
aS'the'
p1256
aS'football'
p1257
aS'to'
p1258
aS'Bill'
p1259
asI192
(lp1260
S'Who'
p1261
aS'did'
p1262
aS'Jeff'
p1263
aS'give'
p1264
aS'the'
p1265
aS'football'
p1266
aS'to'
p1267
asI193
(lp1268
S'What'
p1269
aS'did'
p1270
aS'Jeff'
p1271
aS'give'
p1272
aS'to'
p1273
aS'Bill'
p1274
asI194
(lp1275
S'Who'
p1276
aS'gave'
p1277
aS'the'
p1278
aS'milk'
p1279
aS'to'
p1280
aS'Mary'
p1281
asI195
(lp1282
S'Who'
p1283
aS'gave'
p1284
aS'the'
p1285
aS'milk'
p1286
aS'to'
p1287
aS'Bill'
p1288
asI196
(lp1289
S'What'
p1290
aS'did'
p1291
aS'Jeff'
p1292
aS'give'
p1293
aS'to'
p1294
aS'Mary'
p1295
asI197
(lp1296
S'Who'
p1297
aS'gave'
p1298
aS'the'
p1299
aS'milk'
p1300
aS'to'
p1301
aS'Mary'
p1302
asI198
(lp1303
S'Who'
p1304
aS'gave'
p1305
aS'the'
p1306
aS'milk'
p1307
aS'to'
p1308
aS'Mary'
p1309
asI199
(lp1310
S'What'
p1311
aS'did'
p1312
aS'Mary'
p1313
aS'give'
p1314
aS'to'
p1315
aS'Bill'
p1316
asI200
(lp1317
S'Who'
p1318
aS'gave'
p1319
aS'the'
p1320
aS'football'
p1321
aS'to'
p1322
aS'Mary'
p1323
asI201
(lp1324
S'Who'
p1325
aS'did'
p1326
aS'Mary'
p1327
aS'give'
p1328
aS'the'
p1329
aS'football'
p1330
aS'to'
p1331
asI202
(lp1332
S'What'
p1333
aS'did'
p1334
aS'Fred'
p1335
aS'give'
p1336
aS'to'
p1337
aS'Bill'
p1338
asI203
(lp1339
S'Who'
p1340
aS'gave'
p1341
aS'the'
p1342
aS'football'
p1343
asI204
(lp1344
S'Who'
p1345
aS'gave'
p1346
aS'the'
p1347
aS'football'
p1348
asI205
(lp1349
S'What'
p1350
aS'did'
p1351
aS'Bill'
p1352
aS'give'
p1353
aS'to'
p1354
aS'Jeff'
p1355
asI206
(lp1356
S'Who'
p1357
aS'did'
p1358
aS'Jeff'
p1359
aS'give'
p1360
aS'the'
p1361
aS'milk'
p1362
aS'to'
p1363
asI207
(lp1364
S'What'
p1365
aS'did'
p1366
aS'Jeff'
p1367
aS'give'
p1368
aS'to'
p1369
aS'Bill'
p1370
asI208
(lp1371
S'What'
p1372
aS'did'
p1373
aS'Jeff'
p1374
aS'give'
p1375
aS'to'
p1376
aS'Bill'
p1377
asI209
(lp1378
S'Who'
p1379
aS'gave'
p1380
aS'the'
p1381
aS'football'
p1382
asI210
(lp1383
S'Who'
p1384
aS'gave'
p1385
aS'the'
p1386
aS'football'
p1387
aS'to'
p1388
aS'Mary'
p1389
asI211
(lp1390
S'What'
p1391
aS'did'
p1392
aS'Mary'
p1393
aS'give'
p1394
aS'to'
p1395
aS'Jeff'
p1396
asI212
(lp1397
S'What'
p1398
aS'did'
p1399
aS'Jeff'
p1400
aS'give'
p1401
aS'to'
p1402
aS'Mary'
p1403
asI213
(lp1404
S'Who'
p1405
aS'gave'
p1406
aS'the'
p1407
aS'football'
p1408
asI214
(lp1409
S'Who'
p1410
aS'gave'
p1411
aS'the'
p1412
aS'football'
p1413
aS'to'
p1414
aS'Jeff'
p1415
asI215
(lp1416
S'Who'
p1417
aS'gave'
p1418
aS'the'
p1419
aS'apple'
p1420
asI216
(lp1421
S'What'
p1422
aS'did'
p1423
aS'Fred'
p1424
aS'give'
p1425
aS'to'
p1426
aS'Mary'
p1427
asI217
(lp1428
S'What'
p1429
aS'did'
p1430
aS'Fred'
p1431
aS'give'
p1432
aS'to'
p1433
aS'Mary'
p1434
asI218
(lp1435
S'What'
p1436
aS'did'
p1437
aS'Bill'
p1438
aS'give'
p1439
aS'to'
p1440
aS'Mary'
p1441
asI219
(lp1442
S'Who'
p1443
aS'gave'
p1444
aS'the'
p1445
aS'football'
p1446
asI220
(lp1447
S'What'
p1448
aS'did'
p1449
aS'Mary'
p1450
aS'give'
p1451
aS'to'
p1452
aS'Bill'
p1453
asI221
(lp1454
S'Who'
p1455
aS'received'
p1456
aS'the'
p1457
aS'apple'
p1458
asI222
(lp1459
S'What'
p1460
aS'did'
p1461
aS'Fred'
p1462
aS'give'
p1463
aS'to'
p1464
aS'Jeff'
p1465
asI223
(lp1466
S'What'
p1467
aS'did'
p1468
aS'Fred'
p1469
aS'give'
p1470
aS'to'
p1471
aS'Jeff'
p1472
asI224
(lp1473
S'Who'
p1474
aS'gave'
p1475
aS'the'
p1476
aS'apple'
p1477
aS'to'
p1478
aS'Bill'
p1479
asI225
(lp1480
S'Who'
p1481
aS'gave'
p1482
aS'the'
p1483
aS'apple'
p1484
asI226
(lp1485
S'Who'
p1486
aS'gave'
p1487
aS'the'
p1488
aS'apple'
p1489
asI227
(lp1490
S'Who'
p1491
aS'gave'
p1492
aS'the'
p1493
aS'apple'
p1494
asI228
(lp1495
S'Who'
p1496
aS'gave'
p1497
aS'the'
p1498
aS'apple'
p1499
aS'to'
p1500
aS'Mary'
p1501
asI229
(lp1502
S'Who'
p1503
aS'gave'
p1504
aS'the'
p1505
aS'apple'
p1506
asI230
(lp1507
S'What'
p1508
aS'did'
p1509
aS'Fred'
p1510
aS'give'
p1511
aS'to'
p1512
aS'Mary'
p1513
asI231
(lp1514
S'Who'
p1515
aS'did'
p1516
aS'Mary'
p1517
aS'give'
p1518
aS'the'
p1519
aS'apple'
p1520
aS'to'
p1521
asI232
(lp1522
S'What'
p1523
aS'did'
p1524
aS'Mary'
p1525
aS'give'
p1526
aS'to'
p1527
aS'Jeff'
p1528
asI233
(lp1529
S'What'
p1530
aS'did'
p1531
aS'Mary'
p1532
aS'give'
p1533
aS'to'
p1534
aS'Jeff'
p1535
asI234
(lp1536
S'Who'
p1537
aS'received'
p1538
aS'the'
p1539
aS'apple'
p1540
asI235
(lp1541
S'Who'
p1542
aS'did'
p1543
aS'Jeff'
p1544
aS'give'
p1545
aS'the'
p1546
aS'apple'
p1547
aS'to'
p1548
asI236
(lp1549
S'Who'
p1550
aS'gave'
p1551
aS'the'
p1552
aS'milk'
p1553
asI237
(lp1554
S'Who'
p1555
aS'gave'
p1556
aS'the'
p1557
aS'milk'
p1558
aS'to'
p1559
aS'Bill'
p1560
asI238
(lp1561
S'What'
p1562
aS'did'
p1563
aS'Fred'
p1564
aS'give'
p1565
aS'to'
p1566
aS'Bill'
p1567
asI239
(lp1568
S'Who'
p1569
aS'gave'
p1570
aS'the'
p1571
aS'milk'
p1572
aS'to'
p1573
aS'Bill'
p1574
asI240
(lp1575
S'What'
p1576
aS'did'
p1577
aS'Bill'
p1578
aS'give'
p1579
aS'to'
p1580
aS'Jeff'
p1581
asI241
(lp1582
S'Who'
p1583
aS'received'
p1584
aS'the'
p1585
aS'football'
p1586
asI242
(lp1587
S'Who'
p1588
aS'gave'
p1589
aS'the'
p1590
aS'football'
p1591
aS'to'
p1592
aS'Fred'
p1593
asI243
(lp1594
S'Who'
p1595
aS'gave'
p1596
aS'the'
p1597
aS'football'
p1598
asI244
(lp1599
S'Who'
p1600
aS'gave'
p1601
aS'the'
p1602
aS'football'
p1603
aS'to'
p1604
aS'Mary'
p1605
asI245
(lp1606
S'What'
p1607
aS'did'
p1608
aS'Fred'
p1609
aS'give'
p1610
aS'to'
p1611
aS'Mary'
p1612
asI246
(lp1613
S'Who'
p1614
aS'gave'
p1615
aS'the'
p1616
aS'milk'
p1617
aS'to'
p1618
aS'Mary'
p1619
asI247
(lp1620
S'Who'
p1621
aS'gave'
p1622
aS'the'
p1623
aS'milk'
p1624
aS'to'
p1625
aS'Mary'
p1626
asI248
(lp1627
S'Who'
p1628
aS'gave'
p1629
aS'the'
p1630
aS'milk'
p1631
asI249
(lp1632
S'Who'
p1633
aS'gave'
p1634
aS'the'
p1635
aS'apple'
p1636
asI250
(lp1637
S'What'
p1638
aS'did'
p1639
aS'Mary'
p1640
aS'give'
p1641
aS'to'
p1642
aS'Fred'
p1643
asI251
(lp1644
S'Who'
p1645
aS'gave'
p1646
aS'the'
p1647
aS'milk'
p1648
aS'to'
p1649
aS'Mary'
p1650
asI252
(lp1651
S'Who'
p1652
aS'gave'
p1653
aS'the'
p1654
aS'milk'
p1655
aS'to'
p1656
aS'Bill'
p1657
asI253
(lp1658
S'Who'
p1659
aS'gave'
p1660
aS'the'
p1661
aS'milk'
p1662
aS'to'
p1663
aS'Bill'
p1664
asI254
(lp1665
S'What'
p1666
aS'did'
p1667
aS'Fred'
p1668
aS'give'
p1669
aS'to'
p1670
aS'Jeff'
p1671
asI255
(lp1672
S'Who'
p1673
aS'received'
p1674
aS'the'
p1675
aS'milk'
p1676
asI256
(lp1677
S'Who'
p1678
aS'received'
p1679
aS'the'
p1680
aS'milk'
p1681
asI257
(lp1682
S'Who'
p1683
aS'gave'
p1684
aS'the'
p1685
aS'milk'
p1686
aS'to'
p1687
aS'Fred'
p1688
asI258
(lp1689
S'Who'
p1690
aS'received'
p1691
aS'the'
p1692
aS'milk'
p1693
asI259
(lp1694
S'Who'
p1695
aS'did'
p1696
aS'Bill'
p1697
aS'give'
p1698
aS'the'
p1699
aS'milk'
p1700
aS'to'
p1701
asI260
(lp1702
S'Who'
p1703
aS'received'
p1704
aS'the'
p1705
aS'milk'
p1706
asI261
(lp1707
S'What'
p1708
aS'did'
p1709
aS'Bill'
p1710
aS'give'
p1711
aS'to'
p1712
aS'Jeff'
p1713
asI262
(lp1714
S'Who'
p1715
aS'received'
p1716
aS'the'
p1717
aS'milk'
p1718
asI263
(lp1719
S'Who'
p1720
aS'did'
p1721
aS'Jeff'
p1722
aS'give'
p1723
aS'the'
p1724
aS'milk'
p1725
aS'to'
p1726
asI264
(lp1727
S'What'
p1728
aS'did'
p1729
aS'Bill'
p1730
aS'give'
p1731
aS'to'
p1732
aS'Jeff'
p1733
asI265
(lp1734
S'Who'
p1735
aS'did'
p1736
aS'Jeff'
p1737
aS'give'
p1738
aS'the'
p1739
aS'apple'
p1740
aS'to'
p1741
asI266
(lp1742
S'What'
p1743
aS'did'
p1744
aS'Mary'
p1745
aS'give'
p1746
aS'to'
p1747
aS'Jeff'
p1748
asI267
(lp1749
S'Who'
p1750
aS'gave'
p1751
aS'the'
p1752
aS'milk'
p1753
asI268
(lp1754
S'Who'
p1755
aS'gave'
p1756
aS'the'
p1757
aS'milk'
p1758
asI269
(lp1759
S'Who'
p1760
aS'gave'
p1761
aS'the'
p1762
aS'apple'
p1763
asI270
(lp1764
S'What'
p1765
aS'did'
p1766
aS'Mary'
p1767
aS'give'
p1768
aS'to'
p1769
aS'Fred'
p1770
asI271
(lp1771
S'Who'
p1772
aS'did'
p1773
aS'Mary'
p1774
aS'give'
p1775
aS'the'
p1776
aS'football'
p1777
aS'to'
p1778
asI272
(lp1779
S'Who'
p1780
aS'gave'
p1781
aS'the'
p1782
aS'football'
p1783
aS'to'
p1784
aS'Bill'
p1785
asI273
(lp1786
S'What'
p1787
aS'did'
p1788
aS'Mary'
p1789
aS'give'
p1790
aS'to'
p1791
aS'Bill'
p1792
asI274
(lp1793
S'Who'
p1794
aS'received'
p1795
aS'the'
p1796
aS'apple'
p1797
asI275
(lp1798
S'Who'
p1799
aS'gave'
p1800
aS'the'
p1801
aS'apple'
p1802
asI276
(lp1803
S'Who'
p1804
aS'gave'
p1805
aS'the'
p1806
aS'football'
p1807
aS'to'
p1808
aS'Bill'
p1809
asI277
(lp1810
S'Who'
p1811
aS'received'
p1812
aS'the'
p1813
aS'football'
p1814
asI278
(lp1815
S'Who'
p1816
aS'gave'
p1817
aS'the'
p1818
aS'milk'
p1819
aS'to'
p1820
aS'Jeff'
p1821
asI279
(lp1822
S'Who'
p1823
aS'gave'
p1824
aS'the'
p1825
aS'milk'
p1826
aS'to'
p1827
aS'Jeff'
p1828
asI280
(lp1829
S'Who'
p1830
aS'gave'
p1831
aS'the'
p1832
aS'milk'
p1833
asI281
(lp1834
S'Who'
p1835
aS'gave'
p1836
aS'the'
p1837
aS'milk'
p1838
aS'to'
p1839
aS'Bill'
p1840
asI282
(lp1841
S'Who'
p1842
aS'gave'
p1843
aS'the'
p1844
aS'milk'
p1845
asI283
(lp1846
S'Who'
p1847
aS'gave'
p1848
aS'the'
p1849
aS'football'
p1850
aS'to'
p1851
aS'Mary'
p1852
asI284
(lp1853
S'Who'
p1854
aS'received'
p1855
aS'the'
p1856
aS'apple'
p1857
asI285
(lp1858
S'What'
p1859
aS'did'
p1860
aS'Fred'
p1861
aS'give'
p1862
aS'to'
p1863
aS'Mary'
p1864
asI286
(lp1865
S'What'
p1866
aS'did'
p1867
aS'Mary'
p1868
aS'give'
p1869
aS'to'
p1870
aS'Fred'
p1871
asI287
(lp1872
S'Who'
p1873
aS'gave'
p1874
aS'the'
p1875
aS'football'
p1876
asI288
(lp1877
S'Who'
p1878
aS'gave'
p1879
aS'the'
p1880
aS'football'
p1881
asI289
(lp1882
S'What'
p1883
aS'did'
p1884
aS'Mary'
p1885
aS'give'
p1886
aS'to'
p1887
aS'Jeff'
p1888
asI290
(lp1889
S'Who'
p1890
aS'did'
p1891
aS'Mary'
p1892
aS'give'
p1893
aS'the'
p1894
aS'football'
p1895
aS'to'
p1896
asI291
(lp1897
S'Who'
p1898
aS'gave'
p1899
aS'the'
p1900
aS'football'
p1901
asI292
(lp1902
S'What'
p1903
aS'did'
p1904
aS'Mary'
p1905
aS'give'
p1906
aS'to'
p1907
aS'Jeff'
p1908
asI293
(lp1909
S'Who'
p1910
aS'gave'
p1911
aS'the'
p1912
aS'football'
p1913
asI294
(lp1914
S'Who'
p1915
aS'did'
p1916
aS'Mary'
p1917
aS'give'
p1918
aS'the'
p1919
aS'apple'
p1920
aS'to'
p1921
asI295
(lp1922
S'Who'
p1923
aS'gave'
p1924
aS'the'
p1925
aS'apple'
p1926
asI296
(lp1927
S'What'
p1928
aS'did'
p1929
aS'Bill'
p1930
aS'give'
p1931
aS'to'
p1932
aS'Mary'
p1933
asI297
(lp1934
S'Who'
p1935
aS'gave'
p1936
aS'the'
p1937
aS'football'
p1938
asI298
(lp1939
S'What'
p1940
aS'did'
p1941
aS'Bill'
p1942
aS'give'
p1943
aS'to'
p1944
aS'Mary'
p1945
asI299
(lp1946
S'Who'
p1947
aS'gave'
p1948
aS'the'
p1949
aS'football'
p1950
aS'to'
p1951
aS'Mary'
p1952
asI300
(lp1953
S'Who'
p1954
aS'did'
p1955
aS'Mary'
p1956
aS'give'
p1957
aS'the'
p1958
aS'football'
p1959
aS'to'
p1960
asI301
(lp1961
S'What'
p1962
aS'did'
p1963
aS'Jeff'
p1964
aS'give'
p1965
aS'to'
p1966
aS'Bill'
p1967
asI302
(lp1968
S'Who'
p1969
aS'received'
p1970
aS'the'
p1971
aS'apple'
p1972
asI303
(lp1973
S'Who'
p1974
aS'received'
p1975
aS'the'
p1976
aS'apple'
p1977
asI304
(lp1978
S'Who'
p1979
aS'received'
p1980
aS'the'
p1981
aS'apple'
p1982
asI305
(lp1983
S'Who'
p1984
aS'received'
p1985
aS'the'
p1986
aS'apple'
p1987
asI306
(lp1988
S'Who'
p1989
aS'did'
p1990
aS'Mary'
p1991
aS'give'
p1992
aS'the'
p1993
aS'apple'
p1994
aS'to'
p1995
asI307
(lp1996
S'Who'
p1997
aS'did'
p1998
aS'Mary'
p1999
aS'give'
p2000
aS'the'
p2001
aS'apple'
p2002
aS'to'
p2003
asI308
(lp2004
S'What'
p2005
aS'did'
p2006
aS'Fred'
p2007
aS'give'
p2008
aS'to'
p2009
aS'Mary'
p2010
asI309
(lp2011
S'What'
p2012
aS'did'
p2013
aS'Mary'
p2014
aS'give'
p2015
aS'to'
p2016
aS'Fred'
p2017
asI310
(lp2018
S'Who'
p2019
aS'gave'
p2020
aS'the'
p2021
aS'football'
p2022
aS'to'
p2023
aS'Mary'
p2024
asI311
(lp2025
S'What'
p2026
aS'did'
p2027
aS'Bill'
p2028
aS'give'
p2029
aS'to'
p2030
aS'Mary'
p2031
asI312
(lp2032
S'What'
p2033
aS'did'
p2034
aS'Mary'
p2035
aS'give'
p2036
aS'to'
p2037
aS'Bill'
p2038
asI313
(lp2039
S'What'
p2040
aS'did'
p2041
aS'Mary'
p2042
aS'give'
p2043
aS'to'
p2044
aS'Bill'
p2045
asI314
(lp2046
S'Who'
p2047
aS'did'
p2048
aS'Mary'
p2049
aS'give'
p2050
aS'the'
p2051
aS'apple'
p2052
aS'to'
p2053
asI315
(lp2054
S'Who'
p2055
aS'gave'
p2056
aS'the'
p2057
aS'apple'
p2058
asI316
(lp2059
S'Who'
p2060
aS'did'
p2061
aS'Fred'
p2062
aS'give'
p2063
aS'the'
p2064
aS'apple'
p2065
aS'to'
p2066
asI317
(lp2067
S'What'
p2068
aS'did'
p2069
aS'Fred'
p2070
aS'give'
p2071
aS'to'
p2072
aS'Bill'
p2073
asI318
(lp2074
S'What'
p2075
aS'did'
p2076
aS'Fred'
p2077
aS'give'
p2078
aS'to'
p2079
aS'Bill'
p2080
asI319
(lp2081
S'Who'
p2082
aS'gave'
p2083
aS'the'
p2084
aS'apple'
p2085
aS'to'
p2086
aS'Fred'
p2087
asI320
(lp2088
S'What'
p2089
aS'did'
p2090
aS'Fred'
p2091
aS'give'
p2092
aS'to'
p2093
aS'Mary'
p2094
asI321
(lp2095
S'What'
p2096
aS'did'
p2097
aS'Mary'
p2098
aS'give'
p2099
aS'to'
p2100
aS'Bill'
p2101
asI322
(lp2102
S'Who'
p2103
aS'received'
p2104
aS'the'
p2105
aS'milk'
p2106
asI323
(lp2107
S'Who'
p2108
aS'gave'
p2109
aS'the'
p2110
aS'football'
p2111
asI324
(lp2112
S'What'
p2113
aS'did'
p2114
aS'Jeff'
p2115
aS'give'
p2116
aS'to'
p2117
aS'Mary'
p2118
asI325
(lp2119
S'Who'
p2120
aS'did'
p2121
aS'Jeff'
p2122
aS'give'
p2123
aS'the'
p2124
aS'football'
p2125
aS'to'
p2126
asI326
(lp2127
S'Who'
p2128
aS'did'
p2129
aS'Fred'
p2130
aS'give'
p2131
aS'the'
p2132
aS'football'
p2133
aS'to'
p2134
asI327
(lp2135
S'Who'
p2136
aS'did'
p2137
aS'Jeff'
p2138
aS'give'
p2139
aS'the'
p2140
aS'football'
p2141
aS'to'
p2142
asI328
(lp2143
S'Who'
p2144
aS'received'
p2145
aS'the'
p2146
aS'football'
p2147
asI329
(lp2148
S'What'
p2149
aS'did'
p2150
aS'Fred'
p2151
aS'give'
p2152
aS'to'
p2153
aS'Mary'
p2154
asI330
(lp2155
S'Who'
p2156
aS'received'
p2157
aS'the'
p2158
aS'football'
p2159
asI331
(lp2160
S'Who'
p2161
aS'did'
p2162
aS'Jeff'
p2163
aS'give'
p2164
aS'the'
p2165
aS'football'
p2166
aS'to'
p2167
asI332
(lp2168
S'Who'
p2169
aS'gave'
p2170
aS'the'
p2171
aS'football'
p2172
aS'to'
p2173
aS'Jeff'
p2174
asI333
(lp2175
S'Who'
p2176
aS'gave'
p2177
aS'the'
p2178
aS'football'
p2179
asI334
(lp2180
S'Who'
p2181
aS'received'
p2182
aS'the'
p2183
aS'football'
p2184
asI335
(lp2185
S'Who'
p2186
aS'gave'
p2187
aS'the'
p2188
aS'football'
p2189
asI336
(lp2190
S'What'
p2191
aS'did'
p2192
aS'Bill'
p2193
aS'give'
p2194
aS'to'
p2195
aS'Fred'
p2196
asI337
(lp2197
S'Who'
p2198
aS'gave'
p2199
aS'the'
p2200
aS'football'
p2201
aS'to'
p2202
aS'Fred'
p2203
asI338
(lp2204
S'Who'
p2205
aS'did'
p2206
aS'Fred'
p2207
aS'give'
p2208
aS'the'
p2209
aS'football'
p2210
aS'to'
p2211
asI339
(lp2212
S'Who'
p2213
aS'gave'
p2214
aS'the'
p2215
aS'football'
p2216
aS'to'
p2217
aS'Fred'
p2218
asI340
(lp2219
S'Who'
p2220
aS'received'
p2221
aS'the'
p2222
aS'football'
p2223
asI341
(lp2224
S'What'
p2225
aS'did'
p2226
aS'Jeff'
p2227
aS'give'
p2228
aS'to'
p2229
aS'Mary'
p2230
asI342
(lp2231
S'Who'
p2232
aS'gave'
p2233
aS'the'
p2234
aS'apple'
p2235
asI343
(lp2236
S'Who'
p2237
aS'gave'
p2238
aS'the'
p2239
aS'apple'
p2240
asI344
(lp2241
S'What'
p2242
aS'did'
p2243
aS'Mary'
p2244
aS'give'
p2245
aS'to'
p2246
aS'Jeff'
p2247
asI345
(lp2248
S'What'
p2249
aS'did'
p2250
aS'Jeff'
p2251
aS'give'
p2252
aS'to'
p2253
aS'Mary'
p2254
asI346
(lp2255
S'What'
p2256
aS'did'
p2257
aS'Jeff'
p2258
aS'give'
p2259
aS'to'
p2260
aS'Fred'
p2261
asI347
(lp2262
S'What'
p2263
aS'did'
p2264
aS'Fred'
p2265
aS'give'
p2266
aS'to'
p2267
aS'Mary'
p2268
asI348
(lp2269
S'What'
p2270
aS'did'
p2271
aS'Fred'
p2272
aS'give'
p2273
aS'to'
p2274
aS'Mary'
p2275
asI349
(lp2276
S'Who'
p2277
aS'did'
p2278
aS'Fred'
p2279
aS'give'
p2280
aS'the'
p2281
aS'apple'
p2282
aS'to'
p2283
asI350
(lp2284
S'What'
p2285
aS'did'
p2286
aS'Fred'
p2287
aS'give'
p2288
aS'to'
p2289
aS'Mary'
p2290
asI351
(lp2291
S'Who'
p2292
aS'gave'
p2293
aS'the'
p2294
aS'milk'
p2295
aS'to'
p2296
aS'Bill'
p2297
asI352
(lp2298
S'Who'
p2299
aS'did'
p2300
aS'Bill'
p2301
aS'give'
p2302
aS'the'
p2303
aS'football'
p2304
aS'to'
p2305
asI353
(lp2306
S'What'
p2307
aS'did'
p2308
aS'Fred'
p2309
aS'give'
p2310
aS'to'
p2311
aS'Bill'
p2312
asI354
(lp2313
S'Who'
p2314
aS'received'
p2315
aS'the'
p2316
aS'football'
p2317
asI355
(lp2318
S'What'
p2319
aS'did'
p2320
aS'Fred'
p2321
aS'give'
p2322
aS'to'
p2323
aS'Bill'
p2324
asI356
(lp2325
S'What'
p2326
aS'did'
p2327
aS'Jeff'
p2328
aS'give'
p2329
aS'to'
p2330
aS'Bill'
p2331
asI357
(lp2332
S'What'
p2333
aS'did'
p2334
aS'Jeff'
p2335
aS'give'
p2336
aS'to'
p2337
aS'Bill'
p2338
asI358
(lp2339
S'Who'
p2340
aS'gave'
p2341
aS'the'
p2342
aS'football'
p2343
asI359
(lp2344
S'Who'
p2345
aS'did'
p2346
aS'Jeff'
p2347
aS'give'
p2348
aS'the'
p2349
aS'football'
p2350
aS'to'
p2351
asI360
(lp2352
S'What'
p2353
aS'did'
p2354
aS'Jeff'
p2355
aS'give'
p2356
aS'to'
p2357
aS'Bill'
p2358
asI361
(lp2359
S'What'
p2360
aS'did'
p2361
aS'Mary'
p2362
aS'give'
p2363
aS'to'
p2364
aS'Bill'
p2365
asI362
(lp2366
S'Who'
p2367
aS'did'
p2368
aS'Mary'
p2369
aS'give'
p2370
aS'the'
p2371
aS'football'
p2372
aS'to'
p2373
asI363
(lp2374
S'What'
p2375
aS'did'
p2376
aS'Bill'
p2377
aS'give'
p2378
aS'to'
p2379
aS'Fred'
p2380
asI364
(lp2381
S'Who'
p2382
aS'received'
p2383
aS'the'
p2384
aS'football'
p2385
asI365
(lp2386
S'Who'
p2387
aS'received'
p2388
aS'the'
p2389
aS'football'
p2390
asI366
(lp2391
S'Who'
p2392
aS'received'
p2393
aS'the'
p2394
aS'milk'
p2395
asI367
(lp2396
S'Who'
p2397
aS'gave'
p2398
aS'the'
p2399
aS'milk'
p2400
asI368
(lp2401
S'Who'
p2402
aS'gave'
p2403
aS'the'
p2404
aS'milk'
p2405
asI369
(lp2406
S'Who'
p2407
aS'gave'
p2408
aS'the'
p2409
aS'milk'
p2410
aS'to'
p2411
aS'Fred'
p2412
asI370
(lp2413
S'Who'
p2414
aS'did'
p2415
aS'Jeff'
p2416
aS'give'
p2417
aS'the'
p2418
aS'milk'
p2419
aS'to'
p2420
asI371
(lp2421
S'Who'
p2422
aS'gave'
p2423
aS'the'
p2424
aS'milk'
p2425
asI372
(lp2426
S'Who'
p2427
aS'gave'
p2428
aS'the'
p2429
aS'milk'
p2430
aS'to'
p2431
aS'Mary'
p2432
asI373
(lp2433
S'Who'
p2434
aS'received'
p2435
aS'the'
p2436
aS'apple'
p2437
asI374
(lp2438
S'Who'
p2439
aS'gave'
p2440
aS'the'
p2441
aS'apple'
p2442
aS'to'
p2443
aS'Bill'
p2444
asI375
(lp2445
S'Who'
p2446
aS'did'
p2447
aS'Fred'
p2448
aS'give'
p2449
aS'the'
p2450
aS'apple'
p2451
aS'to'
p2452
asI376
(lp2453
S'Who'
p2454
aS'gave'
p2455
aS'the'
p2456
aS'milk'
p2457
asI377
(lp2458
S'What'
p2459
aS'did'
p2460
aS'Fred'
p2461
aS'give'
p2462
aS'to'
p2463
aS'Bill'
p2464
asI378
(lp2465
S'Who'
p2466
aS'did'
p2467
aS'Fred'
p2468
aS'give'
p2469
aS'the'
p2470
aS'milk'
p2471
aS'to'
p2472
asI379
(lp2473
S'Who'
p2474
aS'gave'
p2475
aS'the'
p2476
aS'milk'
p2477
aS'to'
p2478
aS'Bill'
p2479
asI380
(lp2480
S'What'
p2481
aS'did'
p2482
aS'Bill'
p2483
aS'give'
p2484
aS'to'
p2485
aS'Fred'
p2486
asI381
(lp2487
S'Who'
p2488
aS'gave'
p2489
aS'the'
p2490
aS'milk'
p2491
aS'to'
p2492
aS'Mary'
p2493
asI382
(lp2494
S'Who'
p2495
aS'did'
p2496
aS'Mary'
p2497
aS'give'
p2498
aS'the'
p2499
aS'milk'
p2500
aS'to'
p2501
asI383
(lp2502
S'What'
p2503
aS'did'
p2504
aS'Fred'
p2505
aS'give'
p2506
aS'to'
p2507
aS'Mary'
p2508
asI384
(lp2509
S'Who'
p2510
aS'received'
p2511
aS'the'
p2512
aS'milk'
p2513
asI385
(lp2514
S'What'
p2515
aS'did'
p2516
aS'Mary'
p2517
aS'give'
p2518
aS'to'
p2519
aS'Fred'
p2520
asI386
(lp2521
S'What'
p2522
aS'did'
p2523
aS'Mary'
p2524
aS'give'
p2525
aS'to'
p2526
aS'Jeff'
p2527
asI387
(lp2528
S'Who'
p2529
aS'gave'
p2530
aS'the'
p2531
aS'football'
p2532
aS'to'
p2533
aS'Mary'
p2534
asI388
(lp2535
S'Who'
p2536
aS'did'
p2537
aS'Mary'
p2538
aS'give'
p2539
aS'the'
p2540
aS'football'
p2541
aS'to'
p2542
asI389
(lp2543
S'Who'
p2544
aS'received'
p2545
aS'the'
p2546
aS'football'
p2547
asI390
(lp2548
S'Who'
p2549
aS'received'
p2550
aS'the'
p2551
aS'football'
p2552
asI391
(lp2553
S'Who'
p2554
aS'gave'
p2555
aS'the'
p2556
aS'football'
p2557
aS'to'
p2558
aS'Bill'
p2559
asI392
(lp2560
S'What'
p2561
aS'did'
p2562
aS'Fred'
p2563
aS'give'
p2564
aS'to'
p2565
aS'Bill'
p2566
asI393
(lp2567
S'Who'
p2568
aS'received'
p2569
aS'the'
p2570
aS'football'
p2571
asI394
(lp2572
S'Who'
p2573
aS'received'
p2574
aS'the'
p2575
aS'football'
p2576
asI395
(lp2577
S'What'
p2578
aS'did'
p2579
aS'Bill'
p2580
aS'give'
p2581
aS'to'
p2582
aS'Fred'
p2583
asI396
(lp2584
S'What'
p2585
aS'did'
p2586
aS'Mary'
p2587
aS'give'
p2588
aS'to'
p2589
aS'Bill'
p2590
asI397
(lp2591
S'Who'
p2592
aS'gave'
p2593
aS'the'
p2594
aS'football'
p2595
asI398
(lp2596
S'What'
p2597
aS'did'
p2598
aS'Mary'
p2599
aS'give'
p2600
aS'to'
p2601
aS'Bill'
p2602
asI399
(lp2603
S'Who'
p2604
aS'gave'
p2605
aS'the'
p2606
aS'football'
p2607
aS'to'
p2608
aS'Bill'
p2609
asI400
(lp2610
S'What'
p2611
aS'did'
p2612
aS'Jeff'
p2613
aS'give'
p2614
aS'to'
p2615
aS'Bill'
p2616
asI401
(lp2617
S'Who'
p2618
aS'did'
p2619
aS'Jeff'
p2620
aS'give'
p2621
aS'the'
p2622
aS'apple'
p2623
aS'to'
p2624
asI402
(lp2625
S'Who'
p2626
aS'gave'
p2627
aS'the'
p2628
aS'apple'
p2629
asI403
(lp2630
S'What'
p2631
aS'did'
p2632
aS'Jeff'
p2633
aS'give'
p2634
aS'to'
p2635
aS'Mary'
p2636
asI404
(lp2637
S'Who'
p2638
aS'gave'
p2639
aS'the'
p2640
aS'apple'
p2641
aS'to'
p2642
aS'Mary'
p2643
asI405
(lp2644
S'Who'
p2645
aS'gave'
p2646
aS'the'
p2647
aS'apple'
p2648
asI406
(lp2649
S'Who'
p2650
aS'received'
p2651
aS'the'
p2652
aS'football'
p2653
asI407
(lp2654
S'Who'
p2655
aS'gave'
p2656
aS'the'
p2657
aS'football'
p2658
asI408
(lp2659
S'Who'
p2660
aS'received'
p2661
aS'the'
p2662
aS'football'
p2663
asI409
(lp2664
S'What'
p2665
aS'did'
p2666
aS'Fred'
p2667
aS'give'
p2668
aS'to'
p2669
aS'Bill'
p2670
asI410
(lp2671
S'What'
p2672
aS'did'
p2673
aS'Mary'
p2674
aS'give'
p2675
aS'to'
p2676
aS'Jeff'
p2677
asI411
(lp2678
S'What'
p2679
aS'did'
p2680
aS'Jeff'
p2681
aS'give'
p2682
aS'to'
p2683
aS'Mary'
p2684
asI412
(lp2685
S'What'
p2686
aS'did'
p2687
aS'Jeff'
p2688
aS'give'
p2689
aS'to'
p2690
aS'Mary'
p2691
asI413
(lp2692
S'Who'
p2693
aS'gave'
p2694
aS'the'
p2695
aS'milk'
p2696
asI414
(lp2697
S'Who'
p2698
aS'did'
p2699
aS'Mary'
p2700
aS'give'
p2701
aS'the'
p2702
aS'football'
p2703
aS'to'
p2704
asI415
(lp2705
S'What'
p2706
aS'did'
p2707
aS'Mary'
p2708
aS'give'
p2709
aS'to'
p2710
aS'Bill'
p2711
asI416
(lp2712
S'Who'
p2713
aS'gave'
p2714
aS'the'
p2715
aS'milk'
p2716
asI417
(lp2717
S'Who'
p2718
aS'received'
p2719
aS'the'
p2720
aS'milk'
p2721
asI418
(lp2722
S'Who'
p2723
aS'gave'
p2724
aS'the'
p2725
aS'milk'
p2726
aS'to'
p2727
aS'Bill'
p2728
asI419
(lp2729
S'What'
p2730
aS'did'
p2731
aS'Jeff'
p2732
aS'give'
p2733
aS'to'
p2734
aS'Fred'
p2735
asI420
(lp2736
S'Who'
p2737
aS'gave'
p2738
aS'the'
p2739
aS'football'
p2740
aS'to'
p2741
aS'Jeff'
p2742
asI421
(lp2743
S'Who'
p2744
aS'received'
p2745
aS'the'
p2746
aS'apple'
p2747
asI422
(lp2748
S'What'
p2749
aS'did'
p2750
aS'Bill'
p2751
aS'give'
p2752
aS'to'
p2753
aS'Mary'
p2754
asI423
(lp2755
S'Who'
p2756
aS'gave'
p2757
aS'the'
p2758
aS'apple'
p2759
asI424
(lp2760
S'Who'
p2761
aS'received'
p2762
aS'the'
p2763
aS'milk'
p2764
asI425
(lp2765
S'What'
p2766
aS'did'
p2767
aS'Jeff'
p2768
aS'give'
p2769
aS'to'
p2770
aS'Bill'
p2771
asI426
(lp2772
S'Who'
p2773
aS'received'
p2774
aS'the'
p2775
aS'apple'
p2776
asI427
(lp2777
S'Who'
p2778
aS'gave'
p2779
aS'the'
p2780
aS'apple'
p2781
asI428
(lp2782
S'Who'
p2783
aS'gave'
p2784
aS'the'
p2785
aS'milk'
p2786
aS'to'
p2787
aS'Bill'
p2788
asI429
(lp2789
S'Who'
p2790
aS'gave'
p2791
aS'the'
p2792
aS'milk'
p2793
aS'to'
p2794
aS'Bill'
p2795
asI430
(lp2796
S'What'
p2797
aS'did'
p2798
aS'Mary'
p2799
aS'give'
p2800
aS'to'
p2801
aS'Fred'
p2802
asI431
(lp2803
S'Who'
p2804
aS'did'
p2805
aS'Mary'
p2806
aS'give'
p2807
aS'the'
p2808
aS'apple'
p2809
aS'to'
p2810
asI432
(lp2811
S'What'
p2812
aS'did'
p2813
aS'Mary'
p2814
aS'give'
p2815
aS'to'
p2816
aS'Fred'
p2817
asI433
(lp2818
S'What'
p2819
aS'did'
p2820
aS'Fred'
p2821
aS'give'
p2822
aS'to'
p2823
aS'Mary'
p2824
asI434
(lp2825
S'Who'
p2826
aS'gave'
p2827
aS'the'
p2828
aS'apple'
p2829
asI435
(lp2830
S'What'
p2831
aS'did'
p2832
aS'Fred'
p2833
aS'give'
p2834
aS'to'
p2835
aS'Mary'
p2836
asI436
(lp2837
S'Who'
p2838
aS'did'
p2839
aS'Mary'
p2840
aS'give'
p2841
aS'the'
p2842
aS'apple'
p2843
aS'to'
p2844
asI437
(lp2845
S'Who'
p2846
aS'received'
p2847
aS'the'
p2848
aS'apple'
p2849
asI438
(lp2850
S'What'
p2851
aS'did'
p2852
aS'Bill'
p2853
aS'give'
p2854
aS'to'
p2855
aS'Jeff'
p2856
asI439
(lp2857
S'What'
p2858
aS'did'
p2859
aS'Bill'
p2860
aS'give'
p2861
aS'to'
p2862
aS'Jeff'
p2863
asI440
(lp2864
S'Who'
p2865
aS'gave'
p2866
aS'the'
p2867
aS'apple'
p2868
aS'to'
p2869
aS'Mary'
p2870
asI441
(lp2871
S'Who'
p2872
aS'did'
p2873
aS'Jeff'
p2874
aS'give'
p2875
aS'the'
p2876
aS'milk'
p2877
aS'to'
p2878
asI442
(lp2879
S'Who'
p2880
aS'did'
p2881
aS'Mary'
p2882
aS'give'
p2883
aS'the'
p2884
aS'milk'
p2885
aS'to'
p2886
asI443
(lp2887
S'Who'
p2888
aS'gave'
p2889
aS'the'
p2890
aS'milk'
p2891
asI444
(lp2892
S'Who'
p2893
aS'gave'
p2894
aS'the'
p2895
aS'milk'
p2896
asI445
(lp2897
S'What'
p2898
aS'did'
p2899
aS'Bill'
p2900
aS'give'
p2901
aS'to'
p2902
aS'Mary'
p2903
asI446
(lp2904
S'Who'
p2905
aS'gave'
p2906
aS'the'
p2907
aS'milk'
p2908
asI447
(lp2909
S'Who'
p2910
aS'did'
p2911
aS'Jeff'
p2912
aS'give'
p2913
aS'the'
p2914
aS'milk'
p2915
aS'to'
p2916
asI448
(lp2917
S'What'
p2918
aS'did'
p2919
aS'Mary'
p2920
aS'give'
p2921
aS'to'
p2922
aS'Jeff'
p2923
asI449
(lp2924
S'Who'
p2925
aS'did'
p2926
aS'Jeff'
p2927
aS'give'
p2928
aS'the'
p2929
aS'milk'
p2930
aS'to'
p2931
asI450
(lp2932
S'What'
p2933
aS'did'
p2934
aS'Jeff'
p2935
aS'give'
p2936
aS'to'
p2937
aS'Mary'
p2938
asI451
(lp2939
S'Who'
p2940
aS'did'
p2941
aS'Bill'
p2942
aS'give'
p2943
aS'the'
p2944
aS'apple'
p2945
aS'to'
p2946
asI452
(lp2947
S'Who'
p2948
aS'received'
p2949
aS'the'
p2950
aS'apple'
p2951
asI453
(lp2952
S'Who'
p2953
aS'gave'
p2954
aS'the'
p2955
aS'apple'
p2956
aS'to'
p2957
aS'Mary'
p2958
asI454
(lp2959
S'What'
p2960
aS'did'
p2961
aS'Jeff'
p2962
aS'give'
p2963
aS'to'
p2964
aS'Mary'
p2965
asI455
(lp2966
S'Who'
p2967
aS'gave'
p2968
aS'the'
p2969
aS'apple'
p2970
asI456
(lp2971
S'Who'
p2972
aS'did'
p2973
aS'Mary'
p2974
aS'give'
p2975
aS'the'
p2976
aS'apple'
p2977
aS'to'
p2978
asI457
(lp2979
S'What'
p2980
aS'did'
p2981
aS'Mary'
p2982
aS'give'
p2983
aS'to'
p2984
aS'Jeff'
p2985
asI458
(lp2986
S'Who'
p2987
aS'did'
p2988
aS'Jeff'
p2989
aS'give'
p2990
aS'the'
p2991
aS'apple'
p2992
aS'to'
p2993
asI459
(lp2994
S'What'
p2995
aS'did'
p2996
aS'Jeff'
p2997
aS'give'
p2998
aS'to'
p2999
aS'Mary'
p3000
asI460
(lp3001
S'Who'
p3002
aS'gave'
p3003
aS'the'
p3004
aS'apple'
p3005
asI461
(lp3006
S'What'
p3007
aS'did'
p3008
aS'Jeff'
p3009
aS'give'
p3010
aS'to'
p3011
aS'Bill'
p3012
asI462
(lp3013
S'Who'
p3014
aS'gave'
p3015
aS'the'
p3016
aS'apple'
p3017
asI463
(lp3018
S'What'
p3019
aS'did'
p3020
aS'Jeff'
p3021
aS'give'
p3022
aS'to'
p3023
aS'Bill'
p3024
asI464
(lp3025
S'Who'
p3026
aS'gave'
p3027
aS'the'
p3028
aS'apple'
p3029
asI465
(lp3030
S'What'
p3031
aS'did'
p3032
aS'Jeff'
p3033
aS'give'
p3034
aS'to'
p3035
aS'Bill'
p3036
asI466
(lp3037
S'Who'
p3038
aS'received'
p3039
aS'the'
p3040
aS'apple'
p3041
asI467
(lp3042
S'Who'
p3043
aS'gave'
p3044
aS'the'
p3045
aS'apple'
p3046
asI468
(lp3047
S'Who'
p3048
aS'did'
p3049
aS'Fred'
p3050
aS'give'
p3051
aS'the'
p3052
aS'apple'
p3053
aS'to'
p3054
asI469
(lp3055
S'What'
p3056
aS'did'
p3057
aS'Fred'
p3058
aS'give'
p3059
aS'to'
p3060
aS'Mary'
p3061
asI470
(lp3062
S'Who'
p3063
aS'received'
p3064
aS'the'
p3065
aS'apple'
p3066
asI471
(lp3067
S'Who'
p3068
aS'received'
p3069
aS'the'
p3070
aS'apple'
p3071
asI472
(lp3072
S'What'
p3073
aS'did'
p3074
aS'Jeff'
p3075
aS'give'
p3076
aS'to'
p3077
aS'Fred'
p3078
asI473
(lp3079
S'Who'
p3080
aS'gave'
p3081
aS'the'
p3082
aS'football'
p3083
aS'to'
p3084
aS'Mary'
p3085
asI474
(lp3086
S'Who'
p3087
aS'received'
p3088
aS'the'
p3089
aS'football'
p3090
asI475
(lp3091
S'Who'
p3092
aS'received'
p3093
aS'the'
p3094
aS'football'
p3095
asI476
(lp3096
S'What'
p3097
aS'did'
p3098
aS'Bill'
p3099
aS'give'
p3100
aS'to'
p3101
aS'Fred'
p3102
asI477
(lp3103
S'Who'
p3104
aS'gave'
p3105
aS'the'
p3106
aS'football'
p3107
asI478
(lp3108
S'What'
p3109
aS'did'
p3110
aS'Fred'
p3111
aS'give'
p3112
aS'to'
p3113
aS'Bill'
p3114
asI479
(lp3115
S'Who'
p3116
aS'gave'
p3117
aS'the'
p3118
aS'milk'
p3119
aS'to'
p3120
aS'Fred'
p3121
asI480
(lp3122
S'Who'
p3123
aS'did'
p3124
aS'Fred'
p3125
aS'give'
p3126
aS'the'
p3127
aS'milk'
p3128
aS'to'
p3129
asI481
(lp3130
S'What'
p3131
aS'did'
p3132
aS'Fred'
p3133
aS'give'
p3134
aS'to'
p3135
aS'Jeff'
p3136
asI482
(lp3137
S'What'
p3138
aS'did'
p3139
aS'Jeff'
p3140
aS'give'
p3141
aS'to'
p3142
aS'Fred'
p3143
asI483
(lp3144
S'Who'
p3145
aS'did'
p3146
aS'Fred'
p3147
aS'give'
p3148
aS'the'
p3149
aS'football'
p3150
aS'to'
p3151
asI484
(lp3152
S'What'
p3153
aS'did'
p3154
aS'Bill'
p3155
aS'give'
p3156
aS'to'
p3157
aS'Jeff'
p3158
asI485
(lp3159
S'Who'
p3160
aS'gave'
p3161
aS'the'
p3162
aS'football'
p3163
asI486
(lp3164
S'Who'
p3165
aS'gave'
p3166
aS'the'
p3167
aS'apple'
p3168
aS'to'
p3169
aS'Fred'
p3170
asI487
(lp3171
S'Who'
p3172
aS'gave'
p3173
aS'the'
p3174
aS'apple'
p3175
asI488
(lp3176
S'What'
p3177
aS'did'
p3178
aS'Mary'
p3179
aS'give'
p3180
aS'to'
p3181
aS'Bill'
p3182
asI489
(lp3183
S'Who'
p3184
aS'did'
p3185
aS'Bill'
p3186
aS'give'
p3187
aS'the'
p3188
aS'apple'
p3189
aS'to'
p3190
asI490
(lp3191
S'Who'
p3192
aS'gave'
p3193
aS'the'
p3194
aS'apple'
p3195
aS'to'
p3196
aS'Mary'
p3197
asI491
(lp3198
S'Who'
p3199
aS'gave'
p3200
aS'the'
p3201
aS'apple'
p3202
aS'to'
p3203
aS'Bill'
p3204
asI492
(lp3205
S'What'
p3206
aS'did'
p3207
aS'Bill'
p3208
aS'give'
p3209
aS'to'
p3210
aS'Fred'
p3211
asI493
(lp3212
S'Who'
p3213
aS'gave'
p3214
aS'the'
p3215
aS'apple'
p3216
aS'to'
p3217
aS'Fred'
p3218
asI494
(lp3219
S'What'
p3220
aS'did'
p3221
aS'Fred'
p3222
aS'give'
p3223
aS'to'
p3224
aS'Mary'
p3225
asI495
(lp3226
S'Who'
p3227
aS'gave'
p3228
aS'the'
p3229
aS'apple'
p3230
asI496
(lp3231
S'Who'
p3232
aS'gave'
p3233
aS'the'
p3234
aS'milk'
p3235
aS'to'
p3236
aS'Bill'
p3237
asI497
(lp3238
S'Who'
p3239
aS'did'
p3240
aS'Mary'
p3241
aS'give'
p3242
aS'the'
p3243
aS'milk'
p3244
aS'to'
p3245
asI498
(lp3246
S'What'
p3247
aS'did'
p3248
aS'Bill'
p3249
aS'give'
p3250
aS'to'
p3251
aS'Mary'
p3252
asI499
(lp3253
S'Who'
p3254
aS'gave'
p3255
aS'the'
p3256
aS'milk'
p3257
asI500
(lp3258
S'Who'
p3259
aS'did'
p3260
aS'Fred'
p3261
aS'give'
p3262
aS'the'
p3263
aS'football'
p3264
aS'to'
p3265
asI501
(lp3266
S'Who'
p3267
aS'received'
p3268
aS'the'
p3269
aS'milk'
p3270
asI502
(lp3271
S'Who'
p3272
aS'received'
p3273
aS'the'
p3274
aS'milk'
p3275
asI503
(lp3276
S'Who'
p3277
aS'gave'
p3278
aS'the'
p3279
aS'milk'
p3280
aS'to'
p3281
aS'Mary'
p3282
asI504
(lp3283
S'Who'
p3284
aS'received'
p3285
aS'the'
p3286
aS'milk'
p3287
asI505
(lp3288
S'Who'
p3289
aS'received'
p3290
aS'the'
p3291
aS'milk'
p3292
asI506
(lp3293
S'What'
p3294
aS'did'
p3295
aS'Fred'
p3296
aS'give'
p3297
aS'to'
p3298
aS'Bill'
p3299
asI507
(lp3300
S'Who'
p3301
aS'received'
p3302
aS'the'
p3303
aS'apple'
p3304
asI508
(lp3305
S'Who'
p3306
aS'did'
p3307
aS'Fred'
p3308
aS'give'
p3309
aS'the'
p3310
aS'apple'
p3311
aS'to'
p3312
asI509
(lp3313
S'What'
p3314
aS'did'
p3315
aS'Fred'
p3316
aS'give'
p3317
aS'to'
p3318
aS'Bill'
p3319
asI510
(lp3320
S'Who'
p3321
aS'gave'
p3322
aS'the'
p3323
aS'apple'
p3324
asI511
(lp3325
S'Who'
p3326
aS'did'
p3327
aS'Mary'
p3328
aS'give'
p3329
aS'the'
p3330
aS'apple'
p3331
aS'to'
p3332
asI512
(lp3333
S'Who'
p3334
aS'gave'
p3335
aS'the'
p3336
aS'apple'
p3337
asI513
(lp3338
S'Who'
p3339
aS'gave'
p3340
aS'the'
p3341
aS'apple'
p3342
asI514
(lp3343
S'Who'
p3344
aS'gave'
p3345
aS'the'
p3346
aS'apple'
p3347
asI515
(lp3348
S'What'
p3349
aS'did'
p3350
aS'Bill'
p3351
aS'give'
p3352
aS'to'
p3353
aS'Mary'
p3354
asI516
(lp3355
S'Who'
p3356
aS'did'
p3357
aS'Fred'
p3358
aS'give'
p3359
aS'the'
p3360
aS'milk'
p3361
aS'to'
p3362
asI517
(lp3363
S'Who'
p3364
aS'did'
p3365
aS'Fred'
p3366
aS'give'
p3367
aS'the'
p3368
aS'milk'
p3369
aS'to'
p3370
asI518
(lp3371
S'What'
p3372
aS'did'
p3373
aS'Jeff'
p3374
aS'give'
p3375
aS'to'
p3376
aS'Mary'
p3377
asI519
(lp3378
S'What'
p3379
aS'did'
p3380
aS'Jeff'
p3381
aS'give'
p3382
aS'to'
p3383
aS'Mary'
p3384
asI520
(lp3385
S'Who'
p3386
aS'received'
p3387
aS'the'
p3388
aS'milk'
p3389
asI521
(lp3390
S'What'
p3391
aS'did'
p3392
aS'Jeff'
p3393
aS'give'
p3394
aS'to'
p3395
aS'Fred'
p3396
asI522
(lp3397
S'Who'
p3398
aS'received'
p3399
aS'the'
p3400
aS'football'
p3401
asI523
(lp3402
S'Who'
p3403
aS'gave'
p3404
aS'the'
p3405
aS'football'
p3406
aS'to'
p3407
aS'Fred'
p3408
asI524
(lp3409
S'Who'
p3410
aS'gave'
p3411
aS'the'
p3412
aS'football'
p3413
asI525
(lp3414
S'What'
p3415
aS'did'
p3416
aS'Mary'
p3417
aS'give'
p3418
aS'to'
p3419
aS'Bill'
p3420
asI526
(lp3421
S'What'
p3422
aS'did'
p3423
aS'Fred'
p3424
aS'give'
p3425
aS'to'
p3426
aS'Jeff'
p3427
asI527
(lp3428
S'Who'
p3429
aS'received'
p3430
aS'the'
p3431
aS'football'
p3432
asI528
(lp3433
S'Who'
p3434
aS'did'
p3435
aS'Fred'
p3436
aS'give'
p3437
aS'the'
p3438
aS'football'
p3439
aS'to'
p3440
asI529
(lp3441
S'Who'
p3442
aS'received'
p3443
aS'the'
p3444
aS'football'
p3445
asI530
(lp3446
S'Who'
p3447
aS'did'
p3448
aS'Fred'
p3449
aS'give'
p3450
aS'the'
p3451
aS'football'
p3452
aS'to'
p3453
asI531
(lp3454
S'Who'
p3455
aS'did'
p3456
aS'Jeff'
p3457
aS'give'
p3458
aS'the'
p3459
aS'football'
p3460
aS'to'
p3461
asI532
(lp3462
S'Who'
p3463
aS'did'
p3464
aS'Bill'
p3465
aS'give'
p3466
aS'the'
p3467
aS'football'
p3468
aS'to'
p3469
asI533
(lp3470
S'What'
p3471
aS'did'
p3472
aS'Jeff'
p3473
aS'give'
p3474
aS'to'
p3475
aS'Bill'
p3476
asI534
(lp3477
S'Who'
p3478
aS'gave'
p3479
aS'the'
p3480
aS'football'
p3481
asI535
(lp3482
S'Who'
p3483
aS'did'
p3484
aS'Jeff'
p3485
aS'give'
p3486
aS'the'
p3487
aS'football'
p3488
aS'to'
p3489
asI536
(lp3490
S'What'
p3491
aS'did'
p3492
aS'Bill'
p3493
aS'give'
p3494
aS'to'
p3495
aS'Mary'
p3496
asI537
(lp3497
S'Who'
p3498
aS'gave'
p3499
aS'the'
p3500
aS'apple'
p3501
asI538
(lp3502
S'Who'
p3503
aS'gave'
p3504
aS'the'
p3505
aS'apple'
p3506
asI539
(lp3507
S'Who'
p3508
aS'received'
p3509
aS'the'
p3510
aS'apple'
p3511
asI540
(lp3512
S'Who'
p3513
aS'gave'
p3514
aS'the'
p3515
aS'apple'
p3516
asI541
(lp3517
S'Who'
p3518
aS'gave'
p3519
aS'the'
p3520
aS'football'
p3521
asI542
(lp3522
S'Who'
p3523
aS'received'
p3524
aS'the'
p3525
aS'football'
p3526
asI543
(lp3527
S'What'
p3528
aS'did'
p3529
aS'Jeff'
p3530
aS'give'
p3531
aS'to'
p3532
aS'Fred'
p3533
asI544
(lp3534
S'Who'
p3535
aS'gave'
p3536
aS'the'
p3537
aS'football'
p3538
asI545
(lp3539
S'What'
p3540
aS'did'
p3541
aS'Mary'
p3542
aS'give'
p3543
aS'to'
p3544
aS'Bill'
p3545
asI546
(lp3546
S'What'
p3547
aS'did'
p3548
aS'Mary'
p3549
aS'give'
p3550
aS'to'
p3551
aS'Jeff'
p3552
asI547
(lp3553
S'What'
p3554
aS'did'
p3555
aS'Jeff'
p3556
aS'give'
p3557
aS'to'
p3558
aS'Mary'
p3559
asI548
(lp3560
S'Who'
p3561
aS'gave'
p3562
aS'the'
p3563
aS'apple'
p3564
aS'to'
p3565
aS'Mary'
p3566
asI549
(lp3567
S'What'
p3568
aS'did'
p3569
aS'Jeff'
p3570
aS'give'
p3571
aS'to'
p3572
aS'Mary'
p3573
asI550
(lp3574
S'What'
p3575
aS'did'
p3576
aS'Bill'
p3577
aS'give'
p3578
aS'to'
p3579
aS'Mary'
p3580
asI551
(lp3581
S'What'
p3582
aS'did'
p3583
aS'Fred'
p3584
aS'give'
p3585
aS'to'
p3586
aS'Mary'
p3587
asI552
(lp3588
S'Who'
p3589
aS'gave'
p3590
aS'the'
p3591
aS'football'
p3592
asI553
(lp3593
S'Who'
p3594
aS'received'
p3595
aS'the'
p3596
aS'football'
p3597
asI554
(lp3598
S'Who'
p3599
aS'gave'
p3600
aS'the'
p3601
aS'football'
p3602
aS'to'
p3603
aS'Fred'
p3604
asI555
(lp3605
S'Who'
p3606
aS'gave'
p3607
aS'the'
p3608
aS'football'
p3609
asI556
(lp3610
S'Who'
p3611
aS'received'
p3612
aS'the'
p3613
aS'apple'
p3614
asI557
(lp3615
S'Who'
p3616
aS'received'
p3617
aS'the'
p3618
aS'apple'
p3619
asI558
(lp3620
S'Who'
p3621
aS'received'
p3622
aS'the'
p3623
aS'apple'
p3624
asI559
(lp3625
S'What'
p3626
aS'did'
p3627
aS'Mary'
p3628
aS'give'
p3629
aS'to'
p3630
aS'Bill'
p3631
asI560
(lp3632
S'Who'
p3633
aS'received'
p3634
aS'the'
p3635
aS'apple'
p3636
asI561
(lp3637
S'Who'
p3638
aS'gave'
p3639
aS'the'
p3640
aS'football'
p3641
asI562
(lp3642
S'Who'
p3643
aS'received'
p3644
aS'the'
p3645
aS'football'
p3646
asI563
(lp3647
S'Who'
p3648
aS'did'
p3649
aS'Mary'
p3650
aS'give'
p3651
aS'the'
p3652
aS'football'
p3653
aS'to'
p3654
asI564
(lp3655
S'Who'
p3656
aS'received'
p3657
aS'the'
p3658
aS'football'
p3659
asI565
(lp3660
S'Who'
p3661
aS'received'
p3662
aS'the'
p3663
aS'football'
p3664
asI566
(lp3665
S'What'
p3666
aS'did'
p3667
aS'Jeff'
p3668
aS'give'
p3669
aS'to'
p3670
aS'Mary'
p3671
asI567
(lp3672
S'What'
p3673
aS'did'
p3674
aS'Mary'
p3675
aS'give'
p3676
aS'to'
p3677
aS'Jeff'
p3678
asI568
(lp3679
S'Who'
p3680
aS'received'
p3681
aS'the'
p3682
aS'milk'
p3683
asI569
(lp3684
S'What'
p3685
aS'did'
p3686
aS'Jeff'
p3687
aS'give'
p3688
aS'to'
p3689
aS'Fred'
p3690
asI570
(lp3691
S'Who'
p3692
aS'received'
p3693
aS'the'
p3694
aS'football'
p3695
asI571
(lp3696
S'Who'
p3697
aS'gave'
p3698
aS'the'
p3699
aS'apple'
p3700
asI572
(lp3701
S'What'
p3702
aS'did'
p3703
aS'Bill'
p3704
aS'give'
p3705
aS'to'
p3706
aS'Mary'
p3707
asI573
(lp3708
S'Who'
p3709
aS'received'
p3710
aS'the'
p3711
aS'apple'
p3712
asI574
(lp3713
S'Who'
p3714
aS'received'
p3715
aS'the'
p3716
aS'apple'
p3717
asI575
(lp3718
S'What'
p3719
aS'did'
p3720
aS'Mary'
p3721
aS'give'
p3722
aS'to'
p3723
aS'Bill'
p3724
asI576
(lp3725
S'What'
p3726
aS'did'
p3727
aS'Bill'
p3728
aS'give'
p3729
aS'to'
p3730
aS'Fred'
p3731
asI577
(lp3732
S'Who'
p3733
aS'received'
p3734
aS'the'
p3735
aS'milk'
p3736
asI578
(lp3737
S'What'
p3738
aS'did'
p3739
aS'Fred'
p3740
aS'give'
p3741
aS'to'
p3742
aS'Bill'
p3743
asI579
(lp3744
S'What'
p3745
aS'did'
p3746
aS'Fred'
p3747
aS'give'
p3748
aS'to'
p3749
aS'Bill'
p3750
asI580
(lp3751
S'Who'
p3752
aS'did'
p3753
aS'Fred'
p3754
aS'give'
p3755
aS'the'
p3756
aS'milk'
p3757
aS'to'
p3758
asI581
(lp3759
S'Who'
p3760
aS'gave'
p3761
aS'the'
p3762
aS'milk'
p3763
asI582
(lp3764
S'Who'
p3765
aS'received'
p3766
aS'the'
p3767
aS'milk'
p3768
asI583
(lp3769
S'Who'
p3770
aS'gave'
p3771
aS'the'
p3772
aS'milk'
p3773
asI584
(lp3774
S'What'
p3775
aS'did'
p3776
aS'Bill'
p3777
aS'give'
p3778
aS'to'
p3779
aS'Jeff'
p3780
asI585
(lp3781
S'What'
p3782
aS'did'
p3783
aS'Bill'
p3784
aS'give'
p3785
aS'to'
p3786
aS'Jeff'
p3787
asI586
(lp3788
S'Who'
p3789
aS'gave'
p3790
aS'the'
p3791
aS'milk'
p3792
asI587
(lp3793
S'Who'
p3794
aS'received'
p3795
aS'the'
p3796
aS'milk'
p3797
asI588
(lp3798
S'What'
p3799
aS'did'
p3800
aS'Bill'
p3801
aS'give'
p3802
aS'to'
p3803
aS'Jeff'
p3804
asI589
(lp3805
S'Who'
p3806
aS'did'
p3807
aS'Bill'
p3808
aS'give'
p3809
aS'the'
p3810
aS'milk'
p3811
aS'to'
p3812
asI590
(lp3813
S'What'
p3814
aS'did'
p3815
aS'Bill'
p3816
aS'give'
p3817
aS'to'
p3818
aS'Jeff'
p3819
asI591
(lp3820
S'What'
p3821
aS'did'
p3822
aS'Jeff'
p3823
aS'give'
p3824
aS'to'
p3825
aS'Fred'
p3826
asI592
(lp3827
S'What'
p3828
aS'did'
p3829
aS'Jeff'
p3830
aS'give'
p3831
aS'to'
p3832
aS'Fred'
p3833
asI593
(lp3834
S'What'
p3835
aS'did'
p3836
aS'Fred'
p3837
aS'give'
p3838
aS'to'
p3839
aS'Bill'
p3840
asI594
(lp3841
S'What'
p3842
aS'did'
p3843
aS'Fred'
p3844
aS'give'
p3845
aS'to'
p3846
aS'Bill'
p3847
asI595
(lp3848
S'Who'
p3849
aS'gave'
p3850
aS'the'
p3851
aS'football'
p3852
aS'to'
p3853
aS'Bill'
p3854
asI596
(lp3855
S'What'
p3856
aS'did'
p3857
aS'Bill'
p3858
aS'give'
p3859
aS'to'
p3860
aS'Jeff'
p3861
asI597
(lp3862
S'Who'
p3863
aS'gave'
p3864
aS'the'
p3865
aS'football'
p3866
aS'to'
p3867
aS'Jeff'
p3868
asI598
(lp3869
S'Who'
p3870
aS'did'
p3871
aS'Bill'
p3872
aS'give'
p3873
aS'the'
p3874
aS'football'
p3875
aS'to'
p3876
asI599
(lp3877
S'Who'
p3878
aS'received'
p3879
aS'the'
p3880
aS'football'
p3881
asI600
(lp3882
S'What'
p3883
aS'did'
p3884
aS'Fred'
p3885
aS'give'
p3886
aS'to'
p3887
aS'Bill'
p3888
asI601
(lp3889
S'Who'
p3890
aS'did'
p3891
aS'Fred'
p3892
aS'give'
p3893
aS'the'
p3894
aS'football'
p3895
aS'to'
p3896
asI602
(lp3897
S'Who'
p3898
aS'received'
p3899
aS'the'
p3900
aS'football'
p3901
asI603
(lp3902
S'Who'
p3903
aS'gave'
p3904
aS'the'
p3905
aS'football'
p3906
asI604
(lp3907
S'What'
p3908
aS'did'
p3909
aS'Fred'
p3910
aS'give'
p3911
aS'to'
p3912
aS'Mary'
p3913
asI605
(lp3914
S'Who'
p3915
aS'did'
p3916
aS'Fred'
p3917
aS'give'
p3918
aS'the'
p3919
aS'football'
p3920
aS'to'
p3921
asI606
(lp3922
S'Who'
p3923
aS'received'
p3924
aS'the'
p3925
aS'football'
p3926
asI607
(lp3927
S'What'
p3928
aS'did'
p3929
aS'Bill'
p3930
aS'give'
p3931
aS'to'
p3932
aS'Jeff'
p3933
asI608
(lp3934
S'What'
p3935
aS'did'
p3936
aS'Jeff'
p3937
aS'give'
p3938
aS'to'
p3939
aS'Bill'
p3940
asI609
(lp3941
S'Who'
p3942
aS'gave'
p3943
aS'the'
p3944
aS'football'
p3945
aS'to'
p3946
aS'Bill'
p3947
asI610
(lp3948
S'What'
p3949
aS'did'
p3950
aS'Mary'
p3951
aS'give'
p3952
aS'to'
p3953
aS'Fred'
p3954
asI611
(lp3955
S'Who'
p3956
aS'gave'
p3957
aS'the'
p3958
aS'football'
p3959
asI612
(lp3960
S'Who'
p3961
aS'received'
p3962
aS'the'
p3963
aS'football'
p3964
asI613
(lp3965
S'What'
p3966
aS'did'
p3967
aS'Jeff'
p3968
aS'give'
p3969
aS'to'
p3970
aS'Mary'
p3971
asI614
(lp3972
S'What'
p3973
aS'did'
p3974
aS'Jeff'
p3975
aS'give'
p3976
aS'to'
p3977
aS'Mary'
p3978
asI615
(lp3979
S'What'
p3980
aS'did'
p3981
aS'Jeff'
p3982
aS'give'
p3983
aS'to'
p3984
aS'Mary'
p3985
asI616
(lp3986
S'Who'
p3987
aS'gave'
p3988
aS'the'
p3989
aS'apple'
p3990
asI617
(lp3991
S'Who'
p3992
aS'gave'
p3993
aS'the'
p3994
aS'apple'
p3995
asI618
(lp3996
S'Who'
p3997
aS'received'
p3998
aS'the'
p3999
aS'apple'
p4000
asI619
(lp4001
S'Who'
p4002
aS'gave'
p4003
aS'the'
p4004
aS'apple'
p4005
aS'to'
p4006
aS'Jeff'
p4007
asI620
(lp4008
S'What'
p4009
aS'did'
p4010
aS'Jeff'
p4011
aS'give'
p4012
aS'to'
p4013
aS'Mary'
p4014
asI621
(lp4015
S'Who'
p4016
aS'received'
p4017
aS'the'
p4018
aS'milk'
p4019
asI622
(lp4020
S'Who'
p4021
aS'received'
p4022
aS'the'
p4023
aS'milk'
p4024
asI623
(lp4025
S'Who'
p4026
aS'received'
p4027
aS'the'
p4028
aS'milk'
p4029
asI624
(lp4030
S'Who'
p4031
aS'gave'
p4032
aS'the'
p4033
aS'milk'
p4034
aS'to'
p4035
aS'Jeff'
p4036
asI625
(lp4037
S'Who'
p4038
aS'gave'
p4039
aS'the'
p4040
aS'milk'
p4041
aS'to'
p4042
aS'Fred'
p4043
asI626
(lp4044
S'What'
p4045
aS'did'
p4046
aS'Bill'
p4047
aS'give'
p4048
aS'to'
p4049
aS'Mary'
p4050
asI627
(lp4051
S'What'
p4052
aS'did'
p4053
aS'Fred'
p4054
aS'give'
p4055
aS'to'
p4056
aS'Mary'
p4057
asI628
(lp4058
S'What'
p4059
aS'did'
p4060
aS'Fred'
p4061
aS'give'
p4062
aS'to'
p4063
aS'Mary'
p4064
asI629
(lp4065
S'Who'
p4066
aS'gave'
p4067
aS'the'
p4068
aS'apple'
p4069
asI630
(lp4070
S'Who'
p4071
aS'received'
p4072
aS'the'
p4073
aS'apple'
p4074
asI631
(lp4075
S'Who'
p4076
aS'gave'
p4077
aS'the'
p4078
aS'apple'
p4079
asI632
(lp4080
S'What'
p4081
aS'did'
p4082
aS'Bill'
p4083
aS'give'
p4084
aS'to'
p4085
aS'Jeff'
p4086
asI633
(lp4087
S'Who'
p4088
aS'received'
p4089
aS'the'
p4090
aS'apple'
p4091
asI634
(lp4092
S'Who'
p4093
aS'received'
p4094
aS'the'
p4095
aS'apple'
p4096
asI635
(lp4097
S'What'
p4098
aS'did'
p4099
aS'Bill'
p4100
aS'give'
p4101
aS'to'
p4102
aS'Mary'
p4103
asI636
(lp4104
S'Who'
p4105
aS'did'
p4106
aS'Bill'
p4107
aS'give'
p4108
aS'the'
p4109
aS'football'
p4110
aS'to'
p4111
asI637
(lp4112
S'What'
p4113
aS'did'
p4114
aS'Jeff'
p4115
aS'give'
p4116
aS'to'
p4117
aS'Bill'
p4118
asI638
(lp4119
S'Who'
p4120
aS'gave'
p4121
aS'the'
p4122
aS'football'
p4123
asI639
(lp4124
S'Who'
p4125
aS'received'
p4126
aS'the'
p4127
aS'football'
p4128
asI640
(lp4129
S'What'
p4130
aS'did'
p4131
aS'Bill'
p4132
aS'give'
p4133
aS'to'
p4134
aS'Jeff'
p4135
asI641
(lp4136
S'What'
p4137
aS'did'
p4138
aS'Fred'
p4139
aS'give'
p4140
aS'to'
p4141
aS'Bill'
p4142
asI642
(lp4143
S'Who'
p4144
aS'received'
p4145
aS'the'
p4146
aS'milk'
p4147
asI643
(lp4148
S'Who'
p4149
aS'gave'
p4150
aS'the'
p4151
aS'milk'
p4152
aS'to'
p4153
aS'Bill'
p4154
asI644
(lp4155
S'What'
p4156
aS'did'
p4157
aS'Fred'
p4158
aS'give'
p4159
aS'to'
p4160
aS'Bill'
p4161
asI645
(lp4162
S'Who'
p4163
aS'gave'
p4164
aS'the'
p4165
aS'milk'
p4166
aS'to'
p4167
aS'Bill'
p4168
asI646
(lp4169
S'Who'
p4170
aS'did'
p4171
aS'Jeff'
p4172
aS'give'
p4173
aS'the'
p4174
aS'milk'
p4175
aS'to'
p4176
asI647
(lp4177
S'Who'
p4178
aS'gave'
p4179
aS'the'
p4180
aS'milk'
p4181
aS'to'
p4182
aS'Bill'
p4183
asI648
(lp4184
S'Who'
p4185
aS'gave'
p4186
aS'the'
p4187
aS'milk'
p4188
aS'to'
p4189
aS'Fred'
p4190
asI649
(lp4191
S'Who'
p4192
aS'did'
p4193
aS'Fred'
p4194
aS'give'
p4195
aS'the'
p4196
aS'milk'
p4197
aS'to'
p4198
asI650
(lp4199
S'What'
p4200
aS'did'
p4201
aS'Bill'
p4202
aS'give'
p4203
aS'to'
p4204
aS'Fred'
p4205
asI651
(lp4206
S'Who'
p4207
aS'did'
p4208
aS'Mary'
p4209
aS'give'
p4210
aS'the'
p4211
aS'apple'
p4212
aS'to'
p4213
asI652
(lp4214
S'Who'
p4215
aS'received'
p4216
aS'the'
p4217
aS'apple'
p4218
asI653
(lp4219
S'What'
p4220
aS'did'
p4221
aS'Jeff'
p4222
aS'give'
p4223
aS'to'
p4224
aS'Mary'
p4225
asI654
(lp4226
S'What'
p4227
aS'did'
p4228
aS'Mary'
p4229
aS'give'
p4230
aS'to'
p4231
aS'Jeff'
p4232
asI655
(lp4233
S'Who'
p4234
aS'gave'
p4235
aS'the'
p4236
aS'apple'
p4237
asI656
(lp4238
S'What'
p4239
aS'did'
p4240
aS'Mary'
p4241
aS'give'
p4242
aS'to'
p4243
aS'Fred'
p4244
asI657
(lp4245
S'Who'
p4246
aS'gave'
p4247
aS'the'
p4248
aS'apple'
p4249
aS'to'
p4250
aS'Mary'
p4251
asI658
(lp4252
S'Who'
p4253
aS'gave'
p4254
aS'the'
p4255
aS'apple'
p4256
asI659
(lp4257
S'Who'
p4258
aS'received'
p4259
aS'the'
p4260
aS'football'
p4261
asI660
(lp4262
S'Who'
p4263
aS'received'
p4264
aS'the'
p4265
aS'football'
p4266
asI661
(lp4267
S'Who'
p4268
aS'did'
p4269
aS'Bill'
p4270
aS'give'
p4271
aS'the'
p4272
aS'football'
p4273
aS'to'
p4274
asI662
(lp4275
S'Who'
p4276
aS'did'
p4277
aS'Bill'
p4278
aS'give'
p4279
aS'the'
p4280
aS'football'
p4281
aS'to'
p4282
asI663
(lp4283
S'Who'
p4284
aS'gave'
p4285
aS'the'
p4286
aS'football'
p4287
asI664
(lp4288
S'Who'
p4289
aS'gave'
p4290
aS'the'
p4291
aS'football'
p4292
asI665
(lp4293
S'What'
p4294
aS'did'
p4295
aS'Bill'
p4296
aS'give'
p4297
aS'to'
p4298
aS'Mary'
p4299
asI666
(lp4300
S'Who'
p4301
aS'gave'
p4302
aS'the'
p4303
aS'apple'
p4304
asI667
(lp4305
S'Who'
p4306
aS'did'
p4307
aS'Jeff'
p4308
aS'give'
p4309
aS'the'
p4310
aS'apple'
p4311
aS'to'
p4312
asI668
(lp4313
S'What'
p4314
aS'did'
p4315
aS'Bill'
p4316
aS'give'
p4317
aS'to'
p4318
aS'Jeff'
p4319
asI669
(lp4320
S'Who'
p4321
aS'gave'
p4322
aS'the'
p4323
aS'apple'
p4324
asI670
(lp4325
S'Who'
p4326
aS'did'
p4327
aS'Jeff'
p4328
aS'give'
p4329
aS'the'
p4330
aS'apple'
p4331
aS'to'
p4332
asI671
(lp4333
S'What'
p4334
aS'did'
p4335
aS'Jeff'
p4336
aS'give'
p4337
aS'to'
p4338
aS'Fred'
p4339
asI672
(lp4340
S'Who'
p4341
aS'did'
p4342
aS'Jeff'
p4343
aS'give'
p4344
aS'the'
p4345
aS'apple'
p4346
aS'to'
p4347
asI673
(lp4348
S'Who'
p4349
aS'did'
p4350
aS'Jeff'
p4351
aS'give'
p4352
aS'the'
p4353
aS'apple'
p4354
aS'to'
p4355
asI674
(lp4356
S'Who'
p4357
aS'did'
p4358
aS'Bill'
p4359
aS'give'
p4360
aS'the'
p4361
aS'football'
p4362
aS'to'
p4363
asI675
(lp4364
S'Who'
p4365
aS'received'
p4366
aS'the'
p4367
aS'football'
p4368
asI676
(lp4369
S'What'
p4370
aS'did'
p4371
aS'Mary'
p4372
aS'give'
p4373
aS'to'
p4374
aS'Fred'
p4375
asI677
(lp4376
S'What'
p4377
aS'did'
p4378
aS'Mary'
p4379
aS'give'
p4380
aS'to'
p4381
aS'Fred'
p4382
asI678
(lp4383
S'Who'
p4384
aS'did'
p4385
aS'Mary'
p4386
aS'give'
p4387
aS'the'
p4388
aS'football'
p4389
aS'to'
p4390
asI679
(lp4391
S'Who'
p4392
aS'gave'
p4393
aS'the'
p4394
aS'football'
p4395
aS'to'
p4396
aS'Fred'
p4397
asI680
(lp4398
S'Who'
p4399
aS'received'
p4400
aS'the'
p4401
aS'football'
p4402
asI681
(lp4403
S'Who'
p4404
aS'received'
p4405
aS'the'
p4406
aS'milk'
p4407
asI682
(lp4408
S'What'
p4409
aS'did'
p4410
aS'Jeff'
p4411
aS'give'
p4412
aS'to'
p4413
aS'Mary'
p4414
asI683
(lp4415
S'What'
p4416
aS'did'
p4417
aS'Jeff'
p4418
aS'give'
p4419
aS'to'
p4420
aS'Mary'
p4421
asI684
(lp4422
S'What'
p4423
aS'did'
p4424
aS'Mary'
p4425
aS'give'
p4426
aS'to'
p4427
aS'Fred'
p4428
asI685
(lp4429
S'Who'
p4430
aS'received'
p4431
aS'the'
p4432
aS'apple'
p4433
asI686
(lp4434
S'What'
p4435
aS'did'
p4436
aS'Bill'
p4437
aS'give'
p4438
aS'to'
p4439
aS'Mary'
p4440
asI687
(lp4441
S'What'
p4442
aS'did'
p4443
aS'Mary'
p4444
aS'give'
p4445
aS'to'
p4446
aS'Bill'
p4447
asI688
(lp4448
S'Who'
p4449
aS'gave'
p4450
aS'the'
p4451
aS'football'
p4452
aS'to'
p4453
aS'Bill'
p4454
asI689
(lp4455
S'Who'
p4456
aS'gave'
p4457
aS'the'
p4458
aS'football'
p4459
aS'to'
p4460
aS'Fred'
p4461
asI690
(lp4462
S'Who'
p4463
aS'gave'
p4464
aS'the'
p4465
aS'football'
p4466
aS'to'
p4467
aS'Mary'
p4468
asI691
(lp4469
S'Who'
p4470
aS'received'
p4471
aS'the'
p4472
aS'milk'
p4473
asI692
(lp4474
S'Who'
p4475
aS'received'
p4476
aS'the'
p4477
aS'milk'
p4478
asI693
(lp4479
S'What'
p4480
aS'did'
p4481
aS'Fred'
p4482
aS'give'
p4483
aS'to'
p4484
aS'Mary'
p4485
asI694
(lp4486
S'Who'
p4487
aS'gave'
p4488
aS'the'
p4489
aS'milk'
p4490
asI695
(lp4491
S'Who'
p4492
aS'gave'
p4493
aS'the'
p4494
aS'milk'
p4495
asI696
(lp4496
S'What'
p4497
aS'did'
p4498
aS'Jeff'
p4499
aS'give'
p4500
aS'to'
p4501
aS'Bill'
p4502
asI697
(lp4503
S'What'
p4504
aS'did'
p4505
aS'Jeff'
p4506
aS'give'
p4507
aS'to'
p4508
aS'Bill'
p4509
asI698
(lp4510
S'What'
p4511
aS'did'
p4512
aS'Jeff'
p4513
aS'give'
p4514
aS'to'
p4515
aS'Bill'
p4516
asI699
(lp4517
S'Who'
p4518
aS'gave'
p4519
aS'the'
p4520
aS'apple'
p4521
asI700
(lp4522
S'What'
p4523
aS'did'
p4524
aS'Mary'
p4525
aS'give'
p4526
aS'to'
p4527
aS'Fred'
p4528
asI701
(lp4529
S'Who'
p4530
aS'gave'
p4531
aS'the'
p4532
aS'apple'
p4533
asI702
(lp4534
S'What'
p4535
aS'did'
p4536
aS'Fred'
p4537
aS'give'
p4538
aS'to'
p4539
aS'Jeff'
p4540
asI703
(lp4541
S'What'
p4542
aS'did'
p4543
aS'Fred'
p4544
aS'give'
p4545
aS'to'
p4546
aS'Jeff'
p4547
asI704
(lp4548
S'Who'
p4549
aS'received'
p4550
aS'the'
p4551
aS'apple'
p4552
asI705
(lp4553
S'Who'
p4554
aS'did'
p4555
aS'Jeff'
p4556
aS'give'
p4557
aS'the'
p4558
aS'apple'
p4559
aS'to'
p4560
asI706
(lp4561
S'Who'
p4562
aS'gave'
p4563
aS'the'
p4564
aS'apple'
p4565
aS'to'
p4566
aS'Fred'
p4567
asI707
(lp4568
S'Who'
p4569
aS'gave'
p4570
aS'the'
p4571
aS'apple'
p4572
asI708
(lp4573
S'What'
p4574
aS'did'
p4575
aS'Bill'
p4576
aS'give'
p4577
aS'to'
p4578
aS'Fred'
p4579
asI709
(lp4580
S'Who'
p4581
aS'did'
p4582
aS'Jeff'
p4583
aS'give'
p4584
aS'the'
p4585
aS'apple'
p4586
aS'to'
p4587
asI710
(lp4588
S'Who'
p4589
aS'gave'
p4590
aS'the'
p4591
aS'apple'
p4592
aS'to'
p4593
aS'Fred'
p4594
asI711
(lp4595
S'Who'
p4596
aS'gave'
p4597
aS'the'
p4598
aS'football'
p4599
asI712
(lp4600
S'What'
p4601
aS'did'
p4602
aS'Mary'
p4603
aS'give'
p4604
aS'to'
p4605
aS'Bill'
p4606
asI713
(lp4607
S'What'
p4608
aS'did'
p4609
aS'Mary'
p4610
aS'give'
p4611
aS'to'
p4612
aS'Bill'
p4613
asI714
(lp4614
S'What'
p4615
aS'did'
p4616
aS'Mary'
p4617
aS'give'
p4618
aS'to'
p4619
aS'Bill'
p4620
asI715
(lp4621
S'Who'
p4622
aS'did'
p4623
aS'Mary'
p4624
aS'give'
p4625
aS'the'
p4626
aS'milk'
p4627
aS'to'
p4628
asI716
(lp4629
S'Who'
p4630
aS'did'
p4631
aS'Mary'
p4632
aS'give'
p4633
aS'the'
p4634
aS'football'
p4635
aS'to'
p4636
asI717
(lp4637
S'Who'
p4638
aS'gave'
p4639
aS'the'
p4640
aS'football'
p4641
asI718
(lp4642
S'Who'
p4643
aS'gave'
p4644
aS'the'
p4645
aS'football'
p4646
asI719
(lp4647
S'Who'
p4648
aS'did'
p4649
aS'Jeff'
p4650
aS'give'
p4651
aS'the'
p4652
aS'football'
p4653
aS'to'
p4654
asI720
(lp4655
S'Who'
p4656
aS'received'
p4657
aS'the'
p4658
aS'football'
p4659
asI721
(lp4660
S'Who'
p4661
aS'received'
p4662
aS'the'
p4663
aS'milk'
p4664
asI722
(lp4665
S'What'
p4666
aS'did'
p4667
aS'Bill'
p4668
aS'give'
p4669
aS'to'
p4670
aS'Fred'
p4671
asI723
(lp4672
S'Who'
p4673
aS'gave'
p4674
aS'the'
p4675
aS'milk'
p4676
asI724
(lp4677
S'Who'
p4678
aS'gave'
p4679
aS'the'
p4680
aS'milk'
p4681
aS'to'
p4682
aS'Bill'
p4683
asI725
(lp4684
S'Who'
p4685
aS'did'
p4686
aS'Fred'
p4687
aS'give'
p4688
aS'the'
p4689
aS'milk'
p4690
aS'to'
p4691
asI726
(lp4692
S'Who'
p4693
aS'gave'
p4694
aS'the'
p4695
aS'apple'
p4696
aS'to'
p4697
aS'Fred'
p4698
asI727
(lp4699
S'Who'
p4700
aS'did'
p4701
aS'Jeff'
p4702
aS'give'
p4703
aS'the'
p4704
aS'apple'
p4705
aS'to'
p4706
asI728
(lp4707
S'What'
p4708
aS'did'
p4709
aS'Fred'
p4710
aS'give'
p4711
aS'to'
p4712
aS'Jeff'
p4713
asI729
(lp4714
S'Who'
p4715
aS'gave'
p4716
aS'the'
p4717
aS'apple'
p4718
aS'to'
p4719
aS'Fred'
p4720
asI730
(lp4721
S'Who'
p4722
aS'gave'
p4723
aS'the'
p4724
aS'apple'
p4725
aS'to'
p4726
aS'Jeff'
p4727
asI731
(lp4728
S'What'
p4729
aS'did'
p4730
aS'Bill'
p4731
aS'give'
p4732
aS'to'
p4733
aS'Jeff'
p4734
asI732
(lp4735
S'What'
p4736
aS'did'
p4737
aS'Bill'
p4738
aS'give'
p4739
aS'to'
p4740
aS'Jeff'
p4741
asI733
(lp4742
S'Who'
p4743
aS'gave'
p4744
aS'the'
p4745
aS'football'
p4746
asI734
(lp4747
S'Who'
p4748
aS'did'
p4749
aS'Jeff'
p4750
aS'give'
p4751
aS'the'
p4752
aS'football'
p4753
aS'to'
p4754
asI735
(lp4755
S'What'
p4756
aS'did'
p4757
aS'Jeff'
p4758
aS'give'
p4759
aS'to'
p4760
aS'Mary'
p4761
asI736
(lp4762
S'Who'
p4763
aS'gave'
p4764
aS'the'
p4765
aS'milk'
p4766
aS'to'
p4767
aS'Bill'
p4768
asI737
(lp4769
S'Who'
p4770
aS'gave'
p4771
aS'the'
p4772
aS'milk'
p4773
asI738
(lp4774
S'What'
p4775
aS'did'
p4776
aS'Fred'
p4777
aS'give'
p4778
aS'to'
p4779
aS'Mary'
p4780
asI739
(lp4781
S'Who'
p4782
aS'gave'
p4783
aS'the'
p4784
aS'milk'
p4785
asI740
(lp4786
S'Who'
p4787
aS'did'
p4788
aS'Fred'
p4789
aS'give'
p4790
aS'the'
p4791
aS'milk'
p4792
aS'to'
p4793
asI741
(lp4794
S'Who'
p4795
aS'did'
p4796
aS'Jeff'
p4797
aS'give'
p4798
aS'the'
p4799
aS'apple'
p4800
aS'to'
p4801
asI742
(lp4802
S'Who'
p4803
aS'received'
p4804
aS'the'
p4805
aS'apple'
p4806
asI743
(lp4807
S'Who'
p4808
aS'gave'
p4809
aS'the'
p4810
aS'apple'
p4811
aS'to'
p4812
aS'Jeff'
p4813
asI744
(lp4814
S'What'
p4815
aS'did'
p4816
aS'Fred'
p4817
aS'give'
p4818
aS'to'
p4819
aS'Jeff'
p4820
asI745
(lp4821
S'Who'
p4822
aS'gave'
p4823
aS'the'
p4824
aS'milk'
p4825
asI746
(lp4826
S'What'
p4827
aS'did'
p4828
aS'Fred'
p4829
aS'give'
p4830
aS'to'
p4831
aS'Jeff'
p4832
asI747
(lp4833
S'What'
p4834
aS'did'
p4835
aS'Jeff'
p4836
aS'give'
p4837
aS'to'
p4838
aS'Fred'
p4839
asI748
(lp4840
S'Who'
p4841
aS'gave'
p4842
aS'the'
p4843
aS'football'
p4844
aS'to'
p4845
aS'Fred'
p4846
asI749
(lp4847
S'Who'
p4848
aS'did'
p4849
aS'Fred'
p4850
aS'give'
p4851
aS'the'
p4852
aS'football'
p4853
aS'to'
p4854
asI750
(lp4855
S'Who'
p4856
aS'gave'
p4857
aS'the'
p4858
aS'football'
p4859
asI751
(lp4860
S'What'
p4861
aS'did'
p4862
aS'Jeff'
p4863
aS'give'
p4864
aS'to'
p4865
aS'Fred'
p4866
asI752
(lp4867
S'Who'
p4868
aS'did'
p4869
aS'Fred'
p4870
aS'give'
p4871
aS'the'
p4872
aS'football'
p4873
aS'to'
p4874
asI753
(lp4875
S'What'
p4876
aS'did'
p4877
aS'Fred'
p4878
aS'give'
p4879
aS'to'
p4880
aS'Mary'
p4881
asI754
(lp4882
S'Who'
p4883
aS'gave'
p4884
aS'the'
p4885
aS'football'
p4886
asI755
(lp4887
S'Who'
p4888
aS'did'
p4889
aS'Fred'
p4890
aS'give'
p4891
aS'the'
p4892
aS'football'
p4893
aS'to'
p4894
asI756
(lp4895
S'Who'
p4896
aS'received'
p4897
aS'the'
p4898
aS'apple'
p4899
asI757
(lp4900
S'What'
p4901
aS'did'
p4902
aS'Bill'
p4903
aS'give'
p4904
aS'to'
p4905
aS'Mary'
p4906
asI758
(lp4907
S'Who'
p4908
aS'gave'
p4909
aS'the'
p4910
aS'apple'
p4911
asI759
(lp4912
S'What'
p4913
aS'did'
p4914
aS'Bill'
p4915
aS'give'
p4916
aS'to'
p4917
aS'Mary'
p4918
asI760
(lp4919
S'What'
p4920
aS'did'
p4921
aS'Bill'
p4922
aS'give'
p4923
aS'to'
p4924
aS'Mary'
p4925
asI761
(lp4926
S'Who'
p4927
aS'did'
p4928
aS'Bill'
p4929
aS'give'
p4930
aS'the'
p4931
aS'football'
p4932
aS'to'
p4933
asI762
(lp4934
S'Who'
p4935
aS'gave'
p4936
aS'the'
p4937
aS'football'
p4938
asI763
(lp4939
S'Who'
p4940
aS'did'
p4941
aS'Bill'
p4942
aS'give'
p4943
aS'the'
p4944
aS'football'
p4945
aS'to'
p4946
asI764
(lp4947
S'Who'
p4948
aS'gave'
p4949
aS'the'
p4950
aS'football'
p4951
aS'to'
p4952
aS'Mary'
p4953
asI765
(lp4954
S'Who'
p4955
aS'received'
p4956
aS'the'
p4957
aS'football'
p4958
asI766
(lp4959
S'Who'
p4960
aS'gave'
p4961
aS'the'
p4962
aS'apple'
p4963
asI767
(lp4964
S'What'
p4965
aS'did'
p4966
aS'Mary'
p4967
aS'give'
p4968
aS'to'
p4969
aS'Jeff'
p4970
asI768
(lp4971
S'Who'
p4972
aS'received'
p4973
aS'the'
p4974
aS'apple'
p4975
asI769
(lp4976
S'Who'
p4977
aS'gave'
p4978
aS'the'
p4979
aS'apple'
p4980
aS'to'
p4981
aS'Jeff'
p4982
asI770
(lp4983
S'Who'
p4984
aS'gave'
p4985
aS'the'
p4986
aS'apple'
p4987
asI771
(lp4988
S'Who'
p4989
aS'gave'
p4990
aS'the'
p4991
aS'apple'
p4992
asI772
(lp4993
S'Who'
p4994
aS'received'
p4995
aS'the'
p4996
aS'football'
p4997
asI773
(lp4998
S'What'
p4999
aS'did'
p5000
aS'Bill'
p5001
aS'give'
p5002
aS'to'
p5003
aS'Mary'
p5004
asI774
(lp5005
S'Who'
p5006
aS'gave'
p5007
aS'the'
p5008
aS'football'
p5009
asI775
(lp5010
S'Who'
p5011
aS'did'
p5012
aS'Bill'
p5013
aS'give'
p5014
aS'the'
p5015
aS'football'
p5016
aS'to'
p5017
asI776
(lp5018
S'What'
p5019
aS'did'
p5020
aS'Mary'
p5021
aS'give'
p5022
aS'to'
p5023
aS'Bill'
p5024
asI777
(lp5025
S'Who'
p5026
aS'did'
p5027
aS'Mary'
p5028
aS'give'
p5029
aS'the'
p5030
aS'milk'
p5031
aS'to'
p5032
asI778
(lp5033
S'What'
p5034
aS'did'
p5035
aS'Mary'
p5036
aS'give'
p5037
aS'to'
p5038
aS'Bill'
p5039
asI779
(lp5040
S'Who'
p5041
aS'received'
p5042
aS'the'
p5043
aS'milk'
p5044
asI780
(lp5045
S'Who'
p5046
aS'did'
p5047
aS'Fred'
p5048
aS'give'
p5049
aS'the'
p5050
aS'milk'
p5051
aS'to'
p5052
asI781
(lp5053
S'What'
p5054
aS'did'
p5055
aS'Jeff'
p5056
aS'give'
p5057
aS'to'
p5058
aS'Bill'
p5059
asI782
(lp5060
S'Who'
p5061
aS'did'
p5062
aS'Jeff'
p5063
aS'give'
p5064
aS'the'
p5065
aS'milk'
p5066
aS'to'
p5067
asI783
(lp5068
S'Who'
p5069
aS'did'
p5070
aS'Jeff'
p5071
aS'give'
p5072
aS'the'
p5073
aS'milk'
p5074
aS'to'
p5075
asI784
(lp5076
S'What'
p5077
aS'did'
p5078
aS'Jeff'
p5079
aS'give'
p5080
aS'to'
p5081
aS'Bill'
p5082
asI785
(lp5083
S'What'
p5084
aS'did'
p5085
aS'Jeff'
p5086
aS'give'
p5087
aS'to'
p5088
aS'Bill'
p5089
asI786
(lp5090
S'Who'
p5091
aS'did'
p5092
aS'Mary'
p5093
aS'give'
p5094
aS'the'
p5095
aS'apple'
p5096
aS'to'
p5097
asI787
(lp5098
S'Who'
p5099
aS'gave'
p5100
aS'the'
p5101
aS'apple'
p5102
asI788
(lp5103
S'What'
p5104
aS'did'
p5105
aS'Mary'
p5106
aS'give'
p5107
aS'to'
p5108
aS'Bill'
p5109
asI789
(lp5110
S'Who'
p5111
aS'gave'
p5112
aS'the'
p5113
aS'milk'
p5114
asI790
(lp5115
S'What'
p5116
aS'did'
p5117
aS'Fred'
p5118
aS'give'
p5119
aS'to'
p5120
aS'Bill'
p5121
asI791
(lp5122
S'Who'
p5123
aS'received'
p5124
aS'the'
p5125
aS'football'
p5126
asI792
(lp5127
S'Who'
p5128
aS'received'
p5129
aS'the'
p5130
aS'football'
p5131
asI793
(lp5132
S'What'
p5133
aS'did'
p5134
aS'Bill'
p5135
aS'give'
p5136
aS'to'
p5137
aS'Mary'
p5138
asI794
(lp5139
S'Who'
p5140
aS'gave'
p5141
aS'the'
p5142
aS'football'
p5143
asI795
(lp5144
S'Who'
p5145
aS'received'
p5146
aS'the'
p5147
aS'football'
p5148
asI796
(lp5149
S'Who'
p5150
aS'did'
p5151
aS'Bill'
p5152
aS'give'
p5153
aS'the'
p5154
aS'apple'
p5155
aS'to'
p5156
asI797
(lp5157
S'What'
p5158
aS'did'
p5159
aS'Bill'
p5160
aS'give'
p5161
aS'to'
p5162
aS'Mary'
p5163
asI798
(lp5164
S'Who'
p5165
aS'gave'
p5166
aS'the'
p5167
aS'apple'
p5168
asI799
(lp5169
S'What'
p5170
aS'did'
p5171
aS'Fred'
p5172
aS'give'
p5173
aS'to'
p5174
aS'Mary'
p5175
asI800
(lp5176
S'What'
p5177
aS'did'
p5178
aS'Fred'
p5179
aS'give'
p5180
aS'to'
p5181
aS'Mary'
p5182
asI801
(lp5183
S'What'
p5184
aS'did'
p5185
aS'Mary'
p5186
aS'give'
p5187
aS'to'
p5188
aS'Jeff'
p5189
asI802
(lp5190
S'Who'
p5191
aS'did'
p5192
aS'Mary'
p5193
aS'give'
p5194
aS'the'
p5195
aS'milk'
p5196
aS'to'
p5197
asI803
(lp5198
S'Who'
p5199
aS'received'
p5200
aS'the'
p5201
aS'apple'
p5202
asI804
(lp5203
S'Who'
p5204
aS'did'
p5205
aS'Bill'
p5206
aS'give'
p5207
aS'the'
p5208
aS'apple'
p5209
aS'to'
p5210
asI805
(lp5211
S'Who'
p5212
aS'gave'
p5213
aS'the'
p5214
aS'apple'
p5215
aS'to'
p5216
aS'Bill'
p5217
asI806
(lp5218
S'Who'
p5219
aS'gave'
p5220
aS'the'
p5221
aS'milk'
p5222
asI807
(lp5223
S'Who'
p5224
aS'gave'
p5225
aS'the'
p5226
aS'milk'
p5227
asI808
(lp5228
S'Who'
p5229
aS'gave'
p5230
aS'the'
p5231
aS'milk'
p5232
asI809
(lp5233
S'Who'
p5234
aS'did'
p5235
aS'Jeff'
p5236
aS'give'
p5237
aS'the'
p5238
aS'apple'
p5239
aS'to'
p5240
asI810
(lp5241
S'Who'
p5242
aS'gave'
p5243
aS'the'
p5244
aS'apple'
p5245
aS'to'
p5246
aS'Jeff'
p5247
asI811
(lp5248
S'Who'
p5249
aS'received'
p5250
aS'the'
p5251
aS'football'
p5252
asI812
(lp5253
S'Who'
p5254
aS'did'
p5255
aS'Fred'
p5256
aS'give'
p5257
aS'the'
p5258
aS'football'
p5259
aS'to'
p5260
asI813
(lp5261
S'What'
p5262
aS'did'
p5263
aS'Mary'
p5264
aS'give'
p5265
aS'to'
p5266
aS'Fred'
p5267
asI814
(lp5268
S'Who'
p5269
aS'did'
p5270
aS'Mary'
p5271
aS'give'
p5272
aS'the'
p5273
aS'football'
p5274
aS'to'
p5275
asI815
(lp5276
S'Who'
p5277
aS'gave'
p5278
aS'the'
p5279
aS'milk'
p5280
aS'to'
p5281
aS'Bill'
p5282
asI816
(lp5283
S'Who'
p5284
aS'gave'
p5285
aS'the'
p5286
aS'apple'
p5287
aS'to'
p5288
aS'Mary'
p5289
asI817
(lp5290
S'Who'
p5291
aS'received'
p5292
aS'the'
p5293
aS'apple'
p5294
asI818
(lp5295
S'What'
p5296
aS'did'
p5297
aS'Jeff'
p5298
aS'give'
p5299
aS'to'
p5300
aS'Mary'
p5301
asI819
(lp5302
S'Who'
p5303
aS'received'
p5304
aS'the'
p5305
aS'apple'
p5306
asI820
(lp5307
S'Who'
p5308
aS'did'
p5309
aS'Jeff'
p5310
aS'give'
p5311
aS'the'
p5312
aS'apple'
p5313
aS'to'
p5314
asI821
(lp5315
S'Who'
p5316
aS'gave'
p5317
aS'the'
p5318
aS'apple'
p5319
aS'to'
p5320
aS'Fred'
p5321
asI822
(lp5322
S'Who'
p5323
aS'did'
p5324
aS'Mary'
p5325
aS'give'
p5326
aS'the'
p5327
aS'apple'
p5328
aS'to'
p5329
asI823
(lp5330
S'Who'
p5331
aS'did'
p5332
aS'Mary'
p5333
aS'give'
p5334
aS'the'
p5335
aS'apple'
p5336
aS'to'
p5337
asI824
(lp5338
S'Who'
p5339
aS'did'
p5340
aS'Mary'
p5341
aS'give'
p5342
aS'the'
p5343
aS'apple'
p5344
aS'to'
p5345
asI825
(lp5346
S'Who'
p5347
aS'gave'
p5348
aS'the'
p5349
aS'football'
p5350
aS'to'
p5351
aS'Fred'
p5352
asI826
(lp5353
S'What'
p5354
aS'did'
p5355
aS'Jeff'
p5356
aS'give'
p5357
aS'to'
p5358
aS'Fred'
p5359
asI827
(lp5360
S'Who'
p5361
aS'did'
p5362
aS'Jeff'
p5363
aS'give'
p5364
aS'the'
p5365
aS'football'
p5366
aS'to'
p5367
asI828
(lp5368
S'Who'
p5369
aS'did'
p5370
aS'Jeff'
p5371
aS'give'
p5372
aS'the'
p5373
aS'football'
p5374
aS'to'
p5375
asI829
(lp5376
S'Who'
p5377
aS'did'
p5378
aS'Jeff'
p5379
aS'give'
p5380
aS'the'
p5381
aS'apple'
p5382
aS'to'
p5383
asI830
(lp5384
S'What'
p5385
aS'did'
p5386
aS'Jeff'
p5387
aS'give'
p5388
aS'to'
p5389
aS'Bill'
p5390
asI831
(lp5391
S'What'
p5392
aS'did'
p5393
aS'Bill'
p5394
aS'give'
p5395
aS'to'
p5396
aS'Fred'
p5397
asI832
(lp5398
S'Who'
p5399
aS'received'
p5400
aS'the'
p5401
aS'football'
p5402
asI833
(lp5403
S'Who'
p5404
aS'did'
p5405
aS'Bill'
p5406
aS'give'
p5407
aS'the'
p5408
aS'football'
p5409
aS'to'
p5410
asI834
(lp5411
S'Who'
p5412
aS'did'
p5413
aS'Mary'
p5414
aS'give'
p5415
aS'the'
p5416
aS'football'
p5417
aS'to'
p5418
asI835
(lp5419
S'Who'
p5420
aS'gave'
p5421
aS'the'
p5422
aS'football'
p5423
aS'to'
p5424
aS'Mary'
p5425
asI836
(lp5426
S'What'
p5427
aS'did'
p5428
aS'Mary'
p5429
aS'give'
p5430
aS'to'
p5431
aS'Bill'
p5432
asI837
(lp5433
S'What'
p5434
aS'did'
p5435
aS'Mary'
p5436
aS'give'
p5437
aS'to'
p5438
aS'Bill'
p5439
asI838
(lp5440
S'Who'
p5441
aS'received'
p5442
aS'the'
p5443
aS'apple'
p5444
asI839
(lp5445
S'Who'
p5446
aS'gave'
p5447
aS'the'
p5448
aS'apple'
p5449
aS'to'
p5450
aS'Bill'
p5451
asI840
(lp5452
S'Who'
p5453
aS'gave'
p5454
aS'the'
p5455
aS'milk'
p5456
aS'to'
p5457
aS'Fred'
p5458
asI841
(lp5459
S'Who'
p5460
aS'received'
p5461
aS'the'
p5462
aS'milk'
p5463
asI842
(lp5464
S'What'
p5465
aS'did'
p5466
aS'Jeff'
p5467
aS'give'
p5468
aS'to'
p5469
aS'Mary'
p5470
asI843
(lp5471
S'Who'
p5472
aS'gave'
p5473
aS'the'
p5474
aS'milk'
p5475
aS'to'
p5476
aS'Mary'
p5477
asI844
(lp5478
S'What'
p5479
aS'did'
p5480
aS'Fred'
p5481
aS'give'
p5482
aS'to'
p5483
aS'Mary'
p5484
asI845
(lp5485
S'Who'
p5486
aS'did'
p5487
aS'Fred'
p5488
aS'give'
p5489
aS'the'
p5490
aS'milk'
p5491
aS'to'
p5492
asI846
(lp5493
S'Who'
p5494
aS'gave'
p5495
aS'the'
p5496
aS'milk'
p5497
aS'to'
p5498
aS'Jeff'
p5499
asI847
(lp5500
S'What'
p5501
aS'did'
p5502
aS'Fred'
p5503
aS'give'
p5504
aS'to'
p5505
aS'Jeff'
p5506
asI848
(lp5507
S'What'
p5508
aS'did'
p5509
aS'Mary'
p5510
aS'give'
p5511
aS'to'
p5512
aS'Bill'
p5513
asI849
(lp5514
S'Who'
p5515
aS'gave'
p5516
aS'the'
p5517
aS'milk'
p5518
asI850
(lp5519
S'Who'
p5520
aS'did'
p5521
aS'Bill'
p5522
aS'give'
p5523
aS'the'
p5524
aS'milk'
p5525
aS'to'
p5526
asI851
(lp5527
S'What'
p5528
aS'did'
p5529
aS'Bill'
p5530
aS'give'
p5531
aS'to'
p5532
aS'Mary'
p5533
asI852
(lp5534
S'Who'
p5535
aS'gave'
p5536
aS'the'
p5537
aS'milk'
p5538
asI853
(lp5539
S'What'
p5540
aS'did'
p5541
aS'Bill'
p5542
aS'give'
p5543
aS'to'
p5544
aS'Mary'
p5545
asI854
(lp5546
S'Who'
p5547
aS'received'
p5548
aS'the'
p5549
aS'milk'
p5550
asI855
(lp5551
S'What'
p5552
aS'did'
p5553
aS'Bill'
p5554
aS'give'
p5555
aS'to'
p5556
aS'Mary'
p5557
asI856
(lp5558
S'Who'
p5559
aS'did'
p5560
aS'Jeff'
p5561
aS'give'
p5562
aS'the'
p5563
aS'milk'
p5564
aS'to'
p5565
asI857
(lp5566
S'Who'
p5567
aS'received'
p5568
aS'the'
p5569
aS'milk'
p5570
asI858
(lp5571
S'What'
p5572
aS'did'
p5573
aS'Jeff'
p5574
aS'give'
p5575
aS'to'
p5576
aS'Fred'
p5577
asI859
(lp5578
S'Who'
p5579
aS'did'
p5580
aS'Mary'
p5581
aS'give'
p5582
aS'the'
p5583
aS'milk'
p5584
aS'to'
p5585
asI860
(lp5586
S'Who'
p5587
aS'gave'
p5588
aS'the'
p5589
aS'milk'
p5590
aS'to'
p5591
aS'Fred'
p5592
asI861
(lp5593
S'Who'
p5594
aS'did'
p5595
aS'Bill'
p5596
aS'give'
p5597
aS'the'
p5598
aS'milk'
p5599
aS'to'
p5600
asI862
(lp5601
S'What'
p5602
aS'did'
p5603
aS'Bill'
p5604
aS'give'
p5605
aS'to'
p5606
aS'Fred'
p5607
asI863
(lp5608
S'What'
p5609
aS'did'
p5610
aS'Bill'
p5611
aS'give'
p5612
aS'to'
p5613
aS'Fred'
p5614
asI864
(lp5615
S'Who'
p5616
aS'received'
p5617
aS'the'
p5618
aS'milk'
p5619
asI865
(lp5620
S'Who'
p5621
aS'received'
p5622
aS'the'
p5623
aS'football'
p5624
asI866
(lp5625
S'What'
p5626
aS'did'
p5627
aS'Jeff'
p5628
aS'give'
p5629
aS'to'
p5630
aS'Bill'
p5631
asI867
(lp5632
S'Who'
p5633
aS'received'
p5634
aS'the'
p5635
aS'football'
p5636
asI868
(lp5637
S'Who'
p5638
aS'received'
p5639
aS'the'
p5640
aS'football'
p5641
asI869
(lp5642
S'Who'
p5643
aS'gave'
p5644
aS'the'
p5645
aS'football'
p5646
aS'to'
p5647
aS'Bill'
p5648
asI870
(lp5649
S'What'
p5650
aS'did'
p5651
aS'Bill'
p5652
aS'give'
p5653
aS'to'
p5654
aS'Jeff'
p5655
asI871
(lp5656
S'Who'
p5657
aS'gave'
p5658
aS'the'
p5659
aS'football'
p5660
asI872
(lp5661
S'Who'
p5662
aS'gave'
p5663
aS'the'
p5664
aS'football'
p5665
aS'to'
p5666
aS'Bill'
p5667
asI873
(lp5668
S'Who'
p5669
aS'gave'
p5670
aS'the'
p5671
aS'football'
p5672
asI874
(lp5673
S'Who'
p5674
aS'gave'
p5675
aS'the'
p5676
aS'football'
p5677
asI875
(lp5678
S'What'
p5679
aS'did'
p5680
aS'Bill'
p5681
aS'give'
p5682
aS'to'
p5683
aS'Mary'
p5684
asI876
(lp5685
S'Who'
p5686
aS'gave'
p5687
aS'the'
p5688
aS'milk'
p5689
asI877
(lp5690
S'Who'
p5691
aS'did'
p5692
aS'Mary'
p5693
aS'give'
p5694
aS'the'
p5695
aS'milk'
p5696
aS'to'
p5697
asI878
(lp5698
S'Who'
p5699
aS'gave'
p5700
aS'the'
p5701
aS'milk'
p5702
asI879
(lp5703
S'What'
p5704
aS'did'
p5705
aS'Jeff'
p5706
aS'give'
p5707
aS'to'
p5708
aS'Bill'
p5709
asI880
(lp5710
S'Who'
p5711
aS'gave'
p5712
aS'the'
p5713
aS'milk'
p5714
aS'to'
p5715
aS'Bill'
p5716
asI881
(lp5717
S'What'
p5718
aS'did'
p5719
aS'Fred'
p5720
aS'give'
p5721
aS'to'
p5722
aS'Jeff'
p5723
asI882
(lp5724
S'Who'
p5725
aS'gave'
p5726
aS'the'
p5727
aS'apple'
p5728
aS'to'
p5729
aS'Fred'
p5730
asI883
(lp5731
S'Who'
p5732
aS'gave'
p5733
aS'the'
p5734
aS'apple'
p5735
aS'to'
p5736
aS'Fred'
p5737
asI884
(lp5738
S'Who'
p5739
aS'received'
p5740
aS'the'
p5741
aS'apple'
p5742
asI885
(lp5743
S'Who'
p5744
aS'gave'
p5745
aS'the'
p5746
aS'football'
p5747
aS'to'
p5748
aS'Jeff'
p5749
asI886
(lp5750
S'What'
p5751
aS'did'
p5752
aS'Jeff'
p5753
aS'give'
p5754
aS'to'
p5755
aS'Bill'
p5756
asI887
(lp5757
S'What'
p5758
aS'did'
p5759
aS'Jeff'
p5760
aS'give'
p5761
aS'to'
p5762
aS'Bill'
p5763
asI888
(lp5764
S'What'
p5765
aS'did'
p5766
aS'Jeff'
p5767
aS'give'
p5768
aS'to'
p5769
aS'Bill'
p5770
asI889
(lp5771
S'What'
p5772
aS'did'
p5773
aS'Fred'
p5774
aS'give'
p5775
aS'to'
p5776
aS'Jeff'
p5777
asI890
(lp5778
S'Who'
p5779
aS'gave'
p5780
aS'the'
p5781
aS'apple'
p5782
asI891
(lp5783
S'Who'
p5784
aS'did'
p5785
aS'Fred'
p5786
aS'give'
p5787
aS'the'
p5788
aS'football'
p5789
aS'to'
p5790
asI892
(lp5791
S'What'
p5792
aS'did'
p5793
aS'Mary'
p5794
aS'give'
p5795
aS'to'
p5796
aS'Fred'
p5797
asI893
(lp5798
S'What'
p5799
aS'did'
p5800
aS'Fred'
p5801
aS'give'
p5802
aS'to'
p5803
aS'Jeff'
p5804
asI894
(lp5805
S'Who'
p5806
aS'received'
p5807
aS'the'
p5808
aS'football'
p5809
asI895
(lp5810
S'What'
p5811
aS'did'
p5812
aS'Fred'
p5813
aS'give'
p5814
aS'to'
p5815
aS'Jeff'
p5816
asI896
(lp5817
S'Who'
p5818
aS'gave'
p5819
aS'the'
p5820
aS'football'
p5821
asI897
(lp5822
S'Who'
p5823
aS'received'
p5824
aS'the'
p5825
aS'football'
p5826
asI898
(lp5827
S'What'
p5828
aS'did'
p5829
aS'Fred'
p5830
aS'give'
p5831
aS'to'
p5832
aS'Bill'
p5833
asI899
(lp5834
S'Who'
p5835
aS'gave'
p5836
aS'the'
p5837
aS'football'
p5838
aS'to'
p5839
aS'Bill'
p5840
asI900
(lp5841
S'What'
p5842
aS'did'
p5843
aS'Bill'
p5844
aS'give'
p5845
aS'to'
p5846
aS'Mary'
p5847
asI901
(lp5848
S'Who'
p5849
aS'received'
p5850
aS'the'
p5851
aS'football'
p5852
asI902
(lp5853
S'Who'
p5854
aS'did'
p5855
aS'Fred'
p5856
aS'give'
p5857
aS'the'
p5858
aS'football'
p5859
aS'to'
p5860
asI903
(lp5861
S'Who'
p5862
aS'gave'
p5863
aS'the'
p5864
aS'football'
p5865
asI904
(lp5866
S'What'
p5867
aS'did'
p5868
aS'Fred'
p5869
aS'give'
p5870
aS'to'
p5871
aS'Mary'
p5872
asI905
(lp5873
S'Who'
p5874
aS'gave'
p5875
aS'the'
p5876
aS'football'
p5877
asI906
(lp5878
S'Who'
p5879
aS'gave'
p5880
aS'the'
p5881
aS'football'
p5882
asI907
(lp5883
S'What'
p5884
aS'did'
p5885
aS'Bill'
p5886
aS'give'
p5887
aS'to'
p5888
aS'Jeff'
p5889
asI908
(lp5890
S'Who'
p5891
aS'gave'
p5892
aS'the'
p5893
aS'football'
p5894
aS'to'
p5895
aS'Jeff'
p5896
asI909
(lp5897
S'What'
p5898
aS'did'
p5899
aS'Jeff'
p5900
aS'give'
p5901
aS'to'
p5902
aS'Bill'
p5903
asI910
(lp5904
S'What'
p5905
aS'did'
p5906
aS'Jeff'
p5907
aS'give'
p5908
aS'to'
p5909
aS'Bill'
p5910
asI911
(lp5911
S'What'
p5912
aS'did'
p5913
aS'Fred'
p5914
aS'give'
p5915
aS'to'
p5916
aS'Jeff'
p5917
asI912
(lp5918
S'Who'
p5919
aS'gave'
p5920
aS'the'
p5921
aS'milk'
p5922
aS'to'
p5923
aS'Fred'
p5924
asI913
(lp5925
S'Who'
p5926
aS'gave'
p5927
aS'the'
p5928
aS'milk'
p5929
aS'to'
p5930
aS'Fred'
p5931
asI914
(lp5932
S'Who'
p5933
aS'received'
p5934
aS'the'
p5935
aS'milk'
p5936
asI915
(lp5937
S'Who'
p5938
aS'gave'
p5939
aS'the'
p5940
aS'milk'
p5941
aS'to'
p5942
aS'Fred'
p5943
asI916
(lp5944
S'Who'
p5945
aS'gave'
p5946
aS'the'
p5947
aS'football'
p5948
aS'to'
p5949
aS'Mary'
p5950
asI917
(lp5951
S'What'
p5952
aS'did'
p5953
aS'Mary'
p5954
aS'give'
p5955
aS'to'
p5956
aS'Fred'
p5957
asI918
(lp5958
S'What'
p5959
aS'did'
p5960
aS'Mary'
p5961
aS'give'
p5962
aS'to'
p5963
aS'Fred'
p5964
asI919
(lp5965
S'Who'
p5966
aS'did'
p5967
aS'Mary'
p5968
aS'give'
p5969
aS'the'
p5970
aS'football'
p5971
aS'to'
p5972
asI920
(lp5973
S'Who'
p5974
aS'gave'
p5975
aS'the'
p5976
aS'milk'
p5977
asI921
(lp5978
S'What'
p5979
aS'did'
p5980
aS'Bill'
p5981
aS'give'
p5982
aS'to'
p5983
aS'Mary'
p5984
asI922
(lp5985
S'Who'
p5986
aS'gave'
p5987
aS'the'
p5988
aS'apple'
p5989
aS'to'
p5990
aS'Bill'
p5991
asI923
(lp5992
S'Who'
p5993
aS'gave'
p5994
aS'the'
p5995
aS'apple'
p5996
asI924
(lp5997
S'What'
p5998
aS'did'
p5999
aS'Jeff'
p6000
aS'give'
p6001
aS'to'
p6002
aS'Mary'
p6003
asI925
(lp6004
S'Who'
p6005
aS'gave'
p6006
aS'the'
p6007
aS'milk'
p6008
aS'to'
p6009
aS'Mary'
p6010
asI926
(lp6011
S'Who'
p6012
aS'did'
p6013
aS'Mary'
p6014
aS'give'
p6015
aS'the'
p6016
aS'apple'
p6017
aS'to'
p6018
asI927
(lp6019
S'What'
p6020
aS'did'
p6021
aS'Mary'
p6022
aS'give'
p6023
aS'to'
p6024
aS'Fred'
p6025
asI928
(lp6026
S'Who'
p6027
aS'did'
p6028
aS'Fred'
p6029
aS'give'
p6030
aS'the'
p6031
aS'apple'
p6032
aS'to'
p6033
asI929
(lp6034
S'What'
p6035
aS'did'
p6036
aS'Fred'
p6037
aS'give'
p6038
aS'to'
p6039
aS'Mary'
p6040
asI930
(lp6041
S'Who'
p6042
aS'did'
p6043
aS'Fred'
p6044
aS'give'
p6045
aS'the'
p6046
aS'apple'
p6047
aS'to'
p6048
asI931
(lp6049
S'Who'
p6050
aS'received'
p6051
aS'the'
p6052
aS'apple'
p6053
asI932
(lp6054
S'What'
p6055
aS'did'
p6056
aS'Mary'
p6057
aS'give'
p6058
aS'to'
p6059
aS'Jeff'
p6060
asI933
(lp6061
S'Who'
p6062
aS'gave'
p6063
aS'the'
p6064
aS'apple'
p6065
asI934
(lp6066
S'Who'
p6067
aS'received'
p6068
aS'the'
p6069
aS'football'
p6070
asI935
(lp6071
S'Who'
p6072
aS'gave'
p6073
aS'the'
p6074
aS'football'
p6075
asI936
(lp6076
S'What'
p6077
aS'did'
p6078
aS'Jeff'
p6079
aS'give'
p6080
aS'to'
p6081
aS'Mary'
p6082
asI937
(lp6083
S'What'
p6084
aS'did'
p6085
aS'Jeff'
p6086
aS'give'
p6087
aS'to'
p6088
aS'Mary'
p6089
asI938
(lp6090
S'Who'
p6091
aS'gave'
p6092
aS'the'
p6093
aS'apple'
p6094
asI939
(lp6095
S'What'
p6096
aS'did'
p6097
aS'Fred'
p6098
aS'give'
p6099
aS'to'
p6100
aS'Mary'
p6101
asI940
(lp6102
S'Who'
p6103
aS'gave'
p6104
aS'the'
p6105
aS'apple'
p6106
asI941
(lp6107
S'What'
p6108
aS'did'
p6109
aS'Jeff'
p6110
aS'give'
p6111
aS'to'
p6112
aS'Fred'
p6113
asI942
(lp6114
S'Who'
p6115
aS'gave'
p6116
aS'the'
p6117
aS'apple'
p6118
aS'to'
p6119
aS'Fred'
p6120
asI943
(lp6121
S'Who'
p6122
aS'gave'
p6123
aS'the'
p6124
aS'apple'
p6125
asI944
(lp6126
S'Who'
p6127
aS'gave'
p6128
aS'the'
p6129
aS'apple'
p6130
aS'to'
p6131
aS'Fred'
p6132
asI945
(lp6133
S'Who'
p6134
aS'did'
p6135
aS'Mary'
p6136
aS'give'
p6137
aS'the'
p6138
aS'apple'
p6139
aS'to'
p6140
asI946
(lp6141
S'What'
p6142
aS'did'
p6143
aS'Jeff'
p6144
aS'give'
p6145
aS'to'
p6146
aS'Fred'
p6147
asI947
(lp6148
S'Who'
p6149
aS'gave'
p6150
aS'the'
p6151
aS'football'
p6152
asI948
(lp6153
S'Who'
p6154
aS'gave'
p6155
aS'the'
p6156
aS'football'
p6157
aS'to'
p6158
aS'Fred'
p6159
asI949
(lp6160
S'Who'
p6161
aS'gave'
p6162
aS'the'
p6163
aS'football'
p6164
asI950
(lp6165
S'What'
p6166
aS'did'
p6167
aS'Mary'
p6168
aS'give'
p6169
aS'to'
p6170
aS'Fred'
p6171
asI951
(lp6172
S'Who'
p6173
aS'gave'
p6174
aS'the'
p6175
aS'milk'
p6176
asI952
(lp6177
S'What'
p6178
aS'did'
p6179
aS'Bill'
p6180
aS'give'
p6181
aS'to'
p6182
aS'Fred'
p6183
asI953
(lp6184
S'Who'
p6185
aS'gave'
p6186
aS'the'
p6187
aS'milk'
p6188
asI954
(lp6189
S'Who'
p6190
aS'gave'
p6191
aS'the'
p6192
aS'milk'
p6193
asI955
(lp6194
S'What'
p6195
aS'did'
p6196
aS'Jeff'
p6197
aS'give'
p6198
aS'to'
p6199
aS'Bill'
p6200
asI956
(lp6201
S'What'
p6202
aS'did'
p6203
aS'Fred'
p6204
aS'give'
p6205
aS'to'
p6206
aS'Jeff'
p6207
asI957
(lp6208
S'What'
p6209
aS'did'
p6210
aS'Jeff'
p6211
aS'give'
p6212
aS'to'
p6213
aS'Fred'
p6214
asI958
(lp6215
S'What'
p6216
aS'did'
p6217
aS'Jeff'
p6218
aS'give'
p6219
aS'to'
p6220
aS'Fred'
p6221
asI959
(lp6222
S'Who'
p6223
aS'received'
p6224
aS'the'
p6225
aS'apple'
p6226
asI960
(lp6227
S'What'
p6228
aS'did'
p6229
aS'Fred'
p6230
aS'give'
p6231
aS'to'
p6232
aS'Bill'
p6233
asI961
(lp6234
S'Who'
p6235
aS'did'
p6236
aS'Bill'
p6237
aS'give'
p6238
aS'the'
p6239
aS'football'
p6240
aS'to'
p6241
asI962
(lp6242
S'Who'
p6243
aS'received'
p6244
aS'the'
p6245
aS'football'
p6246
asI963
(lp6247
S'Who'
p6248
aS'received'
p6249
aS'the'
p6250
aS'football'
p6251
asI964
(lp6252
S'Who'
p6253
aS'received'
p6254
aS'the'
p6255
aS'football'
p6256
asI965
(lp6257
S'Who'
p6258
aS'received'
p6259
aS'the'
p6260
aS'apple'
p6261
asI966
(lp6262
S'Who'
p6263
aS'did'
p6264
aS'Jeff'
p6265
aS'give'
p6266
aS'the'
p6267
aS'milk'
p6268
aS'to'
p6269
asI967
(lp6270
S'What'
p6271
aS'did'
p6272
aS'Mary'
p6273
aS'give'
p6274
aS'to'
p6275
aS'Jeff'
p6276
asI968
(lp6277
S'What'
p6278
aS'did'
p6279
aS'Mary'
p6280
aS'give'
p6281
aS'to'
p6282
aS'Jeff'
p6283
asI969
(lp6284
S'What'
p6285
aS'did'
p6286
aS'Jeff'
p6287
aS'give'
p6288
aS'to'
p6289
aS'Mary'
p6290
asI970
(lp6291
S'Who'
p6292
aS'did'
p6293
aS'Mary'
p6294
aS'give'
p6295
aS'the'
p6296
aS'apple'
p6297
aS'to'
p6298
asI971
(lp6299
S'What'
p6300
aS'did'
p6301
aS'Mary'
p6302
aS'give'
p6303
aS'to'
p6304
aS'Fred'
p6305
asI972
(lp6306
S'Who'
p6307
aS'gave'
p6308
aS'the'
p6309
aS'apple'
p6310
aS'to'
p6311
aS'Mary'
p6312
asI973
(lp6313
S'Who'
p6314
aS'received'
p6315
aS'the'
p6316
aS'apple'
p6317
asI974
(lp6318
S'What'
p6319
aS'did'
p6320
aS'Mary'
p6321
aS'give'
p6322
aS'to'
p6323
aS'Bill'
p6324
asI975
(lp6325
S'What'
p6326
aS'did'
p6327
aS'Fred'
p6328
aS'give'
p6329
aS'to'
p6330
aS'Mary'
p6331
asI976
(lp6332
S'What'
p6333
aS'did'
p6334
aS'Mary'
p6335
aS'give'
p6336
aS'to'
p6337
aS'Fred'
p6338
asI977
(lp6339
S'Who'
p6340
aS'gave'
p6341
aS'the'
p6342
aS'apple'
p6343
aS'to'
p6344
aS'Fred'
p6345
asI978
(lp6346
S'What'
p6347
aS'did'
p6348
aS'Mary'
p6349
aS'give'
p6350
aS'to'
p6351
aS'Fred'
p6352
asI979
(lp6353
S'What'
p6354
aS'did'
p6355
aS'Mary'
p6356
aS'give'
p6357
aS'to'
p6358
aS'Fred'
p6359
asI980
(lp6360
S'Who'
p6361
aS'did'
p6362
aS'Jeff'
p6363
aS'give'
p6364
aS'the'
p6365
aS'apple'
p6366
aS'to'
p6367
asI981
(lp6368
S'What'
p6369
aS'did'
p6370
aS'Bill'
p6371
aS'give'
p6372
aS'to'
p6373
aS'Mary'
p6374
asI982
(lp6375
S'Who'
p6376
aS'received'
p6377
aS'the'
p6378
aS'apple'
p6379
asI983
(lp6380
S'What'
p6381
aS'did'
p6382
aS'Mary'
p6383
aS'give'
p6384
aS'to'
p6385
aS'Bill'
p6386
asI984
(lp6387
S'What'
p6388
aS'did'
p6389
aS'Mary'
p6390
aS'give'
p6391
aS'to'
p6392
aS'Bill'
p6393
asI985
(lp6394
S'Who'
p6395
aS'did'
p6396
aS'Bill'
p6397
aS'give'
p6398
aS'the'
p6399
aS'milk'
p6400
aS'to'
p6401
asI986
(lp6402
S'Who'
p6403
aS'did'
p6404
aS'Bill'
p6405
aS'give'
p6406
aS'the'
p6407
aS'football'
p6408
aS'to'
p6409
asI987
(lp6410
S'Who'
p6411
aS'received'
p6412
aS'the'
p6413
aS'football'
p6414
asI988
(lp6415
S'What'
p6416
aS'did'
p6417
aS'Bill'
p6418
aS'give'
p6419
aS'to'
p6420
aS'Mary'
p6421
asI989
(lp6422
S'Who'
p6423
aS'did'
p6424
aS'Bill'
p6425
aS'give'
p6426
aS'the'
p6427
aS'football'
p6428
aS'to'
p6429
asI990
(lp6430
S'What'
p6431
aS'did'
p6432
aS'Jeff'
p6433
aS'give'
p6434
aS'to'
p6435
aS'Mary'
p6436
asI991
(lp6437
S'What'
p6438
aS'did'
p6439
aS'Jeff'
p6440
aS'give'
p6441
aS'to'
p6442
aS'Mary'
p6443
asI992
(lp6444
S'Who'
p6445
aS'gave'
p6446
aS'the'
p6447
aS'apple'
p6448
aS'to'
p6449
aS'Mary'
p6450
asI993
(lp6451
S'What'
p6452
aS'did'
p6453
aS'Fred'
p6454
aS'give'
p6455
aS'to'
p6456
aS'Mary'
p6457
asI994
(lp6458
S'Who'
p6459
aS'gave'
p6460
aS'the'
p6461
aS'football'
p6462
asI995
(lp6463
S'Who'
p6464
aS'received'
p6465
aS'the'
p6466
aS'football'
p6467
asI996
(lp6468
S'Who'
p6469
aS'received'
p6470
aS'the'
p6471
aS'football'
p6472
asI997
(lp6473
S'Who'
p6474
aS'received'
p6475
aS'the'
p6476
aS'football'
p6477
asI998
(lp6478
S'Who'
p6479
aS'gave'
p6480
aS'the'
p6481
aS'football'
p6482
asI999
(lp6483
S'Who'
p6484
aS'did'
p6485
aS'Jeff'
p6486
aS'give'
p6487
aS'the'
p6488
aS'apple'
p6489
aS'to'
p6490
asI1000
(lp6491
S'Who'
p6492
aS'gave'
p6493
aS'the'
p6494
aS'apple'
p6495
as.