(dp0
I1
(lp1
S'Where'
p2
aS'is'
p3
aS'Mary'
p4
asI2
(lp5
S'Where'
p6
aS'is'
p7
aS'Daniel'
p8
asI3
(lp9
S'Where'
p10
aS'is'
p11
aS'Daniel'
p12
asI4
(lp13
S'Where'
p14
aS'is'
p15
aS'Daniel'
p16
asI5
(lp17
S'Where'
p18
aS'is'
p19
aS'Sandra'
p20
asI6
(lp21
S'Where'
p22
aS'is'
p23
aS'Sandra'
p24
asI7
(lp25
S'Where'
p26
aS'is'
p27
aS'Sandra'
p28
asI8
(lp29
S'Where'
p30
aS'is'
p31
aS'Sandra'
p32
asI9
(lp33
S'Where'
p34
aS'is'
p35
aS'John'
p36
asI10
(lp37
S'Where'
p38
aS'is'
p39
aS'Daniel'
p40
asI11
(lp41
S'Where'
p42
aS'is'
p43
aS'John'
p44
asI12
(lp45
S'Where'
p46
aS'is'
p47
aS'Mary'
p48
asI13
(lp49
S'Where'
p50
aS'is'
p51
aS'John'
p52
asI14
(lp53
S'Where'
p54
aS'is'
p55
aS'John'
p56
asI15
(lp57
S'Where'
p58
aS'is'
p59
aS'Sandra'
p60
asI16
(lp61
S'Where'
p62
aS'is'
p63
aS'Daniel'
p64
asI17
(lp65
S'Where'
p66
aS'is'
p67
aS'Sandra'
p68
asI18
(lp69
S'Where'
p70
aS'is'
p71
aS'Sandra'
p72
asI19
(lp73
S'Where'
p74
aS'is'
p75
aS'Sandra'
p76
asI20
(lp77
S'Where'
p78
aS'is'
p79
aS'Daniel'
p80
asI21
(lp81
S'Where'
p82
aS'is'
p83
aS'John'
p84
asI22
(lp85
S'Where'
p86
aS'is'
p87
aS'Mary'
p88
asI23
(lp89
S'Where'
p90
aS'is'
p91
aS'John'
p92
asI24
(lp93
S'Where'
p94
aS'is'
p95
aS'Sandra'
p96
asI25
(lp97
S'Where'
p98
aS'is'
p99
aS'John'
p100
asI26
(lp101
S'Where'
p102
aS'is'
p103
aS'Daniel'
p104
asI27
(lp105
S'Where'
p106
aS'is'
p107
aS'John'
p108
asI28
(lp109
S'Where'
p110
aS'is'
p111
aS'Daniel'
p112
asI29
(lp113
S'Where'
p114
aS'is'
p115
aS'John'
p116
asI30
(lp117
S'Where'
p118
aS'is'
p119
aS'Daniel'
p120
asI31
(lp121
S'Where'
p122
aS'is'
p123
aS'Mary'
p124
asI32
(lp125
S'Where'
p126
aS'is'
p127
aS'Sandra'
p128
asI33
(lp129
S'Where'
p130
aS'is'
p131
aS'Daniel'
p132
asI34
(lp133
S'Where'
p134
aS'is'
p135
aS'John'
p136
asI35
(lp137
S'Where'
p138
aS'is'
p139
aS'Daniel'
p140
asI36
(lp141
S'Where'
p142
aS'is'
p143
aS'Mary'
p144
asI37
(lp145
S'Where'
p146
aS'is'
p147
aS'John'
p148
asI38
(lp149
S'Where'
p150
aS'is'
p151
aS'Daniel'
p152
asI39
(lp153
S'Where'
p154
aS'is'
p155
aS'John'
p156
asI40
(lp157
S'Where'
p158
aS'is'
p159
aS'Sandra'
p160
asI41
(lp161
S'Where'
p162
aS'is'
p163
aS'Daniel'
p164
asI42
(lp165
S'Where'
p166
aS'is'
p167
aS'Daniel'
p168
asI43
(lp169
S'Where'
p170
aS'is'
p171
aS'Daniel'
p172
asI44
(lp173
S'Where'
p174
aS'is'
p175
aS'Sandra'
p176
asI45
(lp177
S'Where'
p178
aS'is'
p179
aS'Daniel'
p180
asI46
(lp181
S'Where'
p182
aS'is'
p183
aS'Sandra'
p184
asI47
(lp185
S'Where'
p186
aS'is'
p187
aS'Sandra'
p188
asI48
(lp189
S'Where'
p190
aS'is'
p191
aS'John'
p192
asI49
(lp193
S'Where'
p194
aS'is'
p195
aS'Sandra'
p196
asI50
(lp197
S'Where'
p198
aS'is'
p199
aS'Daniel'
p200
asI51
(lp201
S'Where'
p202
aS'is'
p203
aS'Mary'
p204
asI52
(lp205
S'Where'
p206
aS'is'
p207
aS'Sandra'
p208
asI53
(lp209
S'Where'
p210
aS'is'
p211
aS'Sandra'
p212
asI54
(lp213
S'Where'
p214
aS'is'
p215
aS'John'
p216
asI55
(lp217
S'Where'
p218
aS'is'
p219
aS'John'
p220
asI56
(lp221
S'Where'
p222
aS'is'
p223
aS'Mary'
p224
asI57
(lp225
S'Where'
p226
aS'is'
p227
aS'Mary'
p228
asI58
(lp229
S'Where'
p230
aS'is'
p231
aS'John'
p232
asI59
(lp233
S'Where'
p234
aS'is'
p235
aS'Sandra'
p236
asI60
(lp237
S'Where'
p238
aS'is'
p239
aS'Mary'
p240
asI61
(lp241
S'Where'
p242
aS'is'
p243
aS'John'
p244
asI62
(lp245
S'Where'
p246
aS'is'
p247
aS'John'
p248
asI63
(lp249
S'Where'
p250
aS'is'
p251
aS'Daniel'
p252
asI64
(lp253
S'Where'
p254
aS'is'
p255
aS'Daniel'
p256
asI65
(lp257
S'Where'
p258
aS'is'
p259
aS'John'
p260
asI66
(lp261
S'Where'
p262
aS'is'
p263
aS'Daniel'
p264
asI67
(lp265
S'Where'
p266
aS'is'
p267
aS'Mary'
p268
asI68
(lp269
S'Where'
p270
aS'is'
p271
aS'Daniel'
p272
asI69
(lp273
S'Where'
p274
aS'is'
p275
aS'Daniel'
p276
asI70
(lp277
S'Where'
p278
aS'is'
p279
aS'Sandra'
p280
asI71
(lp281
S'Where'
p282
aS'is'
p283
aS'Sandra'
p284
asI72
(lp285
S'Where'
p286
aS'is'
p287
aS'Mary'
p288
asI73
(lp289
S'Where'
p290
aS'is'
p291
aS'Sandra'
p292
asI74
(lp293
S'Where'
p294
aS'is'
p295
aS'Mary'
p296
asI75
(lp297
S'Where'
p298
aS'is'
p299
aS'John'
p300
asI76
(lp301
S'Where'
p302
aS'is'
p303
aS'Sandra'
p304
asI77
(lp305
S'Where'
p306
aS'is'
p307
aS'Mary'
p308
asI78
(lp309
S'Where'
p310
aS'is'
p311
aS'Mary'
p312
asI79
(lp313
S'Where'
p314
aS'is'
p315
aS'Daniel'
p316
asI80
(lp317
S'Where'
p318
aS'is'
p319
aS'Mary'
p320
asI81
(lp321
S'Where'
p322
aS'is'
p323
aS'Sandra'
p324
asI82
(lp325
S'Where'
p326
aS'is'
p327
aS'Sandra'
p328
asI83
(lp329
S'Where'
p330
aS'is'
p331
aS'Sandra'
p332
asI84
(lp333
S'Where'
p334
aS'is'
p335
aS'Mary'
p336
asI85
(lp337
S'Where'
p338
aS'is'
p339
aS'John'
p340
asI86
(lp341
S'Where'
p342
aS'is'
p343
aS'Mary'
p344
asI87
(lp345
S'Where'
p346
aS'is'
p347
aS'Daniel'
p348
asI88
(lp349
S'Where'
p350
aS'is'
p351
aS'Daniel'
p352
asI89
(lp353
S'Where'
p354
aS'is'
p355
aS'Sandra'
p356
asI90
(lp357
S'Where'
p358
aS'is'
p359
aS'Mary'
p360
asI91
(lp361
S'Where'
p362
aS'is'
p363
aS'John'
p364
asI92
(lp365
S'Where'
p366
aS'is'
p367
aS'John'
p368
asI93
(lp369
S'Where'
p370
aS'is'
p371
aS'John'
p372
asI94
(lp373
S'Where'
p374
aS'is'
p375
aS'Mary'
p376
asI95
(lp377
S'Where'
p378
aS'is'
p379
aS'Daniel'
p380
asI96
(lp381
S'Where'
p382
aS'is'
p383
aS'Mary'
p384
asI97
(lp385
S'Where'
p386
aS'is'
p387
aS'Mary'
p388
asI98
(lp389
S'Where'
p390
aS'is'
p391
aS'Mary'
p392
asI99
(lp393
S'Where'
p394
aS'is'
p395
aS'Mary'
p396
asI100
(lp397
S'Where'
p398
aS'is'
p399
aS'Daniel'
p400
asI101
(lp401
S'Where'
p402
aS'is'
p403
aS'Daniel'
p404
asI102
(lp405
S'Where'
p406
aS'is'
p407
aS'Sandra'
p408
asI103
(lp409
S'Where'
p410
aS'is'
p411
aS'Mary'
p412
asI104
(lp413
S'Where'
p414
aS'is'
p415
aS'Mary'
p416
asI105
(lp417
S'Where'
p418
aS'is'
p419
aS'Mary'
p420
asI106
(lp421
S'Where'
p422
aS'is'
p423
aS'Sandra'
p424
asI107
(lp425
S'Where'
p426
aS'is'
p427
aS'Sandra'
p428
asI108
(lp429
S'Where'
p430
aS'is'
p431
aS'Mary'
p432
asI109
(lp433
S'Where'
p434
aS'is'
p435
aS'John'
p436
asI110
(lp437
S'Where'
p438
aS'is'
p439
aS'Mary'
p440
asI111
(lp441
S'Where'
p442
aS'is'
p443
aS'Sandra'
p444
asI112
(lp445
S'Where'
p446
aS'is'
p447
aS'Sandra'
p448
asI113
(lp449
S'Where'
p450
aS'is'
p451
aS'Sandra'
p452
asI114
(lp453
S'Where'
p454
aS'is'
p455
aS'Sandra'
p456
asI115
(lp457
S'Where'
p458
aS'is'
p459
aS'Daniel'
p460
asI116
(lp461
S'Where'
p462
aS'is'
p463
aS'Mary'
p464
asI117
(lp465
S'Where'
p466
aS'is'
p467
aS'Sandra'
p468
asI118
(lp469
S'Where'
p470
aS'is'
p471
aS'Mary'
p472
asI119
(lp473
S'Where'
p474
aS'is'
p475
aS'John'
p476
asI120
(lp477
S'Where'
p478
aS'is'
p479
aS'John'
p480
asI121
(lp481
S'Where'
p482
aS'is'
p483
aS'John'
p484
asI122
(lp485
S'Where'
p486
aS'is'
p487
aS'John'
p488
asI123
(lp489
S'Where'
p490
aS'is'
p491
aS'John'
p492
asI124
(lp493
S'Where'
p494
aS'is'
p495
aS'Daniel'
p496
asI125
(lp497
S'Where'
p498
aS'is'
p499
aS'Daniel'
p500
asI126
(lp501
S'Where'
p502
aS'is'
p503
aS'John'
p504
asI127
(lp505
S'Where'
p506
aS'is'
p507
aS'Daniel'
p508
asI128
(lp509
S'Where'
p510
aS'is'
p511
aS'John'
p512
asI129
(lp513
S'Where'
p514
aS'is'
p515
aS'Mary'
p516
asI130
(lp517
S'Where'
p518
aS'is'
p519
aS'Daniel'
p520
asI131
(lp521
S'Where'
p522
aS'is'
p523
aS'Sandra'
p524
asI132
(lp525
S'Where'
p526
aS'is'
p527
aS'Daniel'
p528
asI133
(lp529
S'Where'
p530
aS'is'
p531
aS'Sandra'
p532
asI134
(lp533
S'Where'
p534
aS'is'
p535
aS'Daniel'
p536
asI135
(lp537
S'Where'
p538
aS'is'
p539
aS'John'
p540
asI136
(lp541
S'Where'
p542
aS'is'
p543
aS'Daniel'
p544
asI137
(lp545
S'Where'
p546
aS'is'
p547
aS'John'
p548
asI138
(lp549
S'Where'
p550
aS'is'
p551
aS'Daniel'
p552
asI139
(lp553
S'Where'
p554
aS'is'
p555
aS'John'
p556
asI140
(lp557
S'Where'
p558
aS'is'
p559
aS'Daniel'
p560
asI141
(lp561
S'Where'
p562
aS'is'
p563
aS'Mary'
p564
asI142
(lp565
S'Where'
p566
aS'is'
p567
aS'Sandra'
p568
asI143
(lp569
S'Where'
p570
aS'is'
p571
aS'Mary'
p572
asI144
(lp573
S'Where'
p574
aS'is'
p575
aS'Mary'
p576
asI145
(lp577
S'Where'
p578
aS'is'
p579
aS'Daniel'
p580
asI146
(lp581
S'Where'
p582
aS'is'
p583
aS'Daniel'
p584
asI147
(lp585
S'Where'
p586
aS'is'
p587
aS'John'
p588
asI148
(lp589
S'Where'
p590
aS'is'
p591
aS'John'
p592
asI149
(lp593
S'Where'
p594
aS'is'
p595
aS'Sandra'
p596
asI150
(lp597
S'Where'
p598
aS'is'
p599
aS'Sandra'
p600
asI151
(lp601
S'Where'
p602
aS'is'
p603
aS'Sandra'
p604
asI152
(lp605
S'Where'
p606
aS'is'
p607
aS'John'
p608
asI153
(lp609
S'Where'
p610
aS'is'
p611
aS'Sandra'
p612
asI154
(lp613
S'Where'
p614
aS'is'
p615
aS'Sandra'
p616
asI155
(lp617
S'Where'
p618
aS'is'
p619
aS'Daniel'
p620
asI156
(lp621
S'Where'
p622
aS'is'
p623
aS'Mary'
p624
asI157
(lp625
S'Where'
p626
aS'is'
p627
aS'John'
p628
asI158
(lp629
S'Where'
p630
aS'is'
p631
aS'John'
p632
asI159
(lp633
S'Where'
p634
aS'is'
p635
aS'Daniel'
p636
asI160
(lp637
S'Where'
p638
aS'is'
p639
aS'Mary'
p640
asI161
(lp641
S'Where'
p642
aS'is'
p643
aS'Daniel'
p644
asI162
(lp645
S'Where'
p646
aS'is'
p647
aS'Sandra'
p648
asI163
(lp649
S'Where'
p650
aS'is'
p651
aS'Mary'
p652
asI164
(lp653
S'Where'
p654
aS'is'
p655
aS'Daniel'
p656
asI165
(lp657
S'Where'
p658
aS'is'
p659
aS'Sandra'
p660
asI166
(lp661
S'Where'
p662
aS'is'
p663
aS'John'
p664
asI167
(lp665
S'Where'
p666
aS'is'
p667
aS'Mary'
p668
asI168
(lp669
S'Where'
p670
aS'is'
p671
aS'Sandra'
p672
asI169
(lp673
S'Where'
p674
aS'is'
p675
aS'Daniel'
p676
asI170
(lp677
S'Where'
p678
aS'is'
p679
aS'Mary'
p680
asI171
(lp681
S'Where'
p682
aS'is'
p683
aS'Sandra'
p684
asI172
(lp685
S'Where'
p686
aS'is'
p687
aS'Mary'
p688
asI173
(lp689
S'Where'
p690
aS'is'
p691
aS'Mary'
p692
asI174
(lp693
S'Where'
p694
aS'is'
p695
aS'Mary'
p696
asI175
(lp697
S'Where'
p698
aS'is'
p699
aS'John'
p700
asI176
(lp701
S'Where'
p702
aS'is'
p703
aS'Mary'
p704
asI177
(lp705
S'Where'
p706
aS'is'
p707
aS'Mary'
p708
asI178
(lp709
S'Where'
p710
aS'is'
p711
aS'John'
p712
asI179
(lp713
S'Where'
p714
aS'is'
p715
aS'John'
p716
asI180
(lp717
S'Where'
p718
aS'is'
p719
aS'Mary'
p720
asI181
(lp721
S'Where'
p722
aS'is'
p723
aS'Daniel'
p724
asI182
(lp725
S'Where'
p726
aS'is'
p727
aS'Daniel'
p728
asI183
(lp729
S'Where'
p730
aS'is'
p731
aS'John'
p732
asI184
(lp733
S'Where'
p734
aS'is'
p735
aS'John'
p736
asI185
(lp737
S'Where'
p738
aS'is'
p739
aS'Sandra'
p740
asI186
(lp741
S'Where'
p742
aS'is'
p743
aS'Sandra'
p744
asI187
(lp745
S'Where'
p746
aS'is'
p747
aS'Mary'
p748
asI188
(lp749
S'Where'
p750
aS'is'
p751
aS'Mary'
p752
asI189
(lp753
S'Where'
p754
aS'is'
p755
aS'John'
p756
asI190
(lp757
S'Where'
p758
aS'is'
p759
aS'Mary'
p760
asI191
(lp761
S'Where'
p762
aS'is'
p763
aS'Daniel'
p764
asI192
(lp765
S'Where'
p766
aS'is'
p767
aS'Mary'
p768
asI193
(lp769
S'Where'
p770
aS'is'
p771
aS'Mary'
p772
asI194
(lp773
S'Where'
p774
aS'is'
p775
aS'Daniel'
p776
asI195
(lp777
S'Where'
p778
aS'is'
p779
aS'Daniel'
p780
asI196
(lp781
S'Where'
p782
aS'is'
p783
aS'Sandra'
p784
asI197
(lp785
S'Where'
p786
aS'is'
p787
aS'Daniel'
p788
asI198
(lp789
S'Where'
p790
aS'is'
p791
aS'Sandra'
p792
asI199
(lp793
S'Where'
p794
aS'is'
p795
aS'Daniel'
p796
asI200
(lp797
S'Where'
p798
aS'is'
p799
aS'John'
p800
asI201
(lp801
S'Where'
p802
aS'is'
p803
aS'Daniel'
p804
asI202
(lp805
S'Where'
p806
aS'is'
p807
aS'Daniel'
p808
asI203
(lp809
S'Where'
p810
aS'is'
p811
aS'John'
p812
asI204
(lp813
S'Where'
p814
aS'is'
p815
aS'John'
p816
asI205
(lp817
S'Where'
p818
aS'is'
p819
aS'Daniel'
p820
asI206
(lp821
S'Where'
p822
aS'is'
p823
aS'John'
p824
asI207
(lp825
S'Where'
p826
aS'is'
p827
aS'Daniel'
p828
asI208
(lp829
S'Where'
p830
aS'is'
p831
aS'John'
p832
asI209
(lp833
S'Where'
p834
aS'is'
p835
aS'Mary'
p836
asI210
(lp837
S'Where'
p838
aS'is'
p839
aS'Sandra'
p840
asI211
(lp841
S'Where'
p842
aS'is'
p843
aS'Daniel'
p844
asI212
(lp845
S'Where'
p846
aS'is'
p847
aS'Mary'
p848
asI213
(lp849
S'Where'
p850
aS'is'
p851
aS'John'
p852
asI214
(lp853
S'Where'
p854
aS'is'
p855
aS'Mary'
p856
asI215
(lp857
S'Where'
p858
aS'is'
p859
aS'John'
p860
asI216
(lp861
S'Where'
p862
aS'is'
p863
aS'Mary'
p864
asI217
(lp865
S'Where'
p866
aS'is'
p867
aS'Sandra'
p868
asI218
(lp869
S'Where'
p870
aS'is'
p871
aS'John'
p872
asI219
(lp873
S'Where'
p874
aS'is'
p875
aS'Sandra'
p876
asI220
(lp877
S'Where'
p878
aS'is'
p879
aS'Sandra'
p880
asI221
(lp881
S'Where'
p882
aS'is'
p883
aS'John'
p884
asI222
(lp885
S'Where'
p886
aS'is'
p887
aS'Mary'
p888
asI223
(lp889
S'Where'
p890
aS'is'
p891
aS'Mary'
p892
asI224
(lp893
S'Where'
p894
aS'is'
p895
aS'Mary'
p896
asI225
(lp897
S'Where'
p898
aS'is'
p899
aS'Mary'
p900
asI226
(lp901
S'Where'
p902
aS'is'
p903
aS'Daniel'
p904
asI227
(lp905
S'Where'
p906
aS'is'
p907
aS'Mary'
p908
asI228
(lp909
S'Where'
p910
aS'is'
p911
aS'Daniel'
p912
asI229
(lp913
S'Where'
p914
aS'is'
p915
aS'John'
p916
asI230
(lp917
S'Where'
p918
aS'is'
p919
aS'Sandra'
p920
asI231
(lp921
S'Where'
p922
aS'is'
p923
aS'Mary'
p924
asI232
(lp925
S'Where'
p926
aS'is'
p927
aS'Sandra'
p928
asI233
(lp929
S'Where'
p930
aS'is'
p931
aS'John'
p932
asI234
(lp933
S'Where'
p934
aS'is'
p935
aS'Sandra'
p936
asI235
(lp937
S'Where'
p938
aS'is'
p939
aS'Sandra'
p940
asI236
(lp941
S'Where'
p942
aS'is'
p943
aS'John'
p944
asI237
(lp945
S'Where'
p946
aS'is'
p947
aS'John'
p948
asI238
(lp949
S'Where'
p950
aS'is'
p951
aS'John'
p952
asI239
(lp953
S'Where'
p954
aS'is'
p955
aS'Sandra'
p956
asI240
(lp957
S'Where'
p958
aS'is'
p959
aS'Mary'
p960
asI241
(lp961
S'Where'
p962
aS'is'
p963
aS'Daniel'
p964
asI242
(lp965
S'Where'
p966
aS'is'
p967
aS'Daniel'
p968
asI243
(lp969
S'Where'
p970
aS'is'
p971
aS'Mary'
p972
asI244
(lp973
S'Where'
p974
aS'is'
p975
aS'Sandra'
p976
asI245
(lp977
S'Where'
p978
aS'is'
p979
aS'John'
p980
asI246
(lp981
S'Where'
p982
aS'is'
p983
aS'Daniel'
p984
asI247
(lp985
S'Where'
p986
aS'is'
p987
aS'Sandra'
p988
asI248
(lp989
S'Where'
p990
aS'is'
p991
aS'Daniel'
p992
asI249
(lp993
S'Where'
p994
aS'is'
p995
aS'Daniel'
p996
asI250
(lp997
S'Where'
p998
aS'is'
p999
aS'Mary'
p1000
asI251
(lp1001
S'Where'
p1002
aS'is'
p1003
aS'John'
p1004
asI252
(lp1005
S'Where'
p1006
aS'is'
p1007
aS'Sandra'
p1008
asI253
(lp1009
S'Where'
p1010
aS'is'
p1011
aS'Sandra'
p1012
asI254
(lp1013
S'Where'
p1014
aS'is'
p1015
aS'John'
p1016
asI255
(lp1017
S'Where'
p1018
aS'is'
p1019
aS'Daniel'
p1020
asI256
(lp1021
S'Where'
p1022
aS'is'
p1023
aS'Daniel'
p1024
asI257
(lp1025
S'Where'
p1026
aS'is'
p1027
aS'Daniel'
p1028
asI258
(lp1029
S'Where'
p1030
aS'is'
p1031
aS'Daniel'
p1032
asI259
(lp1033
S'Where'
p1034
aS'is'
p1035
aS'Sandra'
p1036
asI260
(lp1037
S'Where'
p1038
aS'is'
p1039
aS'Sandra'
p1040
asI261
(lp1041
S'Where'
p1042
aS'is'
p1043
aS'John'
p1044
asI262
(lp1045
S'Where'
p1046
aS'is'
p1047
aS'Daniel'
p1048
asI263
(lp1049
S'Where'
p1050
aS'is'
p1051
aS'John'
p1052
asI264
(lp1053
S'Where'
p1054
aS'is'
p1055
aS'Sandra'
p1056
asI265
(lp1057
S'Where'
p1058
aS'is'
p1059
aS'Daniel'
p1060
asI266
(lp1061
S'Where'
p1062
aS'is'
p1063
aS'Sandra'
p1064
asI267
(lp1065
S'Where'
p1066
aS'is'
p1067
aS'Mary'
p1068
asI268
(lp1069
S'Where'
p1070
aS'is'
p1071
aS'Sandra'
p1072
asI269
(lp1073
S'Where'
p1074
aS'is'
p1075
aS'Mary'
p1076
asI270
(lp1077
S'Where'
p1078
aS'is'
p1079
aS'Daniel'
p1080
asI271
(lp1081
S'Where'
p1082
aS'is'
p1083
aS'John'
p1084
asI272
(lp1085
S'Where'
p1086
aS'is'
p1087
aS'John'
p1088
asI273
(lp1089
S'Where'
p1090
aS'is'
p1091
aS'Daniel'
p1092
asI274
(lp1093
S'Where'
p1094
aS'is'
p1095
aS'Sandra'
p1096
asI275
(lp1097
S'Where'
p1098
aS'is'
p1099
aS'Sandra'
p1100
asI276
(lp1101
S'Where'
p1102
aS'is'
p1103
aS'John'
p1104
asI277
(lp1105
S'Where'
p1106
aS'is'
p1107
aS'John'
p1108
asI278
(lp1109
S'Where'
p1110
aS'is'
p1111
aS'John'
p1112
asI279
(lp1113
S'Where'
p1114
aS'is'
p1115
aS'John'
p1116
asI280
(lp1117
S'Where'
p1118
aS'is'
p1119
aS'John'
p1120
asI281
(lp1121
S'Where'
p1122
aS'is'
p1123
aS'John'
p1124
asI282
(lp1125
S'Where'
p1126
aS'is'
p1127
aS'Mary'
p1128
asI283
(lp1129
S'Where'
p1130
aS'is'
p1131
aS'Sandra'
p1132
asI284
(lp1133
S'Where'
p1134
aS'is'
p1135
aS'Daniel'
p1136
asI285
(lp1137
S'Where'
p1138
aS'is'
p1139
aS'Mary'
p1140
asI286
(lp1141
S'Where'
p1142
aS'is'
p1143
aS'Daniel'
p1144
asI287
(lp1145
S'Where'
p1146
aS'is'
p1147
aS'Daniel'
p1148
asI288
(lp1149
S'Where'
p1150
aS'is'
p1151
aS'John'
p1152
asI289
(lp1153
S'Where'
p1154
aS'is'
p1155
aS'Mary'
p1156
asI290
(lp1157
S'Where'
p1158
aS'is'
p1159
aS'Mary'
p1160
asI291
(lp1161
S'Where'
p1162
aS'is'
p1163
aS'Mary'
p1164
asI292
(lp1165
S'Where'
p1166
aS'is'
p1167
aS'Mary'
p1168
asI293
(lp1169
S'Where'
p1170
aS'is'
p1171
aS'Sandra'
p1172
asI294
(lp1173
S'Where'
p1174
aS'is'
p1175
aS'Sandra'
p1176
asI295
(lp1177
S'Where'
p1178
aS'is'
p1179
aS'Daniel'
p1180
asI296
(lp1181
S'Where'
p1182
aS'is'
p1183
aS'Mary'
p1184
asI297
(lp1185
S'Where'
p1186
aS'is'
p1187
aS'John'
p1188
asI298
(lp1189
S'Where'
p1190
aS'is'
p1191
aS'John'
p1192
asI299
(lp1193
S'Where'
p1194
aS'is'
p1195
aS'Mary'
p1196
asI300
(lp1197
S'Where'
p1198
aS'is'
p1199
aS'John'
p1200
asI301
(lp1201
S'Where'
p1202
aS'is'
p1203
aS'Mary'
p1204
asI302
(lp1205
S'Where'
p1206
aS'is'
p1207
aS'Daniel'
p1208
asI303
(lp1209
S'Where'
p1210
aS'is'
p1211
aS'Daniel'
p1212
asI304
(lp1213
S'Where'
p1214
aS'is'
p1215
aS'Sandra'
p1216
asI305
(lp1217
S'Where'
p1218
aS'is'
p1219
aS'Daniel'
p1220
asI306
(lp1221
S'Where'
p1222
aS'is'
p1223
aS'John'
p1224
asI307
(lp1225
S'Where'
p1226
aS'is'
p1227
aS'Mary'
p1228
asI308
(lp1229
S'Where'
p1230
aS'is'
p1231
aS'Mary'
p1232
asI309
(lp1233
S'Where'
p1234
aS'is'
p1235
aS'Daniel'
p1236
asI310
(lp1237
S'Where'
p1238
aS'is'
p1239
aS'Daniel'
p1240
asI311
(lp1241
S'Where'
p1242
aS'is'
p1243
aS'John'
p1244
asI312
(lp1245
S'Where'
p1246
aS'is'
p1247
aS'John'
p1248
asI313
(lp1249
S'Where'
p1250
aS'is'
p1251
aS'John'
p1252
asI314
(lp1253
S'Where'
p1254
aS'is'
p1255
aS'Sandra'
p1256
asI315
(lp1257
S'Where'
p1258
aS'is'
p1259
aS'John'
p1260
asI316
(lp1261
S'Where'
p1262
aS'is'
p1263
aS'John'
p1264
asI317
(lp1265
S'Where'
p1266
aS'is'
p1267
aS'John'
p1268
asI318
(lp1269
S'Where'
p1270
aS'is'
p1271
aS'John'
p1272
asI319
(lp1273
S'Where'
p1274
aS'is'
p1275
aS'John'
p1276
asI320
(lp1277
S'Where'
p1278
aS'is'
p1279
aS'Daniel'
p1280
asI321
(lp1281
S'Where'
p1282
aS'is'
p1283
aS'Mary'
p1284
asI322
(lp1285
S'Where'
p1286
aS'is'
p1287
aS'Daniel'
p1288
asI323
(lp1289
S'Where'
p1290
aS'is'
p1291
aS'John'
p1292
asI324
(lp1293
S'Where'
p1294
aS'is'
p1295
aS'Mary'
p1296
asI325
(lp1297
S'Where'
p1298
aS'is'
p1299
aS'Sandra'
p1300
asI326
(lp1301
S'Where'
p1302
aS'is'
p1303
aS'Daniel'
p1304
asI327
(lp1305
S'Where'
p1306
aS'is'
p1307
aS'Sandra'
p1308
asI328
(lp1309
S'Where'
p1310
aS'is'
p1311
aS'Daniel'
p1312
asI329
(lp1313
S'Where'
p1314
aS'is'
p1315
aS'Mary'
p1316
asI330
(lp1317
S'Where'
p1318
aS'is'
p1319
aS'Sandra'
p1320
asI331
(lp1321
S'Where'
p1322
aS'is'
p1323
aS'Mary'
p1324
asI332
(lp1325
S'Where'
p1326
aS'is'
p1327
aS'Sandra'
p1328
asI333
(lp1329
S'Where'
p1330
aS'is'
p1331
aS'Mary'
p1332
asI334
(lp1333
S'Where'
p1334
aS'is'
p1335
aS'Sandra'
p1336
asI335
(lp1337
S'Where'
p1338
aS'is'
p1339
aS'Sandra'
p1340
asI336
(lp1341
S'Where'
p1342
aS'is'
p1343
aS'Daniel'
p1344
asI337
(lp1345
S'Where'
p1346
aS'is'
p1347
aS'John'
p1348
asI338
(lp1349
S'Where'
p1350
aS'is'
p1351
aS'Mary'
p1352
asI339
(lp1353
S'Where'
p1354
aS'is'
p1355
aS'Daniel'
p1356
asI340
(lp1357
S'Where'
p1358
aS'is'
p1359
aS'Daniel'
p1360
asI341
(lp1361
S'Where'
p1362
aS'is'
p1363
aS'Mary'
p1364
asI342
(lp1365
S'Where'
p1366
aS'is'
p1367
aS'Daniel'
p1368
asI343
(lp1369
S'Where'
p1370
aS'is'
p1371
aS'Daniel'
p1372
asI344
(lp1373
S'Where'
p1374
aS'is'
p1375
aS'Mary'
p1376
asI345
(lp1377
S'Where'
p1378
aS'is'
p1379
aS'Sandra'
p1380
asI346
(lp1381
S'Where'
p1382
aS'is'
p1383
aS'John'
p1384
asI347
(lp1385
S'Where'
p1386
aS'is'
p1387
aS'John'
p1388
asI348
(lp1389
S'Where'
p1390
aS'is'
p1391
aS'John'
p1392
asI349
(lp1393
S'Where'
p1394
aS'is'
p1395
aS'Daniel'
p1396
asI350
(lp1397
S'Where'
p1398
aS'is'
p1399
aS'Mary'
p1400
asI351
(lp1401
S'Where'
p1402
aS'is'
p1403
aS'Daniel'
p1404
asI352
(lp1405
S'Where'
p1406
aS'is'
p1407
aS'Daniel'
p1408
asI353
(lp1409
S'Where'
p1410
aS'is'
p1411
aS'Sandra'
p1412
asI354
(lp1413
S'Where'
p1414
aS'is'
p1415
aS'Sandra'
p1416
asI355
(lp1417
S'Where'
p1418
aS'is'
p1419
aS'Sandra'
p1420
asI356
(lp1421
S'Where'
p1422
aS'is'
p1423
aS'Sandra'
p1424
asI357
(lp1425
S'Where'
p1426
aS'is'
p1427
aS'John'
p1428
asI358
(lp1429
S'Where'
p1430
aS'is'
p1431
aS'Daniel'
p1432
asI359
(lp1433
S'Where'
p1434
aS'is'
p1435
aS'John'
p1436
asI360
(lp1437
S'Where'
p1438
aS'is'
p1439
aS'John'
p1440
asI361
(lp1441
S'Where'
p1442
aS'is'
p1443
aS'Mary'
p1444
asI362
(lp1445
S'Where'
p1446
aS'is'
p1447
aS'Mary'
p1448
asI363
(lp1449
S'Where'
p1450
aS'is'
p1451
aS'John'
p1452
asI364
(lp1453
S'Where'
p1454
aS'is'
p1455
aS'Mary'
p1456
asI365
(lp1457
S'Where'
p1458
aS'is'
p1459
aS'Sandra'
p1460
asI366
(lp1461
S'Where'
p1462
aS'is'
p1463
aS'Daniel'
p1464
asI367
(lp1465
S'Where'
p1466
aS'is'
p1467
aS'Mary'
p1468
asI368
(lp1469
S'Where'
p1470
aS'is'
p1471
aS'Daniel'
p1472
asI369
(lp1473
S'Where'
p1474
aS'is'
p1475
aS'John'
p1476
asI370
(lp1477
S'Where'
p1478
aS'is'
p1479
aS'Sandra'
p1480
asI371
(lp1481
S'Where'
p1482
aS'is'
p1483
aS'Sandra'
p1484
asI372
(lp1485
S'Where'
p1486
aS'is'
p1487
aS'Sandra'
p1488
asI373
(lp1489
S'Where'
p1490
aS'is'
p1491
aS'Sandra'
p1492
asI374
(lp1493
S'Where'
p1494
aS'is'
p1495
aS'Daniel'
p1496
asI375
(lp1497
S'Where'
p1498
aS'is'
p1499
aS'Daniel'
p1500
asI376
(lp1501
S'Where'
p1502
aS'is'
p1503
aS'Mary'
p1504
asI377
(lp1505
S'Where'
p1506
aS'is'
p1507
aS'John'
p1508
asI378
(lp1509
S'Where'
p1510
aS'is'
p1511
aS'Mary'
p1512
asI379
(lp1513
S'Where'
p1514
aS'is'
p1515
aS'Sandra'
p1516
asI380
(lp1517
S'Where'
p1518
aS'is'
p1519
aS'Daniel'
p1520
asI381
(lp1521
S'Where'
p1522
aS'is'
p1523
aS'John'
p1524
asI382
(lp1525
S'Where'
p1526
aS'is'
p1527
aS'Sandra'
p1528
asI383
(lp1529
S'Where'
p1530
aS'is'
p1531
aS'Sandra'
p1532
asI384
(lp1533
S'Where'
p1534
aS'is'
p1535
aS'John'
p1536
asI385
(lp1537
S'Where'
p1538
aS'is'
p1539
aS'John'
p1540
asI386
(lp1541
S'Where'
p1542
aS'is'
p1543
aS'John'
p1544
asI387
(lp1545
S'Where'
p1546
aS'is'
p1547
aS'John'
p1548
asI388
(lp1549
S'Where'
p1550
aS'is'
p1551
aS'John'
p1552
asI389
(lp1553
S'Where'
p1554
aS'is'
p1555
aS'John'
p1556
asI390
(lp1557
S'Where'
p1558
aS'is'
p1559
aS'Daniel'
p1560
asI391
(lp1561
S'Where'
p1562
aS'is'
p1563
aS'Mary'
p1564
asI392
(lp1565
S'Where'
p1566
aS'is'
p1567
aS'John'
p1568
asI393
(lp1569
S'Where'
p1570
aS'is'
p1571
aS'John'
p1572
asI394
(lp1573
S'Where'
p1574
aS'is'
p1575
aS'Mary'
p1576
asI395
(lp1577
S'Where'
p1578
aS'is'
p1579
aS'Daniel'
p1580
asI396
(lp1581
S'Where'
p1582
aS'is'
p1583
aS'John'
p1584
asI397
(lp1585
S'Where'
p1586
aS'is'
p1587
aS'Mary'
p1588
asI398
(lp1589
S'Where'
p1590
aS'is'
p1591
aS'John'
p1592
asI399
(lp1593
S'Where'
p1594
aS'is'
p1595
aS'John'
p1596
asI400
(lp1597
S'Where'
p1598
aS'is'
p1599
aS'John'
p1600
asI401
(lp1601
S'Where'
p1602
aS'is'
p1603
aS'Sandra'
p1604
asI402
(lp1605
S'Where'
p1606
aS'is'
p1607
aS'Mary'
p1608
asI403
(lp1609
S'Where'
p1610
aS'is'
p1611
aS'Sandra'
p1612
asI404
(lp1613
S'Where'
p1614
aS'is'
p1615
aS'Mary'
p1616
asI405
(lp1617
S'Where'
p1618
aS'is'
p1619
aS'John'
p1620
asI406
(lp1621
S'Where'
p1622
aS'is'
p1623
aS'Sandra'
p1624
asI407
(lp1625
S'Where'
p1626
aS'is'
p1627
aS'Daniel'
p1628
asI408
(lp1629
S'Where'
p1630
aS'is'
p1631
aS'Daniel'
p1632
asI409
(lp1633
S'Where'
p1634
aS'is'
p1635
aS'Daniel'
p1636
asI410
(lp1637
S'Where'
p1638
aS'is'
p1639
aS'Daniel'
p1640
asI411
(lp1641
S'Where'
p1642
aS'is'
p1643
aS'Sandra'
p1644
asI412
(lp1645
S'Where'
p1646
aS'is'
p1647
aS'Sandra'
p1648
asI413
(lp1649
S'Where'
p1650
aS'is'
p1651
aS'Sandra'
p1652
asI414
(lp1653
S'Where'
p1654
aS'is'
p1655
aS'Sandra'
p1656
asI415
(lp1657
S'Where'
p1658
aS'is'
p1659
aS'Daniel'
p1660
asI416
(lp1661
S'Where'
p1662
aS'is'
p1663
aS'Mary'
p1664
asI417
(lp1665
S'Where'
p1666
aS'is'
p1667
aS'Mary'
p1668
asI418
(lp1669
S'Where'
p1670
aS'is'
p1671
aS'Daniel'
p1672
asI419
(lp1673
S'Where'
p1674
aS'is'
p1675
aS'Daniel'
p1676
asI420
(lp1677
S'Where'
p1678
aS'is'
p1679
aS'Mary'
p1680
asI421
(lp1681
S'Where'
p1682
aS'is'
p1683
aS'Daniel'
p1684
asI422
(lp1685
S'Where'
p1686
aS'is'
p1687
aS'Sandra'
p1688
asI423
(lp1689
S'Where'
p1690
aS'is'
p1691
aS'John'
p1692
asI424
(lp1693
S'Where'
p1694
aS'is'
p1695
aS'Mary'
p1696
asI425
(lp1697
S'Where'
p1698
aS'is'
p1699
aS'Mary'
p1700
asI426
(lp1701
S'Where'
p1702
aS'is'
p1703
aS'Mary'
p1704
asI427
(lp1705
S'Where'
p1706
aS'is'
p1707
aS'John'
p1708
asI428
(lp1709
S'Where'
p1710
aS'is'
p1711
aS'Daniel'
p1712
asI429
(lp1713
S'Where'
p1714
aS'is'
p1715
aS'Sandra'
p1716
asI430
(lp1717
S'Where'
p1718
aS'is'
p1719
aS'Mary'
p1720
asI431
(lp1721
S'Where'
p1722
aS'is'
p1723
aS'Daniel'
p1724
asI432
(lp1725
S'Where'
p1726
aS'is'
p1727
aS'Sandra'
p1728
asI433
(lp1729
S'Where'
p1730
aS'is'
p1731
aS'Daniel'
p1732
asI434
(lp1733
S'Where'
p1734
aS'is'
p1735
aS'Sandra'
p1736
asI435
(lp1737
S'Where'
p1738
aS'is'
p1739
aS'Sandra'
p1740
asI436
(lp1741
S'Where'
p1742
aS'is'
p1743
aS'Mary'
p1744
asI437
(lp1745
S'Where'
p1746
aS'is'
p1747
aS'Mary'
p1748
asI438
(lp1749
S'Where'
p1750
aS'is'
p1751
aS'Daniel'
p1752
asI439
(lp1753
S'Where'
p1754
aS'is'
p1755
aS'Mary'
p1756
asI440
(lp1757
S'Where'
p1758
aS'is'
p1759
aS'Mary'
p1760
asI441
(lp1761
S'Where'
p1762
aS'is'
p1763
aS'Mary'
p1764
asI442
(lp1765
S'Where'
p1766
aS'is'
p1767
aS'John'
p1768
asI443
(lp1769
S'Where'
p1770
aS'is'
p1771
aS'Mary'
p1772
asI444
(lp1773
S'Where'
p1774
aS'is'
p1775
aS'John'
p1776
asI445
(lp1777
S'Where'
p1778
aS'is'
p1779
aS'Sandra'
p1780
asI446
(lp1781
S'Where'
p1782
aS'is'
p1783
aS'Mary'
p1784
asI447
(lp1785
S'Where'
p1786
aS'is'
p1787
aS'Sandra'
p1788
asI448
(lp1789
S'Where'
p1790
aS'is'
p1791
aS'Sandra'
p1792
asI449
(lp1793
S'Where'
p1794
aS'is'
p1795
aS'John'
p1796
asI450
(lp1797
S'Where'
p1798
aS'is'
p1799
aS'Sandra'
p1800
asI451
(lp1801
S'Where'
p1802
aS'is'
p1803
aS'Mary'
p1804
asI452
(lp1805
S'Where'
p1806
aS'is'
p1807
aS'Sandra'
p1808
asI453
(lp1809
S'Where'
p1810
aS'is'
p1811
aS'Daniel'
p1812
asI454
(lp1813
S'Where'
p1814
aS'is'
p1815
aS'Daniel'
p1816
asI455
(lp1817
S'Where'
p1818
aS'is'
p1819
aS'Daniel'
p1820
asI456
(lp1821
S'Where'
p1822
aS'is'
p1823
aS'Sandra'
p1824
asI457
(lp1825
S'Where'
p1826
aS'is'
p1827
aS'Mary'
p1828
asI458
(lp1829
S'Where'
p1830
aS'is'
p1831
aS'Sandra'
p1832
asI459
(lp1833
S'Where'
p1834
aS'is'
p1835
aS'Mary'
p1836
asI460
(lp1837
S'Where'
p1838
aS'is'
p1839
aS'Daniel'
p1840
asI461
(lp1841
S'Where'
p1842
aS'is'
p1843
aS'Daniel'
p1844
asI462
(lp1845
S'Where'
p1846
aS'is'
p1847
aS'Mary'
p1848
asI463
(lp1849
S'Where'
p1850
aS'is'
p1851
aS'John'
p1852
asI464
(lp1853
S'Where'
p1854
aS'is'
p1855
aS'John'
p1856
asI465
(lp1857
S'Where'
p1858
aS'is'
p1859
aS'Mary'
p1860
asI466
(lp1861
S'Where'
p1862
aS'is'
p1863
aS'John'
p1864
asI467
(lp1865
S'Where'
p1866
aS'is'
p1867
aS'Daniel'
p1868
asI468
(lp1869
S'Where'
p1870
aS'is'
p1871
aS'John'
p1872
asI469
(lp1873
S'Where'
p1874
aS'is'
p1875
aS'Sandra'
p1876
asI470
(lp1877
S'Where'
p1878
aS'is'
p1879
aS'Mary'
p1880
asI471
(lp1881
S'Where'
p1882
aS'is'
p1883
aS'Daniel'
p1884
asI472
(lp1885
S'Where'
p1886
aS'is'
p1887
aS'Sandra'
p1888
asI473
(lp1889
S'Where'
p1890
aS'is'
p1891
aS'Sandra'
p1892
asI474
(lp1893
S'Where'
p1894
aS'is'
p1895
aS'Daniel'
p1896
asI475
(lp1897
S'Where'
p1898
aS'is'
p1899
aS'Mary'
p1900
asI476
(lp1901
S'Where'
p1902
aS'is'
p1903
aS'Daniel'
p1904
asI477
(lp1905
S'Where'
p1906
aS'is'
p1907
aS'John'
p1908
asI478
(lp1909
S'Where'
p1910
aS'is'
p1911
aS'Sandra'
p1912
asI479
(lp1913
S'Where'
p1914
aS'is'
p1915
aS'John'
p1916
asI480
(lp1917
S'Where'
p1918
aS'is'
p1919
aS'Daniel'
p1920
asI481
(lp1921
S'Where'
p1922
aS'is'
p1923
aS'Sandra'
p1924
asI482
(lp1925
S'Where'
p1926
aS'is'
p1927
aS'Daniel'
p1928
asI483
(lp1929
S'Where'
p1930
aS'is'
p1931
aS'Sandra'
p1932
asI484
(lp1933
S'Where'
p1934
aS'is'
p1935
aS'Mary'
p1936
asI485
(lp1937
S'Where'
p1938
aS'is'
p1939
aS'John'
p1940
asI486
(lp1941
S'Where'
p1942
aS'is'
p1943
aS'John'
p1944
asI487
(lp1945
S'Where'
p1946
aS'is'
p1947
aS'Sandra'
p1948
asI488
(lp1949
S'Where'
p1950
aS'is'
p1951
aS'Sandra'
p1952
asI489
(lp1953
S'Where'
p1954
aS'is'
p1955
aS'Daniel'
p1956
asI490
(lp1957
S'Where'
p1958
aS'is'
p1959
aS'Sandra'
p1960
asI491
(lp1961
S'Where'
p1962
aS'is'
p1963
aS'John'
p1964
asI492
(lp1965
S'Where'
p1966
aS'is'
p1967
aS'John'
p1968
asI493
(lp1969
S'Where'
p1970
aS'is'
p1971
aS'John'
p1972
asI494
(lp1973
S'Where'
p1974
aS'is'
p1975
aS'John'
p1976
asI495
(lp1977
S'Where'
p1978
aS'is'
p1979
aS'Daniel'
p1980
asI496
(lp1981
S'Where'
p1982
aS'is'
p1983
aS'Mary'
p1984
asI497
(lp1985
S'Where'
p1986
aS'is'
p1987
aS'Sandra'
p1988
asI498
(lp1989
S'Where'
p1990
aS'is'
p1991
aS'Daniel'
p1992
asI499
(lp1993
S'Where'
p1994
aS'is'
p1995
aS'John'
p1996
asI500
(lp1997
S'Where'
p1998
aS'is'
p1999
aS'Mary'
p2000
asI501
(lp2001
S'Where'
p2002
aS'is'
p2003
aS'Mary'
p2004
asI502
(lp2005
S'Where'
p2006
aS'is'
p2007
aS'Mary'
p2008
asI503
(lp2009
S'Where'
p2010
aS'is'
p2011
aS'Mary'
p2012
asI504
(lp2013
S'Where'
p2014
aS'is'
p2015
aS'Sandra'
p2016
asI505
(lp2017
S'Where'
p2018
aS'is'
p2019
aS'Sandra'
p2020
asI506
(lp2021
S'Where'
p2022
aS'is'
p2023
aS'Daniel'
p2024
asI507
(lp2025
S'Where'
p2026
aS'is'
p2027
aS'Daniel'
p2028
asI508
(lp2029
S'Where'
p2030
aS'is'
p2031
aS'Daniel'
p2032
asI509
(lp2033
S'Where'
p2034
aS'is'
p2035
aS'Mary'
p2036
asI510
(lp2037
S'Where'
p2038
aS'is'
p2039
aS'John'
p2040
asI511
(lp2041
S'Where'
p2042
aS'is'
p2043
aS'Mary'
p2044
asI512
(lp2045
S'Where'
p2046
aS'is'
p2047
aS'Mary'
p2048
asI513
(lp2049
S'Where'
p2050
aS'is'
p2051
aS'John'
p2052
asI514
(lp2053
S'Where'
p2054
aS'is'
p2055
aS'Mary'
p2056
asI515
(lp2057
S'Where'
p2058
aS'is'
p2059
aS'John'
p2060
asI516
(lp2061
S'Where'
p2062
aS'is'
p2063
aS'Sandra'
p2064
asI517
(lp2065
S'Where'
p2066
aS'is'
p2067
aS'Sandra'
p2068
asI518
(lp2069
S'Where'
p2070
aS'is'
p2071
aS'Sandra'
p2072
asI519
(lp2073
S'Where'
p2074
aS'is'
p2075
aS'Daniel'
p2076
asI520
(lp2077
S'Where'
p2078
aS'is'
p2079
aS'Daniel'
p2080
asI521
(lp2081
S'Where'
p2082
aS'is'
p2083
aS'Sandra'
p2084
asI522
(lp2085
S'Where'
p2086
aS'is'
p2087
aS'Mary'
p2088
asI523
(lp2089
S'Where'
p2090
aS'is'
p2091
aS'Daniel'
p2092
asI524
(lp2093
S'Where'
p2094
aS'is'
p2095
aS'Sandra'
p2096
asI525
(lp2097
S'Where'
p2098
aS'is'
p2099
aS'Mary'
p2100
asI526
(lp2101
S'Where'
p2102
aS'is'
p2103
aS'John'
p2104
asI527
(lp2105
S'Where'
p2106
aS'is'
p2107
aS'John'
p2108
asI528
(lp2109
S'Where'
p2110
aS'is'
p2111
aS'John'
p2112
asI529
(lp2113
S'Where'
p2114
aS'is'
p2115
aS'Mary'
p2116
asI530
(lp2117
S'Where'
p2118
aS'is'
p2119
aS'Mary'
p2120
asI531
(lp2121
S'Where'
p2122
aS'is'
p2123
aS'John'
p2124
asI532
(lp2125
S'Where'
p2126
aS'is'
p2127
aS'Sandra'
p2128
asI533
(lp2129
S'Where'
p2130
aS'is'
p2131
aS'Sandra'
p2132
asI534
(lp2133
S'Where'
p2134
aS'is'
p2135
aS'John'
p2136
asI535
(lp2137
S'Where'
p2138
aS'is'
p2139
aS'John'
p2140
asI536
(lp2141
S'Where'
p2142
aS'is'
p2143
aS'Sandra'
p2144
asI537
(lp2145
S'Where'
p2146
aS'is'
p2147
aS'Mary'
p2148
asI538
(lp2149
S'Where'
p2150
aS'is'
p2151
aS'Sandra'
p2152
asI539
(lp2153
S'Where'
p2154
aS'is'
p2155
aS'Daniel'
p2156
asI540
(lp2157
S'Where'
p2158
aS'is'
p2159
aS'Sandra'
p2160
asI541
(lp2161
S'Where'
p2162
aS'is'
p2163
aS'Sandra'
p2164
asI542
(lp2165
S'Where'
p2166
aS'is'
p2167
aS'Mary'
p2168
asI543
(lp2169
S'Where'
p2170
aS'is'
p2171
aS'Mary'
p2172
asI544
(lp2173
S'Where'
p2174
aS'is'
p2175
aS'Daniel'
p2176
asI545
(lp2177
S'Where'
p2178
aS'is'
p2179
aS'Sandra'
p2180
asI546
(lp2181
S'Where'
p2182
aS'is'
p2183
aS'Mary'
p2184
asI547
(lp2185
S'Where'
p2186
aS'is'
p2187
aS'Mary'
p2188
asI548
(lp2189
S'Where'
p2190
aS'is'
p2191
aS'Daniel'
p2192
asI549
(lp2193
S'Where'
p2194
aS'is'
p2195
aS'Sandra'
p2196
asI550
(lp2197
S'Where'
p2198
aS'is'
p2199
aS'Daniel'
p2200
asI551
(lp2201
S'Where'
p2202
aS'is'
p2203
aS'Sandra'
p2204
asI552
(lp2205
S'Where'
p2206
aS'is'
p2207
aS'Sandra'
p2208
asI553
(lp2209
S'Where'
p2210
aS'is'
p2211
aS'Mary'
p2212
asI554
(lp2213
S'Where'
p2214
aS'is'
p2215
aS'Sandra'
p2216
asI555
(lp2217
S'Where'
p2218
aS'is'
p2219
aS'Mary'
p2220
asI556
(lp2221
S'Where'
p2222
aS'is'
p2223
aS'Sandra'
p2224
asI557
(lp2225
S'Where'
p2226
aS'is'
p2227
aS'Mary'
p2228
asI558
(lp2229
S'Where'
p2230
aS'is'
p2231
aS'Sandra'
p2232
asI559
(lp2233
S'Where'
p2234
aS'is'
p2235
aS'Mary'
p2236
asI560
(lp2237
S'Where'
p2238
aS'is'
p2239
aS'Mary'
p2240
asI561
(lp2241
S'Where'
p2242
aS'is'
p2243
aS'John'
p2244
asI562
(lp2245
S'Where'
p2246
aS'is'
p2247
aS'Daniel'
p2248
asI563
(lp2249
S'Where'
p2250
aS'is'
p2251
aS'Sandra'
p2252
asI564
(lp2253
S'Where'
p2254
aS'is'
p2255
aS'Daniel'
p2256
asI565
(lp2257
S'Where'
p2258
aS'is'
p2259
aS'Mary'
p2260
asI566
(lp2261
S'Where'
p2262
aS'is'
p2263
aS'Daniel'
p2264
asI567
(lp2265
S'Where'
p2266
aS'is'
p2267
aS'Daniel'
p2268
asI568
(lp2269
S'Where'
p2270
aS'is'
p2271
aS'John'
p2272
asI569
(lp2273
S'Where'
p2274
aS'is'
p2275
aS'Mary'
p2276
asI570
(lp2277
S'Where'
p2278
aS'is'
p2279
aS'John'
p2280
asI571
(lp2281
S'Where'
p2282
aS'is'
p2283
aS'Sandra'
p2284
asI572
(lp2285
S'Where'
p2286
aS'is'
p2287
aS'Sandra'
p2288
asI573
(lp2289
S'Where'
p2290
aS'is'
p2291
aS'Sandra'
p2292
asI574
(lp2293
S'Where'
p2294
aS'is'
p2295
aS'Mary'
p2296
asI575
(lp2297
S'Where'
p2298
aS'is'
p2299
aS'John'
p2300
asI576
(lp2301
S'Where'
p2302
aS'is'
p2303
aS'John'
p2304
asI577
(lp2305
S'Where'
p2306
aS'is'
p2307
aS'Daniel'
p2308
asI578
(lp2309
S'Where'
p2310
aS'is'
p2311
aS'Daniel'
p2312
asI579
(lp2313
S'Where'
p2314
aS'is'
p2315
aS'Daniel'
p2316
asI580
(lp2317
S'Where'
p2318
aS'is'
p2319
aS'Mary'
p2320
asI581
(lp2321
S'Where'
p2322
aS'is'
p2323
aS'Sandra'
p2324
asI582
(lp2325
S'Where'
p2326
aS'is'
p2327
aS'Daniel'
p2328
asI583
(lp2329
S'Where'
p2330
aS'is'
p2331
aS'Daniel'
p2332
asI584
(lp2333
S'Where'
p2334
aS'is'
p2335
aS'Mary'
p2336
asI585
(lp2337
S'Where'
p2338
aS'is'
p2339
aS'Sandra'
p2340
asI586
(lp2341
S'Where'
p2342
aS'is'
p2343
aS'Mary'
p2344
asI587
(lp2345
S'Where'
p2346
aS'is'
p2347
aS'John'
p2348
asI588
(lp2349
S'Where'
p2350
aS'is'
p2351
aS'John'
p2352
asI589
(lp2353
S'Where'
p2354
aS'is'
p2355
aS'Mary'
p2356
asI590
(lp2357
S'Where'
p2358
aS'is'
p2359
aS'Sandra'
p2360
asI591
(lp2361
S'Where'
p2362
aS'is'
p2363
aS'Mary'
p2364
asI592
(lp2365
S'Where'
p2366
aS'is'
p2367
aS'Mary'
p2368
asI593
(lp2369
S'Where'
p2370
aS'is'
p2371
aS'Sandra'
p2372
asI594
(lp2373
S'Where'
p2374
aS'is'
p2375
aS'John'
p2376
asI595
(lp2377
S'Where'
p2378
aS'is'
p2379
aS'Sandra'
p2380
asI596
(lp2381
S'Where'
p2382
aS'is'
p2383
aS'Mary'
p2384
asI597
(lp2385
S'Where'
p2386
aS'is'
p2387
aS'Mary'
p2388
asI598
(lp2389
S'Where'
p2390
aS'is'
p2391
aS'Mary'
p2392
asI599
(lp2393
S'Where'
p2394
aS'is'
p2395
aS'Sandra'
p2396
asI600
(lp2397
S'Where'
p2398
aS'is'
p2399
aS'Sandra'
p2400
asI601
(lp2401
S'Where'
p2402
aS'is'
p2403
aS'Mary'
p2404
asI602
(lp2405
S'Where'
p2406
aS'is'
p2407
aS'Mary'
p2408
asI603
(lp2409
S'Where'
p2410
aS'is'
p2411
aS'John'
p2412
asI604
(lp2413
S'Where'
p2414
aS'is'
p2415
aS'Mary'
p2416
asI605
(lp2417
S'Where'
p2418
aS'is'
p2419
aS'Daniel'
p2420
asI606
(lp2421
S'Where'
p2422
aS'is'
p2423
aS'Sandra'
p2424
asI607
(lp2425
S'Where'
p2426
aS'is'
p2427
aS'Sandra'
p2428
asI608
(lp2429
S'Where'
p2430
aS'is'
p2431
aS'Mary'
p2432
asI609
(lp2433
S'Where'
p2434
aS'is'
p2435
aS'Daniel'
p2436
asI610
(lp2437
S'Where'
p2438
aS'is'
p2439
aS'Mary'
p2440
asI611
(lp2441
S'Where'
p2442
aS'is'
p2443
aS'Sandra'
p2444
asI612
(lp2445
S'Where'
p2446
aS'is'
p2447
aS'Sandra'
p2448
asI613
(lp2449
S'Where'
p2450
aS'is'
p2451
aS'Mary'
p2452
asI614
(lp2453
S'Where'
p2454
aS'is'
p2455
aS'Daniel'
p2456
asI615
(lp2457
S'Where'
p2458
aS'is'
p2459
aS'Sandra'
p2460
asI616
(lp2461
S'Where'
p2462
aS'is'
p2463
aS'Daniel'
p2464
asI617
(lp2465
S'Where'
p2466
aS'is'
p2467
aS'Daniel'
p2468
asI618
(lp2469
S'Where'
p2470
aS'is'
p2471
aS'Daniel'
p2472
asI619
(lp2473
S'Where'
p2474
aS'is'
p2475
aS'John'
p2476
asI620
(lp2477
S'Where'
p2478
aS'is'
p2479
aS'John'
p2480
asI621
(lp2481
S'Where'
p2482
aS'is'
p2483
aS'John'
p2484
asI622
(lp2485
S'Where'
p2486
aS'is'
p2487
aS'John'
p2488
asI623
(lp2489
S'Where'
p2490
aS'is'
p2491
aS'Sandra'
p2492
asI624
(lp2493
S'Where'
p2494
aS'is'
p2495
aS'Daniel'
p2496
asI625
(lp2497
S'Where'
p2498
aS'is'
p2499
aS'Daniel'
p2500
asI626
(lp2501
S'Where'
p2502
aS'is'
p2503
aS'Sandra'
p2504
asI627
(lp2505
S'Where'
p2506
aS'is'
p2507
aS'Mary'
p2508
asI628
(lp2509
S'Where'
p2510
aS'is'
p2511
aS'Sandra'
p2512
asI629
(lp2513
S'Where'
p2514
aS'is'
p2515
aS'John'
p2516
asI630
(lp2517
S'Where'
p2518
aS'is'
p2519
aS'John'
p2520
asI631
(lp2521
S'Where'
p2522
aS'is'
p2523
aS'Sandra'
p2524
asI632
(lp2525
S'Where'
p2526
aS'is'
p2527
aS'Mary'
p2528
asI633
(lp2529
S'Where'
p2530
aS'is'
p2531
aS'Mary'
p2532
asI634
(lp2533
S'Where'
p2534
aS'is'
p2535
aS'Daniel'
p2536
asI635
(lp2537
S'Where'
p2538
aS'is'
p2539
aS'John'
p2540
asI636
(lp2541
S'Where'
p2542
aS'is'
p2543
aS'Daniel'
p2544
asI637
(lp2545
S'Where'
p2546
aS'is'
p2547
aS'Mary'
p2548
asI638
(lp2549
S'Where'
p2550
aS'is'
p2551
aS'Mary'
p2552
asI639
(lp2553
S'Where'
p2554
aS'is'
p2555
aS'Mary'
p2556
asI640
(lp2557
S'Where'
p2558
aS'is'
p2559
aS'Sandra'
p2560
asI641
(lp2561
S'Where'
p2562
aS'is'
p2563
aS'Mary'
p2564
asI642
(lp2565
S'Where'
p2566
aS'is'
p2567
aS'Sandra'
p2568
asI643
(lp2569
S'Where'
p2570
aS'is'
p2571
aS'Sandra'
p2572
asI644
(lp2573
S'Where'
p2574
aS'is'
p2575
aS'Daniel'
p2576
asI645
(lp2577
S'Where'
p2578
aS'is'
p2579
aS'Daniel'
p2580
asI646
(lp2581
S'Where'
p2582
aS'is'
p2583
aS'Sandra'
p2584
asI647
(lp2585
S'Where'
p2586
aS'is'
p2587
aS'Sandra'
p2588
asI648
(lp2589
S'Where'
p2590
aS'is'
p2591
aS'Sandra'
p2592
asI649
(lp2593
S'Where'
p2594
aS'is'
p2595
aS'John'
p2596
asI650
(lp2597
S'Where'
p2598
aS'is'
p2599
aS'John'
p2600
asI651
(lp2601
S'Where'
p2602
aS'is'
p2603
aS'Mary'
p2604
asI652
(lp2605
S'Where'
p2606
aS'is'
p2607
aS'John'
p2608
asI653
(lp2609
S'Where'
p2610
aS'is'
p2611
aS'Mary'
p2612
asI654
(lp2613
S'Where'
p2614
aS'is'
p2615
aS'Mary'
p2616
asI655
(lp2617
S'Where'
p2618
aS'is'
p2619
aS'Mary'
p2620
asI656
(lp2621
S'Where'
p2622
aS'is'
p2623
aS'John'
p2624
asI657
(lp2625
S'Where'
p2626
aS'is'
p2627
aS'Daniel'
p2628
asI658
(lp2629
S'Where'
p2630
aS'is'
p2631
aS'John'
p2632
asI659
(lp2633
S'Where'
p2634
aS'is'
p2635
aS'Daniel'
p2636
asI660
(lp2637
S'Where'
p2638
aS'is'
p2639
aS'Daniel'
p2640
asI661
(lp2641
S'Where'
p2642
aS'is'
p2643
aS'Daniel'
p2644
asI662
(lp2645
S'Where'
p2646
aS'is'
p2647
aS'Daniel'
p2648
asI663
(lp2649
S'Where'
p2650
aS'is'
p2651
aS'John'
p2652
asI664
(lp2653
S'Where'
p2654
aS'is'
p2655
aS'Mary'
p2656
asI665
(lp2657
S'Where'
p2658
aS'is'
p2659
aS'John'
p2660
asI666
(lp2661
S'Where'
p2662
aS'is'
p2663
aS'John'
p2664
asI667
(lp2665
S'Where'
p2666
aS'is'
p2667
aS'John'
p2668
asI668
(lp2669
S'Where'
p2670
aS'is'
p2671
aS'Mary'
p2672
asI669
(lp2673
S'Where'
p2674
aS'is'
p2675
aS'Mary'
p2676
asI670
(lp2677
S'Where'
p2678
aS'is'
p2679
aS'Sandra'
p2680
asI671
(lp2681
S'Where'
p2682
aS'is'
p2683
aS'John'
p2684
asI672
(lp2685
S'Where'
p2686
aS'is'
p2687
aS'John'
p2688
asI673
(lp2689
S'Where'
p2690
aS'is'
p2691
aS'Daniel'
p2692
asI674
(lp2693
S'Where'
p2694
aS'is'
p2695
aS'Mary'
p2696
asI675
(lp2697
S'Where'
p2698
aS'is'
p2699
aS'John'
p2700
asI676
(lp2701
S'Where'
p2702
aS'is'
p2703
aS'John'
p2704
asI677
(lp2705
S'Where'
p2706
aS'is'
p2707
aS'Daniel'
p2708
asI678
(lp2709
S'Where'
p2710
aS'is'
p2711
aS'Daniel'
p2712
asI679
(lp2713
S'Where'
p2714
aS'is'
p2715
aS'Daniel'
p2716
asI680
(lp2717
S'Where'
p2718
aS'is'
p2719
aS'Daniel'
p2720
asI681
(lp2721
S'Where'
p2722
aS'is'
p2723
aS'Sandra'
p2724
asI682
(lp2725
S'Where'
p2726
aS'is'
p2727
aS'Sandra'
p2728
asI683
(lp2729
S'Where'
p2730
aS'is'
p2731
aS'John'
p2732
asI684
(lp2733
S'Where'
p2734
aS'is'
p2735
aS'John'
p2736
asI685
(lp2737
S'Where'
p2738
aS'is'
p2739
aS'Sandra'
p2740
asI686
(lp2741
S'Where'
p2742
aS'is'
p2743
aS'Sandra'
p2744
asI687
(lp2745
S'Where'
p2746
aS'is'
p2747
aS'Mary'
p2748
asI688
(lp2749
S'Where'
p2750
aS'is'
p2751
aS'Mary'
p2752
asI689
(lp2753
S'Where'
p2754
aS'is'
p2755
aS'Daniel'
p2756
asI690
(lp2757
S'Where'
p2758
aS'is'
p2759
aS'John'
p2760
asI691
(lp2761
S'Where'
p2762
aS'is'
p2763
aS'Daniel'
p2764
asI692
(lp2765
S'Where'
p2766
aS'is'
p2767
aS'Mary'
p2768
asI693
(lp2769
S'Where'
p2770
aS'is'
p2771
aS'John'
p2772
asI694
(lp2773
S'Where'
p2774
aS'is'
p2775
aS'John'
p2776
asI695
(lp2777
S'Where'
p2778
aS'is'
p2779
aS'Daniel'
p2780
asI696
(lp2781
S'Where'
p2782
aS'is'
p2783
aS'John'
p2784
asI697
(lp2785
S'Where'
p2786
aS'is'
p2787
aS'John'
p2788
asI698
(lp2789
S'Where'
p2790
aS'is'
p2791
aS'John'
p2792
asI699
(lp2793
S'Where'
p2794
aS'is'
p2795
aS'Daniel'
p2796
asI700
(lp2797
S'Where'
p2798
aS'is'
p2799
aS'John'
p2800
asI701
(lp2801
S'Where'
p2802
aS'is'
p2803
aS'John'
p2804
asI702
(lp2805
S'Where'
p2806
aS'is'
p2807
aS'Daniel'
p2808
asI703
(lp2809
S'Where'
p2810
aS'is'
p2811
aS'John'
p2812
asI704
(lp2813
S'Where'
p2814
aS'is'
p2815
aS'Sandra'
p2816
asI705
(lp2817
S'Where'
p2818
aS'is'
p2819
aS'John'
p2820
asI706
(lp2821
S'Where'
p2822
aS'is'
p2823
aS'John'
p2824
asI707
(lp2825
S'Where'
p2826
aS'is'
p2827
aS'Daniel'
p2828
asI708
(lp2829
S'Where'
p2830
aS'is'
p2831
aS'Mary'
p2832
asI709
(lp2833
S'Where'
p2834
aS'is'
p2835
aS'Mary'
p2836
asI710
(lp2837
S'Where'
p2838
aS'is'
p2839
aS'Daniel'
p2840
asI711
(lp2841
S'Where'
p2842
aS'is'
p2843
aS'Sandra'
p2844
asI712
(lp2845
S'Where'
p2846
aS'is'
p2847
aS'John'
p2848
asI713
(lp2849
S'Where'
p2850
aS'is'
p2851
aS'Sandra'
p2852
asI714
(lp2853
S'Where'
p2854
aS'is'
p2855
aS'Mary'
p2856
asI715
(lp2857
S'Where'
p2858
aS'is'
p2859
aS'Daniel'
p2860
asI716
(lp2861
S'Where'
p2862
aS'is'
p2863
aS'Sandra'
p2864
asI717
(lp2865
S'Where'
p2866
aS'is'
p2867
aS'Mary'
p2868
asI718
(lp2869
S'Where'
p2870
aS'is'
p2871
aS'Daniel'
p2872
asI719
(lp2873
S'Where'
p2874
aS'is'
p2875
aS'Daniel'
p2876
asI720
(lp2877
S'Where'
p2878
aS'is'
p2879
aS'Mary'
p2880
asI721
(lp2881
S'Where'
p2882
aS'is'
p2883
aS'Sandra'
p2884
asI722
(lp2885
S'Where'
p2886
aS'is'
p2887
aS'Mary'
p2888
asI723
(lp2889
S'Where'
p2890
aS'is'
p2891
aS'Mary'
p2892
asI724
(lp2893
S'Where'
p2894
aS'is'
p2895
aS'Daniel'
p2896
asI725
(lp2897
S'Where'
p2898
aS'is'
p2899
aS'Daniel'
p2900
asI726
(lp2901
S'Where'
p2902
aS'is'
p2903
aS'Daniel'
p2904
asI727
(lp2905
S'Where'
p2906
aS'is'
p2907
aS'Daniel'
p2908
asI728
(lp2909
S'Where'
p2910
aS'is'
p2911
aS'Mary'
p2912
asI729
(lp2913
S'Where'
p2914
aS'is'
p2915
aS'Mary'
p2916
asI730
(lp2917
S'Where'
p2918
aS'is'
p2919
aS'Mary'
p2920
asI731
(lp2921
S'Where'
p2922
aS'is'
p2923
aS'John'
p2924
asI732
(lp2925
S'Where'
p2926
aS'is'
p2927
aS'John'
p2928
asI733
(lp2929
S'Where'
p2930
aS'is'
p2931
aS'John'
p2932
asI734
(lp2933
S'Where'
p2934
aS'is'
p2935
aS'Sandra'
p2936
asI735
(lp2937
S'Where'
p2938
aS'is'
p2939
aS'Mary'
p2940
asI736
(lp2941
S'Where'
p2942
aS'is'
p2943
aS'John'
p2944
asI737
(lp2945
S'Where'
p2946
aS'is'
p2947
aS'John'
p2948
asI738
(lp2949
S'Where'
p2950
aS'is'
p2951
aS'John'
p2952
asI739
(lp2953
S'Where'
p2954
aS'is'
p2955
aS'Daniel'
p2956
asI740
(lp2957
S'Where'
p2958
aS'is'
p2959
aS'Sandra'
p2960
asI741
(lp2961
S'Where'
p2962
aS'is'
p2963
aS'John'
p2964
asI742
(lp2965
S'Where'
p2966
aS'is'
p2967
aS'Daniel'
p2968
asI743
(lp2969
S'Where'
p2970
aS'is'
p2971
aS'Daniel'
p2972
asI744
(lp2973
S'Where'
p2974
aS'is'
p2975
aS'Sandra'
p2976
asI745
(lp2977
S'Where'
p2978
aS'is'
p2979
aS'Mary'
p2980
asI746
(lp2981
S'Where'
p2982
aS'is'
p2983
aS'Sandra'
p2984
asI747
(lp2985
S'Where'
p2986
aS'is'
p2987
aS'John'
p2988
asI748
(lp2989
S'Where'
p2990
aS'is'
p2991
aS'Mary'
p2992
asI749
(lp2993
S'Where'
p2994
aS'is'
p2995
aS'Sandra'
p2996
asI750
(lp2997
S'Where'
p2998
aS'is'
p2999
aS'John'
p3000
asI751
(lp3001
S'Where'
p3002
aS'is'
p3003
aS'Sandra'
p3004
asI752
(lp3005
S'Where'
p3006
aS'is'
p3007
aS'John'
p3008
asI753
(lp3009
S'Where'
p3010
aS'is'
p3011
aS'Sandra'
p3012
asI754
(lp3013
S'Where'
p3014
aS'is'
p3015
aS'Sandra'
p3016
asI755
(lp3017
S'Where'
p3018
aS'is'
p3019
aS'Mary'
p3020
asI756
(lp3021
S'Where'
p3022
aS'is'
p3023
aS'Mary'
p3024
asI757
(lp3025
S'Where'
p3026
aS'is'
p3027
aS'Daniel'
p3028
asI758
(lp3029
S'Where'
p3030
aS'is'
p3031
aS'Daniel'
p3032
asI759
(lp3033
S'Where'
p3034
aS'is'
p3035
aS'Daniel'
p3036
asI760
(lp3037
S'Where'
p3038
aS'is'
p3039
aS'Sandra'
p3040
asI761
(lp3041
S'Where'
p3042
aS'is'
p3043
aS'Mary'
p3044
asI762
(lp3045
S'Where'
p3046
aS'is'
p3047
aS'John'
p3048
asI763
(lp3049
S'Where'
p3050
aS'is'
p3051
aS'Sandra'
p3052
asI764
(lp3053
S'Where'
p3054
aS'is'
p3055
aS'Sandra'
p3056
asI765
(lp3057
S'Where'
p3058
aS'is'
p3059
aS'Daniel'
p3060
asI766
(lp3061
S'Where'
p3062
aS'is'
p3063
aS'Mary'
p3064
asI767
(lp3065
S'Where'
p3066
aS'is'
p3067
aS'Mary'
p3068
asI768
(lp3069
S'Where'
p3070
aS'is'
p3071
aS'Mary'
p3072
asI769
(lp3073
S'Where'
p3074
aS'is'
p3075
aS'John'
p3076
asI770
(lp3077
S'Where'
p3078
aS'is'
p3079
aS'Daniel'
p3080
asI771
(lp3081
S'Where'
p3082
aS'is'
p3083
aS'Mary'
p3084
asI772
(lp3085
S'Where'
p3086
aS'is'
p3087
aS'John'
p3088
asI773
(lp3089
S'Where'
p3090
aS'is'
p3091
aS'Sandra'
p3092
asI774
(lp3093
S'Where'
p3094
aS'is'
p3095
aS'Mary'
p3096
asI775
(lp3097
S'Where'
p3098
aS'is'
p3099
aS'Mary'
p3100
asI776
(lp3101
S'Where'
p3102
aS'is'
p3103
aS'Daniel'
p3104
asI777
(lp3105
S'Where'
p3106
aS'is'
p3107
aS'Sandra'
p3108
asI778
(lp3109
S'Where'
p3110
aS'is'
p3111
aS'Sandra'
p3112
asI779
(lp3113
S'Where'
p3114
aS'is'
p3115
aS'Mary'
p3116
asI780
(lp3117
S'Where'
p3118
aS'is'
p3119
aS'Sandra'
p3120
asI781
(lp3121
S'Where'
p3122
aS'is'
p3123
aS'Daniel'
p3124
asI782
(lp3125
S'Where'
p3126
aS'is'
p3127
aS'Daniel'
p3128
asI783
(lp3129
S'Where'
p3130
aS'is'
p3131
aS'John'
p3132
asI784
(lp3133
S'Where'
p3134
aS'is'
p3135
aS'John'
p3136
asI785
(lp3137
S'Where'
p3138
aS'is'
p3139
aS'John'
p3140
asI786
(lp3141
S'Where'
p3142
aS'is'
p3143
aS'Daniel'
p3144
asI787
(lp3145
S'Where'
p3146
aS'is'
p3147
aS'John'
p3148
asI788
(lp3149
S'Where'
p3150
aS'is'
p3151
aS'Daniel'
p3152
asI789
(lp3153
S'Where'
p3154
aS'is'
p3155
aS'John'
p3156
asI790
(lp3157
S'Where'
p3158
aS'is'
p3159
aS'Mary'
p3160
asI791
(lp3161
S'Where'
p3162
aS'is'
p3163
aS'Sandra'
p3164
asI792
(lp3165
S'Where'
p3166
aS'is'
p3167
aS'Sandra'
p3168
asI793
(lp3169
S'Where'
p3170
aS'is'
p3171
aS'Sandra'
p3172
asI794
(lp3173
S'Where'
p3174
aS'is'
p3175
aS'Mary'
p3176
asI795
(lp3177
S'Where'
p3178
aS'is'
p3179
aS'Sandra'
p3180
asI796
(lp3181
S'Where'
p3182
aS'is'
p3183
aS'Sandra'
p3184
asI797
(lp3185
S'Where'
p3186
aS'is'
p3187
aS'John'
p3188
asI798
(lp3189
S'Where'
p3190
aS'is'
p3191
aS'John'
p3192
asI799
(lp3193
S'Where'
p3194
aS'is'
p3195
aS'John'
p3196
asI800
(lp3197
S'Where'
p3198
aS'is'
p3199
aS'Daniel'
p3200
asI801
(lp3201
S'Where'
p3202
aS'is'
p3203
aS'Sandra'
p3204
asI802
(lp3205
S'Where'
p3206
aS'is'
p3207
aS'Sandra'
p3208
asI803
(lp3209
S'Where'
p3210
aS'is'
p3211
aS'Sandra'
p3212
asI804
(lp3213
S'Where'
p3214
aS'is'
p3215
aS'Mary'
p3216
asI805
(lp3217
S'Where'
p3218
aS'is'
p3219
aS'Sandra'
p3220
asI806
(lp3221
S'Where'
p3222
aS'is'
p3223
aS'John'
p3224
asI807
(lp3225
S'Where'
p3226
aS'is'
p3227
aS'Sandra'
p3228
asI808
(lp3229
S'Where'
p3230
aS'is'
p3231
aS'Sandra'
p3232
asI809
(lp3233
S'Where'
p3234
aS'is'
p3235
aS'Mary'
p3236
asI810
(lp3237
S'Where'
p3238
aS'is'
p3239
aS'Mary'
p3240
asI811
(lp3241
S'Where'
p3242
aS'is'
p3243
aS'Mary'
p3244
asI812
(lp3245
S'Where'
p3246
aS'is'
p3247
aS'Sandra'
p3248
asI813
(lp3249
S'Where'
p3250
aS'is'
p3251
aS'Daniel'
p3252
asI814
(lp3253
S'Where'
p3254
aS'is'
p3255
aS'Mary'
p3256
asI815
(lp3257
S'Where'
p3258
aS'is'
p3259
aS'Daniel'
p3260
asI816
(lp3261
S'Where'
p3262
aS'is'
p3263
aS'Mary'
p3264
asI817
(lp3265
S'Where'
p3266
aS'is'
p3267
aS'Mary'
p3268
asI818
(lp3269
S'Where'
p3270
aS'is'
p3271
aS'Sandra'
p3272
asI819
(lp3273
S'Where'
p3274
aS'is'
p3275
aS'John'
p3276
asI820
(lp3277
S'Where'
p3278
aS'is'
p3279
aS'Mary'
p3280
asI821
(lp3281
S'Where'
p3282
aS'is'
p3283
aS'John'
p3284
asI822
(lp3285
S'Where'
p3286
aS'is'
p3287
aS'John'
p3288
asI823
(lp3289
S'Where'
p3290
aS'is'
p3291
aS'Mary'
p3292
asI824
(lp3293
S'Where'
p3294
aS'is'
p3295
aS'Mary'
p3296
asI825
(lp3297
S'Where'
p3298
aS'is'
p3299
aS'John'
p3300
asI826
(lp3301
S'Where'
p3302
aS'is'
p3303
aS'Mary'
p3304
asI827
(lp3305
S'Where'
p3306
aS'is'
p3307
aS'Daniel'
p3308
asI828
(lp3309
S'Where'
p3310
aS'is'
p3311
aS'Mary'
p3312
asI829
(lp3313
S'Where'
p3314
aS'is'
p3315
aS'John'
p3316
asI830
(lp3317
S'Where'
p3318
aS'is'
p3319
aS'Daniel'
p3320
asI831
(lp3321
S'Where'
p3322
aS'is'
p3323
aS'Mary'
p3324
asI832
(lp3325
S'Where'
p3326
aS'is'
p3327
aS'Mary'
p3328
asI833
(lp3329
S'Where'
p3330
aS'is'
p3331
aS'Sandra'
p3332
asI834
(lp3333
S'Where'
p3334
aS'is'
p3335
aS'Daniel'
p3336
asI835
(lp3337
S'Where'
p3338
aS'is'
p3339
aS'John'
p3340
asI836
(lp3341
S'Where'
p3342
aS'is'
p3343
aS'Daniel'
p3344
asI837
(lp3345
S'Where'
p3346
aS'is'
p3347
aS'John'
p3348
asI838
(lp3349
S'Where'
p3350
aS'is'
p3351
aS'Sandra'
p3352
asI839
(lp3353
S'Where'
p3354
aS'is'
p3355
aS'Daniel'
p3356
asI840
(lp3357
S'Where'
p3358
aS'is'
p3359
aS'Sandra'
p3360
asI841
(lp3361
S'Where'
p3362
aS'is'
p3363
aS'Mary'
p3364
asI842
(lp3365
S'Where'
p3366
aS'is'
p3367
aS'John'
p3368
asI843
(lp3369
S'Where'
p3370
aS'is'
p3371
aS'Daniel'
p3372
asI844
(lp3373
S'Where'
p3374
aS'is'
p3375
aS'Mary'
p3376
asI845
(lp3377
S'Where'
p3378
aS'is'
p3379
aS'Mary'
p3380
asI846
(lp3381
S'Where'
p3382
aS'is'
p3383
aS'John'
p3384
asI847
(lp3385
S'Where'
p3386
aS'is'
p3387
aS'John'
p3388
asI848
(lp3389
S'Where'
p3390
aS'is'
p3391
aS'John'
p3392
asI849
(lp3393
S'Where'
p3394
aS'is'
p3395
aS'John'
p3396
asI850
(lp3397
S'Where'
p3398
aS'is'
p3399
aS'Sandra'
p3400
asI851
(lp3401
S'Where'
p3402
aS'is'
p3403
aS'John'
p3404
asI852
(lp3405
S'Where'
p3406
aS'is'
p3407
aS'John'
p3408
asI853
(lp3409
S'Where'
p3410
aS'is'
p3411
aS'John'
p3412
asI854
(lp3413
S'Where'
p3414
aS'is'
p3415
aS'Sandra'
p3416
asI855
(lp3417
S'Where'
p3418
aS'is'
p3419
aS'Mary'
p3420
asI856
(lp3421
S'Where'
p3422
aS'is'
p3423
aS'Daniel'
p3424
asI857
(lp3425
S'Where'
p3426
aS'is'
p3427
aS'John'
p3428
asI858
(lp3429
S'Where'
p3430
aS'is'
p3431
aS'Daniel'
p3432
asI859
(lp3433
S'Where'
p3434
aS'is'
p3435
aS'Daniel'
p3436
asI860
(lp3437
S'Where'
p3438
aS'is'
p3439
aS'John'
p3440
asI861
(lp3441
S'Where'
p3442
aS'is'
p3443
aS'Sandra'
p3444
asI862
(lp3445
S'Where'
p3446
aS'is'
p3447
aS'Daniel'
p3448
asI863
(lp3449
S'Where'
p3450
aS'is'
p3451
aS'John'
p3452
asI864
(lp3453
S'Where'
p3454
aS'is'
p3455
aS'Mary'
p3456
asI865
(lp3457
S'Where'
p3458
aS'is'
p3459
aS'Mary'
p3460
asI866
(lp3461
S'Where'
p3462
aS'is'
p3463
aS'Mary'
p3464
asI867
(lp3465
S'Where'
p3466
aS'is'
p3467
aS'Sandra'
p3468
asI868
(lp3469
S'Where'
p3470
aS'is'
p3471
aS'John'
p3472
asI869
(lp3473
S'Where'
p3474
aS'is'
p3475
aS'Sandra'
p3476
asI870
(lp3477
S'Where'
p3478
aS'is'
p3479
aS'Sandra'
p3480
asI871
(lp3481
S'Where'
p3482
aS'is'
p3483
aS'Sandra'
p3484
asI872
(lp3485
S'Where'
p3486
aS'is'
p3487
aS'John'
p3488
asI873
(lp3489
S'Where'
p3490
aS'is'
p3491
aS'Mary'
p3492
asI874
(lp3493
S'Where'
p3494
aS'is'
p3495
aS'Daniel'
p3496
asI875
(lp3497
S'Where'
p3498
aS'is'
p3499
aS'Daniel'
p3500
asI876
(lp3501
S'Where'
p3502
aS'is'
p3503
aS'Mary'
p3504
asI877
(lp3505
S'Where'
p3506
aS'is'
p3507
aS'Daniel'
p3508
asI878
(lp3509
S'Where'
p3510
aS'is'
p3511
aS'Daniel'
p3512
asI879
(lp3513
S'Where'
p3514
aS'is'
p3515
aS'Daniel'
p3516
asI880
(lp3517
S'Where'
p3518
aS'is'
p3519
aS'John'
p3520
asI881
(lp3521
S'Where'
p3522
aS'is'
p3523
aS'Sandra'
p3524
asI882
(lp3525
S'Where'
p3526
aS'is'
p3527
aS'Sandra'
p3528
asI883
(lp3529
S'Where'
p3530
aS'is'
p3531
aS'Sandra'
p3532
asI884
(lp3533
S'Where'
p3534
aS'is'
p3535
aS'Sandra'
p3536
asI885
(lp3537
S'Where'
p3538
aS'is'
p3539
aS'Sandra'
p3540
asI886
(lp3541
S'Where'
p3542
aS'is'
p3543
aS'Mary'
p3544
asI887
(lp3545
S'Where'
p3546
aS'is'
p3547
aS'Daniel'
p3548
asI888
(lp3549
S'Where'
p3550
aS'is'
p3551
aS'Daniel'
p3552
asI889
(lp3553
S'Where'
p3554
aS'is'
p3555
aS'Mary'
p3556
asI890
(lp3557
S'Where'
p3558
aS'is'
p3559
aS'Mary'
p3560
asI891
(lp3561
S'Where'
p3562
aS'is'
p3563
aS'Daniel'
p3564
asI892
(lp3565
S'Where'
p3566
aS'is'
p3567
aS'John'
p3568
asI893
(lp3569
S'Where'
p3570
aS'is'
p3571
aS'Mary'
p3572
asI894
(lp3573
S'Where'
p3574
aS'is'
p3575
aS'Mary'
p3576
asI895
(lp3577
S'Where'
p3578
aS'is'
p3579
aS'John'
p3580
asI896
(lp3581
S'Where'
p3582
aS'is'
p3583
aS'Daniel'
p3584
asI897
(lp3585
S'Where'
p3586
aS'is'
p3587
aS'Daniel'
p3588
asI898
(lp3589
S'Where'
p3590
aS'is'
p3591
aS'Daniel'
p3592
asI899
(lp3593
S'Where'
p3594
aS'is'
p3595
aS'Mary'
p3596
asI900
(lp3597
S'Where'
p3598
aS'is'
p3599
aS'Sandra'
p3600
asI901
(lp3601
S'Where'
p3602
aS'is'
p3603
aS'Mary'
p3604
asI902
(lp3605
S'Where'
p3606
aS'is'
p3607
aS'Mary'
p3608
asI903
(lp3609
S'Where'
p3610
aS'is'
p3611
aS'Daniel'
p3612
asI904
(lp3613
S'Where'
p3614
aS'is'
p3615
aS'Mary'
p3616
asI905
(lp3617
S'Where'
p3618
aS'is'
p3619
aS'Daniel'
p3620
asI906
(lp3621
S'Where'
p3622
aS'is'
p3623
aS'Sandra'
p3624
asI907
(lp3625
S'Where'
p3626
aS'is'
p3627
aS'Daniel'
p3628
asI908
(lp3629
S'Where'
p3630
aS'is'
p3631
aS'Sandra'
p3632
asI909
(lp3633
S'Where'
p3634
aS'is'
p3635
aS'Sandra'
p3636
asI910
(lp3637
S'Where'
p3638
aS'is'
p3639
aS'John'
p3640
asI911
(lp3641
S'Where'
p3642
aS'is'
p3643
aS'Mary'
p3644
asI912
(lp3645
S'Where'
p3646
aS'is'
p3647
aS'Mary'
p3648
asI913
(lp3649
S'Where'
p3650
aS'is'
p3651
aS'Daniel'
p3652
asI914
(lp3653
S'Where'
p3654
aS'is'
p3655
aS'Sandra'
p3656
asI915
(lp3657
S'Where'
p3658
aS'is'
p3659
aS'Mary'
p3660
asI916
(lp3661
S'Where'
p3662
aS'is'
p3663
aS'John'
p3664
asI917
(lp3665
S'Where'
p3666
aS'is'
p3667
aS'Sandra'
p3668
asI918
(lp3669
S'Where'
p3670
aS'is'
p3671
aS'Sandra'
p3672
asI919
(lp3673
S'Where'
p3674
aS'is'
p3675
aS'Sandra'
p3676
asI920
(lp3677
S'Where'
p3678
aS'is'
p3679
aS'Daniel'
p3680
asI921
(lp3681
S'Where'
p3682
aS'is'
p3683
aS'Daniel'
p3684
asI922
(lp3685
S'Where'
p3686
aS'is'
p3687
aS'Daniel'
p3688
asI923
(lp3689
S'Where'
p3690
aS'is'
p3691
aS'Daniel'
p3692
asI924
(lp3693
S'Where'
p3694
aS'is'
p3695
aS'John'
p3696
asI925
(lp3697
S'Where'
p3698
aS'is'
p3699
aS'John'
p3700
asI926
(lp3701
S'Where'
p3702
aS'is'
p3703
aS'John'
p3704
asI927
(lp3705
S'Where'
p3706
aS'is'
p3707
aS'John'
p3708
asI928
(lp3709
S'Where'
p3710
aS'is'
p3711
aS'Mary'
p3712
asI929
(lp3713
S'Where'
p3714
aS'is'
p3715
aS'John'
p3716
asI930
(lp3717
S'Where'
p3718
aS'is'
p3719
aS'Sandra'
p3720
asI931
(lp3721
S'Where'
p3722
aS'is'
p3723
aS'Mary'
p3724
asI932
(lp3725
S'Where'
p3726
aS'is'
p3727
aS'Daniel'
p3728
asI933
(lp3729
S'Where'
p3730
aS'is'
p3731
aS'Mary'
p3732
asI934
(lp3733
S'Where'
p3734
aS'is'
p3735
aS'Mary'
p3736
asI935
(lp3737
S'Where'
p3738
aS'is'
p3739
aS'John'
p3740
asI936
(lp3741
S'Where'
p3742
aS'is'
p3743
aS'John'
p3744
asI937
(lp3745
S'Where'
p3746
aS'is'
p3747
aS'John'
p3748
asI938
(lp3749
S'Where'
p3750
aS'is'
p3751
aS'Mary'
p3752
asI939
(lp3753
S'Where'
p3754
aS'is'
p3755
aS'Sandra'
p3756
asI940
(lp3757
S'Where'
p3758
aS'is'
p3759
aS'Sandra'
p3760
asI941
(lp3761
S'Where'
p3762
aS'is'
p3763
aS'Sandra'
p3764
asI942
(lp3765
S'Where'
p3766
aS'is'
p3767
aS'Mary'
p3768
asI943
(lp3769
S'Where'
p3770
aS'is'
p3771
aS'Mary'
p3772
asI944
(lp3773
S'Where'
p3774
aS'is'
p3775
aS'Sandra'
p3776
asI945
(lp3777
S'Where'
p3778
aS'is'
p3779
aS'Sandra'
p3780
asI946
(lp3781
S'Where'
p3782
aS'is'
p3783
aS'John'
p3784
asI947
(lp3785
S'Where'
p3786
aS'is'
p3787
aS'Daniel'
p3788
asI948
(lp3789
S'Where'
p3790
aS'is'
p3791
aS'John'
p3792
asI949
(lp3793
S'Where'
p3794
aS'is'
p3795
aS'Sandra'
p3796
asI950
(lp3797
S'Where'
p3798
aS'is'
p3799
aS'Sandra'
p3800
asI951
(lp3801
S'Where'
p3802
aS'is'
p3803
aS'Mary'
p3804
asI952
(lp3805
S'Where'
p3806
aS'is'
p3807
aS'Mary'
p3808
asI953
(lp3809
S'Where'
p3810
aS'is'
p3811
aS'Daniel'
p3812
asI954
(lp3813
S'Where'
p3814
aS'is'
p3815
aS'Sandra'
p3816
asI955
(lp3817
S'Where'
p3818
aS'is'
p3819
aS'Daniel'
p3820
asI956
(lp3821
S'Where'
p3822
aS'is'
p3823
aS'John'
p3824
asI957
(lp3825
S'Where'
p3826
aS'is'
p3827
aS'Mary'
p3828
asI958
(lp3829
S'Where'
p3830
aS'is'
p3831
aS'John'
p3832
asI959
(lp3833
S'Where'
p3834
aS'is'
p3835
aS'Daniel'
p3836
asI960
(lp3837
S'Where'
p3838
aS'is'
p3839
aS'Daniel'
p3840
asI961
(lp3841
S'Where'
p3842
aS'is'
p3843
aS'Mary'
p3844
asI962
(lp3845
S'Where'
p3846
aS'is'
p3847
aS'John'
p3848
asI963
(lp3849
S'Where'
p3850
aS'is'
p3851
aS'Daniel'
p3852
asI964
(lp3853
S'Where'
p3854
aS'is'
p3855
aS'John'
p3856
asI965
(lp3857
S'Where'
p3858
aS'is'
p3859
aS'Mary'
p3860
asI966
(lp3861
S'Where'
p3862
aS'is'
p3863
aS'John'
p3864
asI967
(lp3865
S'Where'
p3866
aS'is'
p3867
aS'John'
p3868
asI968
(lp3869
S'Where'
p3870
aS'is'
p3871
aS'Mary'
p3872
asI969
(lp3873
S'Where'
p3874
aS'is'
p3875
aS'Sandra'
p3876
asI970
(lp3877
S'Where'
p3878
aS'is'
p3879
aS'Sandra'
p3880
asI971
(lp3881
S'Where'
p3882
aS'is'
p3883
aS'John'
p3884
asI972
(lp3885
S'Where'
p3886
aS'is'
p3887
aS'John'
p3888
asI973
(lp3889
S'Where'
p3890
aS'is'
p3891
aS'Daniel'
p3892
asI974
(lp3893
S'Where'
p3894
aS'is'
p3895
aS'John'
p3896
asI975
(lp3897
S'Where'
p3898
aS'is'
p3899
aS'Mary'
p3900
asI976
(lp3901
S'Where'
p3902
aS'is'
p3903
aS'Sandra'
p3904
asI977
(lp3905
S'Where'
p3906
aS'is'
p3907
aS'John'
p3908
asI978
(lp3909
S'Where'
p3910
aS'is'
p3911
aS'Daniel'
p3912
asI979
(lp3913
S'Where'
p3914
aS'is'
p3915
aS'Sandra'
p3916
asI980
(lp3917
S'Where'
p3918
aS'is'
p3919
aS'Mary'
p3920
asI981
(lp3921
S'Where'
p3922
aS'is'
p3923
aS'John'
p3924
asI982
(lp3925
S'Where'
p3926
aS'is'
p3927
aS'Daniel'
p3928
asI983
(lp3929
S'Where'
p3930
aS'is'
p3931
aS'Mary'
p3932
asI984
(lp3933
S'Where'
p3934
aS'is'
p3935
aS'Sandra'
p3936
asI985
(lp3937
S'Where'
p3938
aS'is'
p3939
aS'Daniel'
p3940
asI986
(lp3941
S'Where'
p3942
aS'is'
p3943
aS'John'
p3944
asI987
(lp3945
S'Where'
p3946
aS'is'
p3947
aS'Mary'
p3948
asI988
(lp3949
S'Where'
p3950
aS'is'
p3951
aS'John'
p3952
asI989
(lp3953
S'Where'
p3954
aS'is'
p3955
aS'Mary'
p3956
asI990
(lp3957
S'Where'
p3958
aS'is'
p3959
aS'Mary'
p3960
asI991
(lp3961
S'Where'
p3962
aS'is'
p3963
aS'Daniel'
p3964
asI992
(lp3965
S'Where'
p3966
aS'is'
p3967
aS'Daniel'
p3968
asI993
(lp3969
S'Where'
p3970
aS'is'
p3971
aS'Mary'
p3972
asI994
(lp3973
S'Where'
p3974
aS'is'
p3975
aS'Daniel'
p3976
asI995
(lp3977
S'Where'
p3978
aS'is'
p3979
aS'John'
p3980
asI996
(lp3981
S'Where'
p3982
aS'is'
p3983
aS'Sandra'
p3984
asI997
(lp3985
S'Where'
p3986
aS'is'
p3987
aS'Sandra'
p3988
asI998
(lp3989
S'Where'
p3990
aS'is'
p3991
aS'Daniel'
p3992
asI999
(lp3993
S'Where'
p3994
aS'is'
p3995
aS'John'
p3996
asI1000
(lp3997
S'Where'
p3998
aS'is'
p3999
aS'Daniel'
p4000
as.