(dp0
S'office'
p1
I3
sS'is'
p2
I7
sS'moved'
p3
I8
sS'back'
p4
I9
sS'Daniel'
p5
I10
sS'bedroom'
p6
I4
sS'John'
p7
I11
sS'Mary'
p8
I20
sS'bathroom'
p9
I1
sS'1'
p10
I21
sS'to'
p11
I22
sS'2'
p12
I23
sS'5'
p13
I24
sS'4'
p14
I25
sS'7'
p15
I26
sS'Sandra'
p16
I27
sS'8'
p17
I28
sS'travelled'
p18
I19
sS'hallway'
p19
I2
sS'garden'
p20
I6
sS'Where'
p21
I12
sS'went'
p22
I29
sS'kitchen'
p23
I5
sS'11'
p24
I14
sS'10'
p25
I15
sS'13'
p26
I16
sS'14'
p27
I17
sS'journeyed'
p28
I18
sS'the'
p29
I13
s.