(dp0
S'office'
p1
I5
sS'Daniel'
p2
I9
sS'bedroom'
p3
I4
sS'milk'
p4
I10
sS'24'
p5
I11
sS'25'
p6
I12
sS'26'
p7
I76
sS'27'
p8
I13
sS'grabbed'
p9
I78
sS'21'
p10
I15
sS'22'
p11
I16
sS'23'
p12
I17
sS'28'
p13
I19
sS'29'
p14
I20
sS'to'
p15
I21
sS'4'
p16
I23
sS'8'
p17
I25
sS'garden'
p18
I1
sS'Where'
p19
I31
sS'60'
p20
I29
sS'59'
p21
I30
sS'55'
p22
I48
sS'54'
p23
I49
sS'57'
p24
I42
sS'56'
p25
I43
sS'51'
p26
I44
sS'50'
p27
I54
sS'52'
p28
I46
sS'discarded'
p29
I47
sS'went'
p30
I50
sS'back'
p31
I53
sS'picked'
p32
I56
sS'John'
p33
I57
sS'Mary'
p34
I58
sS'3'
p35
I70
sS'7'
p36
I72
sS'got'
p37
I74
sS'put'
p38
I77
sS'20'
p39
I14
sS'kitchen'
p40
I3
sS'39'
p41
I79
sS'38'
p42
I80
sS'journeyed'
p43
I81
sS'33'
p44
I82
sS'32'
p45
I83
sS'31'
p46
I84
sS'30'
p47
I85
sS'37'
p48
I86
sS'36'
p49
I87
sS'35'
p50
I88
sS'34'
p51
I89
sS'apple'
p52
I7
sS'down'
p53
I8
sS'bathroom'
p54
I6
sS'there'
p55
I18
sS'2'
p56
I22
sS'6'
p57
I24
sS'travelled'
p58
I26
sS'Sandra'
p59
I27
sS'took'
p60
I28
sS'11'
p61
I32
sS'10'
p62
I33
sS'13'
p63
I34
sS'12'
p64
I35
sS'15'
p65
I36
sS'14'
p66
I37
sS'17'
p67
I38
sS'16'
p68
I39
sS'19'
p69
I40
sS'18'
p70
I41
sS'up'
p71
I45
sS'is'
p72
I51
sS'moved'
p73
I52
sS'dropped'
p74
I55
sS'48'
p75
I59
sS'49'
p76
I60
sS'46'
p77
I61
sS'47'
p78
I62
sS'44'
p79
I63
sS'45'
p80
I64
sS'42'
p81
I65
sS'43'
p82
I66
sS'40'
p83
I67
sS'41'
p84
I68
sS'1'
p85
I69
sS'5'
p86
I71
sS'9'
p87
I73
sS'hallway'
p88
I2
sS'football'
p89
I75
sS'the'
p90
I90
sS'left'
p91
I91
s.